

Microchip MPLAB XC8 Assembler V2.36 build 20220127204148 
                                                                                               Wed Jun 29 22:44:56 2022

Microchip MPLAB XC8 C Compiler v2.36 (Free license) build 20220127204148 Og1 
     1                           	processor	18F27K40
     2                           	fnconf	rparam,??,?,0
     3                           	pagewidth 120
     4                           	opt	flic
     5                           	psect	idataCOMRAM,global,class=CODE,delta=1,noexec
     6                           	psect	smallconst,global,reloc=2,class=SMALLCONST,delta=1,noexec
     7                           	psect	nvCOMRAM,global,class=COMRAM,space=1,delta=1,lowdata,noexec
     8                           	psect	cinit,global,reloc=2,class=CODE,delta=1
     9                           	psect	bssCOMRAM,global,class=COMRAM,space=1,delta=1,lowdata,noexec
    10                           	psect	dataCOMRAM,global,class=COMRAM,space=1,delta=1,lowdata,noexec
    11                           	psect	bssBANK0,global,class=BANK0,space=1,delta=1,lowdata,noexec
    12                           	psect	bssBIGRAM,global,class=BIGRAM,space=1,delta=1,noexec
    13                           	psect	cstackBANK0,global,class=BANK0,space=1,delta=1,lowdata,noexec
    14                           	psect	cstackCOMRAM,global,class=COMRAM,space=1,delta=1,lowdata,noexec
    15                           	psect	text0,global,reloc=2,class=CODE,delta=1
    16                           	psect	text1,global,reloc=2,class=CODE,delta=1
    17                           	psect	text2,global,reloc=2,class=CODE,delta=1
    18                           	psect	text3,global,reloc=2,class=CODE,delta=1
    19                           	psect	text4,global,reloc=2,class=CODE,delta=1
    20                           	psect	text5,global,reloc=2,class=CODE,delta=1
    21                           	psect	text6,global,reloc=2,class=CODE,delta=1
    22                           	psect	text7,global,reloc=2,class=CODE,delta=1
    23                           	psect	text8,global,reloc=2,class=CODE,delta=1
    24                           	psect	text9,global,reloc=2,class=CODE,delta=1
    25                           	psect	text10,global,reloc=2,class=CODE,delta=1
    26                           	psect	text11,global,reloc=2,class=CODE,delta=1
    27                           	psect	intcode,global,reloc=2,class=CODE,delta=1
    28                           	psect	text13,global,reloc=2,class=CODE,delta=1
    29                           	psect	text14,global,reloc=2,class=CODE,delta=1
    30                           	psect	text15,global,reloc=2,class=CODE,delta=1
    31                           	psect	text16,global,reloc=2,class=CODE,delta=1
    32                           	psect	text17,global,reloc=2,class=CODE,delta=1
    33                           	psect	text18,global,reloc=2,class=CODE,delta=1
    34                           	psect	text19,global,reloc=2,class=CODE,delta=1
    35                           	psect	text20,global,reloc=2,class=CODE,delta=1
    36                           	psect	intsave_regs,global,class=BIGRAM,space=1,delta=1,noexec
    37                           	psect	text21,global,reloc=2,class=CODE,delta=1
    38                           	psect	rparam,global,class=COMRAM,space=1,delta=1,noexec
    39                           	psect	temp,global,ovrld,common,class=COMRAM,space=1,delta=1
    40                           	psect	idloc,global,abs,ovrld,class=IDLOC,space=5,delta=1,noexec
    41                           	psect	config,global,abs,ovrld,class=CONFIG,space=4,delta=1,noexec
    42  0000                     
    43                           ; Version 2.40
    44                           ; Generated 17/11/2021 GMT
    45                           ; 
    46                           ; Copyright © 2021, Microchip Technology Inc. and its subsidiaries ("Microchip")
    47                           ; All rights reserved.
    48                           ; 
    49                           ; This software is developed by Microchip Technology Inc. and its subsidiaries ("Microch
      +                          ip").
    50                           ; 
    51                           ; Redistribution and use in source and binary forms, with or without modification, are
    52                           ; permitted provided that the following conditions are met:
    53                           ; 
    54                           ;     1. Redistributions of source code must retain the above copyright notice, this lis
      +                          t of
    55                           ;        conditions and the following disclaimer.
    56                           ; 
    57                           ;     2. Redistributions in binary form must reproduce the above copyright notice, this 
      +                          list
    58                           ;        of conditions and the following disclaimer in the documentation and/or other
    59                           ;        materials provided with the distribution. Publication is not required when
    60                           ;        this file is used in an embedded application.
    61                           ; 
    62                           ;     3. Microchip's name may not be used to endorse or promote products derived from th
      +                          is
    63                           ;        software without specific prior written permission.
    64                           ; 
    65                           ; THIS SOFTWARE IS PROVIDED BY MICROCHIP "AS IS" AND ANY EXPRESS OR IMPLIED WARRANTIES,
    66                           ; INCLUDING, BUT NOT LIMITED TO, THE IMPLIED WARRANTIES OF MERCHANTABILITY AND FITNESS F
      +                          OR
    67                           ; PURPOSE ARE DISCLAIMED.  IN NO EVENT SHALL MICROCHIP BE LIABLE FOR ANY DIRECT, INDIREC
      +                          T,
    68                           ; INCIDENTAL, SPECIAL, EXEMPLARY, OR CONSEQUENTIAL DAMAGES (INCLUDING BUT NOT LIMITED TO
    69                           ; PROCUREMENT OF SUBSTITUTE GOODS OR SERVICES; LOSS OF USE, DATA OR PROFITS; OR BUSINESS
    70                           ; INTERRUPTION) HOWSOEVER CAUSED AND ON ANY THEORY OF LIABILITY, WHETHER IN CONTRACT, ST
      +                          RICT
    71                           ; LIABILITY, OR TORT (INCLUDING NEGLIGENCE OR OTHERWISE) ARISING IN ANY WAY OUT OF THE U
      +                          SE OF
    72                           ; THIS SOFTWARE, EVEN IF ADVISED OF THE POSSIBILITY OF SUCH DAMAGE.
    73                           ; 
    74                           ; 
    75                           ; Code-generator required, PIC18F27K40 Definitions
    76                           ; 
    77                           ; SFR Addresses
    78  0000                     
    79 ;; Function _rd1RegCompleteHandler is unused but had its address taken
    80  0000                     
    81 ;; Function _rd2RegCompleteHandler is unused but had its address taken
    82  0000                     
    83 ;; Function _wr1RegCompleteHandler is unused but had its address taken
    84  0000                     
    85 ;; Function _wr2RegCompleteHandler is unused but had its address taken
    86  0000                     
    87 ;; Function _rdBlkRegCompleteHandler is unused but had its address taken
    88  0000                     
    89 ;; Function _I2C1_DO_IDLE is unused but had its address taken
    90  0000                     
    91 ;; Function _I2C1_DO_SEND_ADR_READ is unused but had its address taken
    92  0000                     
    93 ;; Function _I2C1_DO_SEND_ADR_WRITE is unused but had its address taken
    94  0000                     
    95 ;; Function _I2C1_DO_TX is unused but had its address taken
    96  0000                     
    97 ;; Function _I2C1_DO_RX is unused but had its address taken
    98  0000                     
    99 ;; Function _I2C1_DO_RCEN is unused but had its address taken
   100  0000                     
   101 ;; Function _I2C1_DO_TX_EMPTY is unused but had its address taken
   102  0000                     
   103 ;; Function _I2C1_DO_SEND_RESTART_READ is unused but had its address taken
   104  0000                     
   105 ;; Function _I2C1_DO_SEND_RESTART_WRITE is unused but had its address taken
   106  0000                     
   107 ;; Function _I2C1_DO_SEND_RESTART is unused but had its address taken
   108  0000                     
   109 ;; Function _I2C1_DO_SEND_STOP is unused but had its address taken
   110  0000                     
   111 ;; Function _I2C1_DO_RX_ACK is unused but had its address taken
   112  0000                     
   113 ;; Function _I2C1_DO_RX_NACK_STOP is unused but had its address taken
   114  0000                     
   115 ;; Function _I2C1_DO_RX_NACK_RESTART is unused but had its address taken
   116  0000                     
   117 ;; Function _I2C1_DO_RESET is unused but had its address taken
   118  0000                     
   119 ;; Function _I2C1_DO_ADDRESS_NACK is unused but had its address taken
   120  0000                     
   121 ;; Function _I2C1_CallbackReturnStop is unused but had its address taken
   122  0000                     
   123 ;; Function _I2C1_CallbackReturnReset is unused but had its address taken
   124  0000                     
   125                           	psect	idataCOMRAM
   126  001258                     __pidataCOMRAM:
   127                           	callstack 0
   128                           
   129                           ;initializer for DiskTest@F10576
   130  001258  48                 	db	72
   131  001259  65                 	db	101
   132  00125A  6C                 	db	108
   133  00125B  6C                 	db	108
   134  00125C  6F                 	db	111
   135  00125D  20                 	db	32
   136  00125E  57                 	db	87
   137  00125F  6F                 	db	111
   138  001260  72                 	db	114
   139  001261  6C                 	db	108
   140  001262  64                 	db	100
   141  001263  21                 	db	33
   142  001264  00                 	db	0
   143                           
   144                           ;initializer for FatFsDemo_Tasks@F262
   145  001265  48                 	db	72
   146  001266  65                 	db	101
   147  001267  6C                 	db	108
   148  001268  6C                 	db	108
   149  001269  6F                 	db	111
   150  00126A  20                 	db	32
   151  00126B  57                 	db	87
   152  00126C  6F                 	db	111
   153  00126D  72                 	db	114
   154  00126E  6C                 	db	108
   155  00126F  64                 	db	100
   156  001270  21                 	db	33
   157  001271  00                 	db	0
   158                           
   159                           	psect	smallconst
   160  000F00                     __psmallconst:
   161                           	callstack 0
   162  000F00  00                 	db	0
   163  000F01                     _ExCvt:
   164                           	callstack 0
   165  000F01  80                 	db	128
   166  000F02  9A                 	db	154
   167  000F03  45                 	db	69
   168  000F04  41                 	db	65
   169  000F05  8E                 	db	142
   170  000F06  41                 	db	65
   171  000F07  8F                 	db	143
   172  000F08  80                 	db	128
   173  000F09  45                 	db	69
   174  000F0A  45                 	db	69
   175  000F0B  45                 	db	69
   176  000F0C  49                 	db	73
   177  000F0D  49                 	db	73
   178  000F0E  49                 	db	73
   179  000F0F  8E                 	db	142
   180  000F10  8F                 	db	143
   181  000F11  90                 	db	144
   182  000F12  92                 	db	146
   183  000F13  92                 	db	146
   184  000F14  4F                 	db	79
   185  000F15  99                 	db	153
   186  000F16  4F                 	db	79
   187  000F17  55                 	db	85
   188  000F18  55                 	db	85
   189  000F19  59                 	db	89
   190  000F1A  99                 	db	153
   191  000F1B  9A                 	db	154
   192  000F1C  9B                 	db	155
   193  000F1D  9C                 	db	156
   194  000F1E  9D                 	db	157
   195  000F1F  9E                 	db	158
   196  000F20  9F                 	db	159
   197  000F21  41                 	db	65
   198  000F22  49                 	db	73
   199  000F23  4F                 	db	79
   200  000F24  55                 	db	85
   201  000F25  A5                 	db	165
   202  000F26  A5                 	db	165
   203  000F27  A6                 	db	166
   204  000F28  A7                 	db	167
   205  000F29  A8                 	db	168
   206  000F2A  A9                 	db	169
   207  000F2B  AA                 	db	170
   208  000F2C  AB                 	db	171
   209  000F2D  AC                 	db	172
   210  000F2E  AD                 	db	173
   211  000F2F  AE                 	db	174
   212  000F30  AF                 	db	175
   213  000F31  B0                 	db	176
   214  000F32  B1                 	db	177
   215  000F33  B2                 	db	178
   216  000F34  B3                 	db	179
   217  000F35  B4                 	db	180
   218  000F36  B5                 	db	181
   219  000F37  B6                 	db	182
   220  000F38  B7                 	db	183
   221  000F39  B8                 	db	184
   222  000F3A  B9                 	db	185
   223  000F3B  BA                 	db	186
   224  000F3C  BB                 	db	187
   225  000F3D  BC                 	db	188
   226  000F3E  BD                 	db	189
   227  000F3F  BE                 	db	190
   228  000F40  BF                 	db	191
   229  000F41  C0                 	db	192
   230  000F42  C1                 	db	193
   231  000F43  C2                 	db	194
   232  000F44  C3                 	db	195
   233  000F45  C4                 	db	196
   234  000F46  C5                 	db	197
   235  000F47  C6                 	db	198
   236  000F48  C7                 	db	199
   237  000F49  C8                 	db	200
   238  000F4A  C9                 	db	201
   239  000F4B  CA                 	db	202
   240  000F4C  CB                 	db	203
   241  000F4D  CC                 	db	204
   242  000F4E  CD                 	db	205
   243  000F4F  CE                 	db	206
   244  000F50  CF                 	db	207
   245  000F51  D0                 	db	208
   246  000F52  D1                 	db	209
   247  000F53  D2                 	db	210
   248  000F54  D3                 	db	211
   249  000F55  D4                 	db	212
   250  000F56  D5                 	db	213
   251  000F57  D6                 	db	214
   252  000F58  D7                 	db	215
   253  000F59  D8                 	db	216
   254  000F5A  D9                 	db	217
   255  000F5B  DA                 	db	218
   256  000F5C  DB                 	db	219
   257  000F5D  DC                 	db	220
   258  000F5E  DD                 	db	221
   259  000F5F  DE                 	db	222
   260  000F60  DF                 	db	223
   261  000F61  E0                 	db	224
   262  000F62  E1                 	db	225
   263  000F63  E2                 	db	226
   264  000F64  E3                 	db	227
   265  000F65  E4                 	db	228
   266  000F66  E5                 	db	229
   267  000F67  E6                 	db	230
   268  000F68  E7                 	db	231
   269  000F69  E8                 	db	232
   270  000F6A  E9                 	db	233
   271  000F6B  EA                 	db	234
   272  000F6C  EB                 	db	235
   273  000F6D  EC                 	db	236
   274  000F6E  ED                 	db	237
   275  000F6F  EE                 	db	238
   276  000F70  EF                 	db	239
   277  000F71  F0                 	db	240
   278  000F72  F1                 	db	241
   279  000F73  F2                 	db	242
   280  000F74  F3                 	db	243
   281  000F75  F4                 	db	244
   282  000F76  F5                 	db	245
   283  000F77  F6                 	db	246
   284  000F78  F7                 	db	247
   285  000F79  F8                 	db	248
   286  000F7A  F9                 	db	249
   287  000F7B  FA                 	db	250
   288  000F7C  FB                 	db	251
   289  000F7D  FC                 	db	252
   290  000F7E  FD                 	db	253
   291  000F7F  FE                 	db	254
   292  000F80  FF                 	db	255
   293  000F81                     __end_of_ExCvt:
   294                           	callstack 0
   295  000F81                     _i2c1_fsmStateTable:
   296                           	callstack 0
   297  000F81  00                 	db	0
   298  000F82  00                 	db	0
   299  000F83  00                 	db	0
   300  000F84  00                 	db	0
   301  000F85  00                 	db	0
   302  000F86  00                 	db	0
   303  000F87  00                 	db	0
   304  000F88  00                 	db	0
   305  000F89  00                 	db	0
   306  000F8A  00                 	db	0
   307  000F8B  00                 	db	0
   308  000F8C  00                 	db	0
   309  000F8D  00                 	db	0
   310  000F8E  00                 	db	0
   311  000F8F  00                 	db	0
   312  000F90  00                 	db	0
   313  000F91  00                 	db	0
   314  000F92  00                 	db	0
   315  000F93  00                 	db	0
   316  000F94  00                 	db	0
   317  000F95  00                 	db	0
   318  000F96  00                 	db	0
   319  000F97  00                 	db	0
   320  000F98  00                 	db	0
   321  000F99  00                 	db	0
   322  000F9A  00                 	db	0
   323  000F9B  00                 	db	0
   324  000F9C  00                 	db	0
   325  000F9D  00                 	db	0
   326  000F9E  00                 	db	0
   327  000F9F  00                 	db	0
   328  000FA0  00                 	db	0
   329  000FA1  00                 	db	0
   330  000FA2  00                 	db	0
   331  000FA3  00                 	db	0
   332  000FA4  00                 	db	0
   333  000FA5  00                 	db	0
   334  000FA6  00                 	db	0
   335  000FA7  00                 	db	0
   336  000FA8  00                 	db	0
   337  000FA9  00                 	db	0
   338  000FAA  00                 	db	0
   339  000FAB  00                 	db	0
   340  000FAC  00                 	db	0
   341  000FAD  00                 	db	0
   342  000FAE  00                 	db	0
   343  000FAF  00                 	db	0
   344  000FB0  00                 	db	0
   345  000FB1                     __end_of_i2c1_fsmStateTable:
   346                           	callstack 0
   347  000FB1                     _spi2_configuration:
   348                           	callstack 0
   349  000FB1  0A                 	db	10
   350  000FB2  40                 	db	64
   351  000FB3  9F                 	db	159
   352  000FB4  00                 	db	0
   353  000FB5  00                 	db	0
   354  000FB6  40                 	db	64
   355  000FB7  9F                 	db	159
   356  000FB8  00                 	db	0
   357  000FB9                     __end_of_spi2_configuration:
   358                           	callstack 0
   359  000FB9                     f_setlabel@badchr:
   360                           	callstack 0
   361  000FB9  2B                 	db	43
   362  000FBA  2E                 	db	46
   363  000FBB  2C                 	db	44
   364  000FBC  3B                 	db	59
   365  000FBD  3D                 	db	61
   366  000FBE  5B                 	db	91
   367  000FBF  5D                 	db	93
   368  000FC0  2F                 	db	47
   369  000FC1  5C                 	db	92
   370  000FC2  22                 	db	34
   371  000FC3  2A                 	db	42
   372  000FC4  3A                 	db	58
   373  000FC5  3C                 	db	60
   374  000FC6  3E                 	db	62
   375  000FC7  3F                 	db	63
   376  000FC8  7C                 	db	124
   377  000FC9  7F                 	db	127
   378  000FCA  00                 	db	0
   379  000FCB                     __end_off_setlabel@badchr:
   380                           	callstack 0
   381  0000                     _T0CON0	set	4053
   382  0000                     _IOCCPbits	set	3868
   383  0000                     _IOCCNbits	set	3867
   384  0000                     _IOCCFbits	set	3866
   385  0000                     _INLVLC	set	3869
   386  0000                     _SLRCONC	set	3870
   387  0000                     _ODCONC	set	3871
   388  0000                     _WPUC	set	3872
   389  0000                     _OSCTUNE	set	3805
   390  0000                     _OSCFRQ	set	3806
   391  000FCB                     STR_1:
   392  000FCB  22                 	db	34
   393  000FCC  2A                 	db	42
   394  000FCD  2B                 	db	43
   395  000FCE  2C                 	db	44
   396  000FCF  3A                 	db	58	;':'
   397  000FD0  3B                 	db	59	;';'
   398  000FD1  3C                 	db	60	;'<'
   399  000FD2  3D                 	db	61	;'='
   400  000FD3  3E                 	db	62	;'>'
   401  000FD4  3F                 	db	63	;'?'
   402  000FD5  5B                 	db	91	;'['
   403  000FD6  5D                 	db	93	;']'
   404  000FD7  7C                 	db	124
   405  000FD8  7F                 	db	127
   406  000FD9  00                 	db	0
   407  000FDA  61                 	db	97	;'a'
   408  000FDB  6E                 	db	110	;'n'
   409  000FDC  6F                 	db	111	;'o'
   410  000FDD  74                 	db	116	;'t'
   411  000FDE  68                 	db	104	;'h'
   412  000FDF  65                 	db	101	;'e'
   413  000FE0  72                 	db	114	;'r'
   414  000FE1  2E                 	db	46
   415  000FE2  74                 	db	116	;'t'
   416  000FE3  78                 	db	120	;'x'
   417  000FE4  74                 	db	116	;'t'
   418  000FE5  00                 	db	0
   419  000FE6  48                 	db	72	;'H'
   420  000FE7  45                 	db	69	;'E'
   421  000FE8  4C                 	db	76	;'L'
   422  000FE9  4C                 	db	76	;'L'
   423  000FEA  4F                 	db	79	;'O'
   424  000FEB  2E                 	db	46
   425  000FEC  54                 	db	84	;'T'
   426  000FED  58                 	db	88	;'X'
   427  000FEE  54                 	db	84	;'T'
   428  000FEF  00                 	db	0
   429  000FF0                     STR_5:
   430  000FF0  46                 	db	70	;'F'
   431  000FF1  41                 	db	65	;'A'
   432  000FF2  54                 	db	84	;'T'
   433  000FF3  33                 	db	51	;'3'
   434  000FF4  32                 	db	50	;'2'
   435  000FF5  00                 	db	0
   436  000FF6                     STR_3:
   437  000FF6  46                 	db	70	;'F'
   438  000FF7  41                 	db	65	;'A'
   439  000FF8  54                 	db	84	;'T'
   440  000FF9  00                 	db	0
   441  000FFA                     STR_7:
   442  000FFA  30                 	db	48	;'0'
   443  000FFB  3A                 	db	58	;':'
   444  000FFC  00                 	db	0
   445  000FFD  00                 	db	0	; dummy byte at the end
   446  0000                     
   447                           	psect	nvCOMRAM
   448  000052                     __pnvCOMRAM:
   449                           	callstack 0
   450  000052                     _TMR0_InterruptHandler:
   451                           	callstack 0
   452  000052                     	ds	3
   453  000055                     _IOCCF1_InterruptHandler:
   454                           	callstack 0
   455  000055                     	ds	3
   456  0000                     _SSP2CON1bits	set	3734
   457  0000                     _LATCbits	set	3973
   458  0000                     _T0CON0bits	set	4053
   459  0000                     _TRISBbits	set	3977
   460  0000                     _SSP1STATbits	set	3989
   461  0000                     _SSP1CON2bits	set	3991
   462  0000                     _SSP1CON1bits	set	3990
   463  0000                     _LATB	set	3972
   464  0000                     _SSP2CLKPPS	set	3727
   465  0000                     _SSP2DATPPS	set	3728
   466  0000                     _PIE0bits	set	3778
   467  0000                     _OSCCON1	set	3800
   468  0000                     _LATBbits	set	3972
   469  0000                     _TRISA	set	3976
   470  0000                     _LATC	set	3973
   471  0000                     _PORTBbits	set	3982
   472  0000                     _SSP1BUF	set	3986
   473  0000                     _SSP1ADD	set	3987
   474  0000                     _SSP1STAT	set	3989
   475  0000                     _OSCCON3	set	3802
   476  0000                     _OSCEN	set	3804
   477  0000                     _PMD0	set	3809
   478  0000                     _RB1PPS	set	3824
   479  0000                     _INLVLA	set	3853
   480  0000                     _SLRCONA	set	3854
   481  0000                     _ODCONA	set	3855
   482  0000                     _WPUA	set	3856
   483  0000                     _ANSELA	set	3857
   484  0000                     _ANSELB	set	3865
   485  0000                     _ANSELC	set	3873
   486  0000                     _LATA	set	3971
   487  0000                     _PMD5	set	3814
   488  0000                     _PMD4	set	3813
   489  0000                     _PMD3	set	3812
   490  0000                     _PMD2	set	3811
   491  0000                     _PMD1	set	3810
   492  0000                     _TRISC	set	3978
   493  0000                     _TRISB	set	3977
   494  0000                     _INLVLE	set	3882
   495  0000                     _WPUE	set	3885
   496  0000                     _INLVLB	set	3861
   497  0000                     _SLRCONB	set	3862
   498  0000                     _ODCONB	set	3863
   499  0000                     _WPUB	set	3864
   500  0000                     _PIE3bits	set	3781
   501  0000                     _PIR3bits	set	3789
   502  0000                     _SSP2BUF	set	3730
   503  0000                     _SSP2ADD	set	3731
   504  0000                     _SSP2STAT	set	3733
   505  0000                     _SSP1CLKPPS	set	3767
   506  0000                     _SSP1DATPPS	set	3768
   507  0000                     _RB3PPS	set	3826
   508  0000                     _RC3PPS	set	3834
   509  0000                     _RC4PPS	set	3835
   510  0000                     _TMR0L	set	4051
   511  0000                     _TMR0H	set	4052
   512  0000                     _T0CON1	set	4054
   513  0000                     _SSP1CON3	set	3992
   514  0000                     _SSP1CON2	set	3991
   515  0000                     _SSP1CON1	set	3990
   516  0000                     _PIR0bits	set	3786
   517  0000                     _SSP2CON2	set	3735
   518  0000                     _SSP2CON1	set	3734
   519  0000                     _INTCONbits	set	4082
   520                           
   521                           ; #config settings
   522                           
   523                           	psect	cinit
   524  00108C                     __pcinit:
   525                           	callstack 0
   526  00108C                     start_initialization:
   527                           	callstack 0
   528  00108C                     __initialization:
   529                           	callstack 0
   530                           
   531                           ; Initialize objects allocated to COMRAM (26 bytes)
   532                           ; load TBLPTR registers with __pidataCOMRAM
   533  00108C  0E58               	movlw	low __pidataCOMRAM
   534  00108E  6EF6               	movwf	tblptrl,c
   535  001090  0E12               	movlw	high __pidataCOMRAM
   536  001092  6EF7               	movwf	tblptrh,c
   537  001094  0E00               	movlw	low (__pidataCOMRAM shr (0+16))
   538  001096  6EF8               	movwf	tblptru,c
   539  001098  EE00  F038         	lfsr	0,__pdataCOMRAM
   540  00109C  EE10 F01A          	lfsr	1,26
   541  0010A0                     copy_data0:
   542  0010A0  0009               	tblrd		*+
   543  0010A2  CFF5 FFEE          	movff	tablat,postinc0
   544  0010A6  50E5               	movf	postdec1,w,c
   545  0010A8  50E1               	movf	fsr1l,w,c
   546  0010AA  E1FA               	bnz	copy_data0
   547                           
   548                           ; Clear objects allocated to BIGRAM (2218 bytes)
   549  0010AC  EE00  F0A3         	lfsr	0,__pbssBIGRAM
   550  0010B0  EE18 F0AA          	lfsr	1,2218
   551  0010B4                     clear_0:
   552  0010B4  6AEE               	clrf	postinc0,c
   553  0010B6  50E5               	movf	postdec1,w,c
   554  0010B8  50E1               	movf	fsr1l,w,c
   555  0010BA  E1FC               	bnz	clear_0
   556  0010BC  50E2               	movf	fsr1h,w,c
   557  0010BE  E1FA               	bnz	clear_0
   558                           
   559                           ; Clear objects allocated to BANK0 (64 bytes)
   560  0010C0  EE00  F060         	lfsr	0,__pbssBANK0
   561  0010C4  0E40               	movlw	64
   562  0010C6                     clear_1:
   563  0010C6  6AEE               	clrf	postinc0,c
   564  0010C8  06E8               	decf	wreg,f,c
   565  0010CA  E1FD               	bnz	clear_1
   566                           
   567                           ; Clear objects allocated to COMRAM (55 bytes)
   568  0010CC  EE00  F001         	lfsr	0,__pbssCOMRAM
   569  0010D0  0E37               	movlw	55
   570  0010D2                     clear_2:
   571  0010D2  6AEE               	clrf	postinc0,c
   572  0010D4  06E8               	decf	wreg,f,c
   573  0010D6  E1FD               	bnz	clear_2
   574  0010D8                     end_of_initialization:
   575                           	callstack 0
   576  0010D8                     __end_of__initialization:
   577                           	callstack 0
   578  0010D8  905C               	bcf	int$flags,0,c	;clear compiler interrupt flag (level 1)
   579  0010DA  925C               	bcf	int$flags,1,c	;clear compiler interrupt flag (level 2)
   580  0010DC  0100               	movlb	0
   581  0010DE  EF9A  F008         	goto	_main	;jump to C main() function
   582                           
   583                           	psect	bssCOMRAM
   584  000001                     __pbssCOMRAM:
   585                           	callstack 0
   586  000001                     _I2C1_Status:
   587                           	callstack 0
   588  000001                     	ds	42
   589  00002B                     _Fsid:
   590                           	callstack 0
   591  00002B                     	ds	2
   592  00002D                     _FatFs:
   593                           	callstack 0
   594  00002D                     	ds	2
   595  00002F                     _CardType:
   596                           	callstack 0
   597  00002F                     	ds	2
   598  000031                     _Timer2:
   599                           	callstack 0
   600  000031                     	ds	2
   601  000033                     _Timer1:
   602                           	callstack 0
   603  000033                     	ds	2
   604  000035                     _CurrVol:
   605                           	callstack 0
   606  000035                     	ds	1
   607  000036                     _DiskWP:
   608                           	callstack 0
   609  000036                     	ds	1
   610  000037                     _DiskInitialized:
   611                           	callstack 0
   612  000037                     	ds	1
   613                           
   614                           	psect	dataCOMRAM
   615  000038                     __pdataCOMRAM:
   616                           	callstack 0
   617  000038                     DiskTest@F10576:
   618                           	callstack 0
   619  000038                     	ds	13
   620  000045                     FatFsDemo_Tasks@F262:
   621                           	callstack 0
   622  000045                     	ds	13
   623                           
   624                           	psect	bssBANK0
   625  000060                     __pbssBANK0:
   626                           	callstack 0
   627  000060                     _dir:
   628                           	callstack 0
   629  000060                     	ds	42
   630  00008A                     _fno:
   631                           	callstack 0
   632  00008A                     	ds	22
   633                           
   634                           	psect	bssBIGRAM
   635  0000A3                     __pbssBIGRAM:
   636                           	callstack 0
   637  0000A3                     _drive:
   638                           	callstack 0
   639  0000A3                     	ds	563
   640  0002D6                     _drive@fatfs_demo$F2478:
   641                           	callstack 0
   642  0002D6                     	ds	563
   643  000509                     _file:
   644                           	callstack 0
   645  000509                     	ds	546
   646  00072B                     _file@fatfs_demo$F2498:
   647                           	callstack 0
   648  00072B                     	ds	546
   649                           
   650                           	psect	cstackBANK0
   651  0000A0                     __pcstackBANK0:
   652                           	callstack 0
   653  0000A0                     IOCCF1_SetInterruptHandler@InterruptHandler:
   654                           	callstack 0
   655  0000A0                     TMR0_SetInterruptHandler@InterruptHandler:
   656                           	callstack 0
   657                           
   658                           ; 3 bytes @ 0x0
   659  0000A0                     	ds	3
   660  0000A3                     
   661                           ; 1 bytes @ 0x3
   662                           
   663                           	psect	cstackCOMRAM
   664  000058                     __pcstackCOMRAM:
   665                           	callstack 0
   666  000058                     DRVA_TMR_ms@n:
   667                           	callstack 0
   668  000058                     CA2IOC@x:
   669                           	callstack 0
   670                           
   671                           ; 2 bytes @ 0x0
   672  000058                     	ds	2
   673  00005A                     ??_INTERRUPT_InterruptManager:
   674                           
   675                           ; 1 bytes @ 0x2
   676  00005A                     	ds	2
   677                           
   678 ;;
   679 ;;Main: autosize = 0, tempsize = 0, incstack = 0, save=0
   680 ;;
   681 ;; *************** function _main *****************
   682 ;; Defined at:
   683 ;;		line 45 in file "main.c"
   684 ;; Parameters:    Size  Location     Type
   685 ;;		None
   686 ;; Auto vars:     Size  Location     Type
   687 ;;		None
   688 ;; Return value:  Size  Location     Type
   689 ;;                  1    wreg      void 
   690 ;; Registers used:
   691 ;;		wreg, status,2, status,0, cstack
   692 ;; Tracked objects:
   693 ;;		On entry : 0/0
   694 ;;		On exit  : 0/0
   695 ;;		Unchanged: 0/0
   696 ;; Data sizes:     COMRAM   BANK0   BANK1   BANK2   BANK3   BANK4   BANK5   BANK6   BANK7   BANK8   BANK9  BANK10  BANK1
      +1  BANK12  BANK13  BANK14
   697 ;;      Params:         0       0       0       0       0       0       0       0       0       0       0       0       
      +0       0       0       0
   698 ;;      Locals:         0       0       0       0       0       0       0       0       0       0       0       0       
      +0       0       0       0
   699 ;;      Temps:          0       0       0       0       0       0       0       0       0       0       0       0       
      +0       0       0       0
   700 ;;      Totals:         0       0       0       0       0       0       0       0       0       0       0       0       
      +0       0       0       0
   701 ;;Total ram usage:        0 bytes
   702 ;; Hardware stack levels required when called: 7
   703 ;; This function calls:
   704 ;;		_IOCCF1_SetInterruptHandler
   705 ;;		_SYSTEM_Initialize
   706 ;;		_TMR0_SetInterruptHandler
   707 ;;		_TMR0_StartTimer
   708 ;; This function is called by:
   709 ;;		Startup code after reset
   710 ;; This function uses a non-reentrant model
   711 ;;
   712                           
   713                           	psect	text0
   714  001134                     __ptext0:
   715                           	callstack 0
   716  001134                     _main:
   717                           	callstack 24
   718  001134                     
   719                           ;main.c: 50:     SYSTEM_Initialize();
   720  001134  EC0F  F009         	call	_SYSTEM_Initialize	;wreg free
   721                           
   722                           ;main.c: 52:     TMR0_SetInterruptHandler(DRVA_TMR_ms);
   723  001138  0EE2               	movlw	low _DRVA_TMR_ms
   724  00113A  0100               	movlb	0	; () banked
   725  00113C  6FA0               	movwf	TMR0_SetInterruptHandler@InterruptHandler& (0+255),b
   726  00113E  0E10               	movlw	high _DRVA_TMR_ms
   727  001140  6FA1               	movwf	(TMR0_SetInterruptHandler@InterruptHandler+1)& (0+255),b
   728  001142  0E00               	movlw	low (_DRVA_TMR_ms shr (0+16))
   729  001144  6FA2               	movwf	(TMR0_SetInterruptHandler@InterruptHandler+2)& (0+255),b
   730  001146  EC68  F009         	call	_TMR0_SetInterruptHandler	;wreg free
   731                           
   732                           ;main.c: 53:     IOCCF1_SetInterruptHandler(CA2IOC);
   733  00114A  0EA2               	movlw	low _CA2IOC
   734  00114C  0100               	movlb	0	; () banked
   735  00114E  6FA0               	movwf	IOCCF1_SetInterruptHandler@InterruptHandler& (0+255),b
   736  001150  0E12               	movlw	high _CA2IOC
   737  001152  6FA1               	movwf	(IOCCF1_SetInterruptHandler@InterruptHandler+1)& (0+255),b
   738  001154  0E00               	movlw	low (_CA2IOC shr (0+16))
   739  001156  6FA2               	movwf	(IOCCF1_SetInterruptHandler@InterruptHandler+2)& (0+255),b
   740  001158  EC6F  F009         	call	_IOCCF1_SetInterruptHandler	;wreg free
   741  00115C                     
   742                           ;main.c: 54:     (INTCONbits.GIE = 1);
   743  00115C  8EF2               	bsf	242,7,c	;volatile
   744  00115E                     
   745                           ;main.c: 55:     (INTCONbits.PEIE = 1);
   746  00115E  8CF2               	bsf	242,6,c	;volatile
   747  001160                     
   748                           ;main.c: 56:     TMR0_StartTimer();
   749  001160  EC7B  F009         	call	_TMR0_StartTimer	;wreg free
   750  001164                     l1932:
   751  001164  EFB2  F008         	goto	l1932
   752  001168  EF32  F000         	goto	start
   753  00116C                     __end_of_main:
   754                           	callstack 0
   755                           
   756 ;; *************** function _TMR0_StartTimer *****************
   757 ;; Defined at:
   758 ;;		line 87 in file "mcc_generated_files/tmr0.c"
   759 ;; Parameters:    Size  Location     Type
   760 ;;		None
   761 ;; Auto vars:     Size  Location     Type
   762 ;;		None
   763 ;; Return value:  Size  Location     Type
   764 ;;                  1    wreg      void 
   765 ;; Registers used:
   766 ;;		None
   767 ;; Tracked objects:
   768 ;;		On entry : 0/0
   769 ;;		On exit  : 0/0
   770 ;;		Unchanged: 0/0
   771 ;; Data sizes:     COMRAM   BANK0   BANK1   BANK2   BANK3   BANK4   BANK5   BANK6   BANK7   BANK8   BANK9  BANK10  BANK1
      +1  BANK12  BANK13  BANK14
   772 ;;      Params:         0       0       0       0       0       0       0       0       0       0       0       0       
      +0       0       0       0
   773 ;;      Locals:         0       0       0       0       0       0       0       0       0       0       0       0       
      +0       0       0       0
   774 ;;      Temps:          0       0       0       0       0       0       0       0       0       0       0       0       
      +0       0       0       0
   775 ;;      Totals:         0       0       0       0       0       0       0       0       0       0       0       0       
      +0       0       0       0
   776 ;;Total ram usage:        0 bytes
   777 ;; Hardware stack levels used: 1
   778 ;; Hardware stack levels required when called: 4
   779 ;; This function calls:
   780 ;;		Nothing
   781 ;; This function is called by:
   782 ;;		_main
   783 ;; This function uses a non-reentrant model
   784 ;;
   785                           
   786                           	psect	text1
   787  0012F6                     __ptext1:
   788                           	callstack 0
   789  0012F6                     _TMR0_StartTimer:
   790                           	callstack 26
   791  0012F6                     
   792                           ;mcc_generated_files/tmr0.c: 90:     T0CON0bits.T0EN = 1;
   793  0012F6  8ED5               	bsf	213,7,c	;volatile
   794  0012F8  0012               	return		;funcret
   795  0012FA                     __end_of_TMR0_StartTimer:
   796                           	callstack 0
   797                           
   798 ;; *************** function _SYSTEM_Initialize *****************
   799 ;; Defined at:
   800 ;;		line 50 in file "mcc_generated_files/mcc.c"
   801 ;; Parameters:    Size  Location     Type
   802 ;;		None
   803 ;; Auto vars:     Size  Location     Type
   804 ;;		None
   805 ;; Return value:  Size  Location     Type
   806 ;;                  1    wreg      void 
   807 ;; Registers used:
   808 ;;		wreg, status,2, status,0, cstack
   809 ;; Tracked objects:
   810 ;;		On entry : 0/0
   811 ;;		On exit  : 0/0
   812 ;;		Unchanged: 0/0
   813 ;; Data sizes:     COMRAM   BANK0   BANK1   BANK2   BANK3   BANK4   BANK5   BANK6   BANK7   BANK8   BANK9  BANK10  BANK1
      +1  BANK12  BANK13  BANK14
   814 ;;      Params:         0       0       0       0       0       0       0       0       0       0       0       0       
      +0       0       0       0
   815 ;;      Locals:         0       0       0       0       0       0       0       0       0       0       0       0       
      +0       0       0       0
   816 ;;      Temps:          0       0       0       0       0       0       0       0       0       0       0       0       
      +0       0       0       0
   817 ;;      Totals:         0       0       0       0       0       0       0       0       0       0       0       0       
      +0       0       0       0
   818 ;;Total ram usage:        0 bytes
   819 ;; Hardware stack levels used: 1
   820 ;; Hardware stack levels required when called: 6
   821 ;; This function calls:
   822 ;;		_I2C1_Initialize
   823 ;;		_INTERRUPT_Initialize
   824 ;;		_OSCILLATOR_Initialize
   825 ;;		_PIN_MANAGER_Initialize
   826 ;;		_PMD_Initialize
   827 ;;		_SPI2_Initialize
   828 ;;		_TMR0_Initialize
   829 ;; This function is called by:
   830 ;;		_main
   831 ;; This function uses a non-reentrant model
   832 ;;
   833                           
   834                           	psect	text2
   835  00121E                     __ptext2:
   836                           	callstack 0
   837  00121E                     _SYSTEM_Initialize:
   838                           	callstack 24
   839  00121E                     
   840                           ;mcc_generated_files/mcc.c: 52:     INTERRUPT_Initialize();
   841  00121E  EC7D  F009         	call	_INTERRUPT_Initialize	;wreg free
   842  001222                     
   843                           ;mcc_generated_files/mcc.c: 53:     PMD_Initialize();
   844  001222  EC1E  F009         	call	_PMD_Initialize	;wreg free
   845  001226                     
   846                           ;mcc_generated_files/mcc.c: 54:     I2C1_Initialize();
   847  001226  EC45  F009         	call	_I2C1_Initialize	;wreg free
   848  00122A                     
   849                           ;mcc_generated_files/mcc.c: 55:     SPI2_Initialize();
   850  00122A  ECFD  F008         	call	_SPI2_Initialize	;wreg free
   851  00122E                     
   852                           ;mcc_generated_files/mcc.c: 56:     PIN_MANAGER_Initialize();
   853  00122E  ECFF  F007         	call	_PIN_MANAGER_Initialize	;wreg free
   854  001232                     
   855                           ;mcc_generated_files/mcc.c: 57:     OSCILLATOR_Initialize();
   856  001232  EC39  F009         	call	_OSCILLATOR_Initialize	;wreg free
   857  001236                     
   858                           ;mcc_generated_files/mcc.c: 58:     TMR0_Initialize();
   859  001236  ECE8  F008         	call	_TMR0_Initialize	;wreg free
   860  00123A  0012               	return		;funcret
   861  00123C                     __end_of_SYSTEM_Initialize:
   862                           	callstack 0
   863                           
   864 ;; *************** function _TMR0_Initialize *****************
   865 ;; Defined at:
   866 ;;		line 61 in file "mcc_generated_files/tmr0.c"
   867 ;; Parameters:    Size  Location     Type
   868 ;;		None
   869 ;; Auto vars:     Size  Location     Type
   870 ;;		None
   871 ;; Return value:  Size  Location     Type
   872 ;;                  1    wreg      void 
   873 ;; Registers used:
   874 ;;		wreg, status,2, status,0, cstack
   875 ;; Tracked objects:
   876 ;;		On entry : 0/0
   877 ;;		On exit  : 0/0
   878 ;;		Unchanged: 0/0
   879 ;; Data sizes:     COMRAM   BANK0   BANK1   BANK2   BANK3   BANK4   BANK5   BANK6   BANK7   BANK8   BANK9  BANK10  BANK1
      +1  BANK12  BANK13  BANK14
   880 ;;      Params:         0       0       0       0       0       0       0       0       0       0       0       0       
      +0       0       0       0
   881 ;;      Locals:         0       0       0       0       0       0       0       0       0       0       0       0       
      +0       0       0       0
   882 ;;      Temps:          0       0       0       0       0       0       0       0       0       0       0       0       
      +0       0       0       0
   883 ;;      Totals:         0       0       0       0       0       0       0       0       0       0       0       0       
      +0       0       0       0
   884 ;;Total ram usage:        0 bytes
   885 ;; Hardware stack levels used: 1
   886 ;; Hardware stack levels required when called: 5
   887 ;; This function calls:
   888 ;;		_TMR0_SetInterruptHandler
   889 ;; This function is called by:
   890 ;;		_SYSTEM_Initialize
   891 ;; This function uses a non-reentrant model
   892 ;;
   893                           
   894                           	psect	text3
   895  0011D0                     __ptext3:
   896                           	callstack 0
   897  0011D0                     _TMR0_Initialize:
   898                           	callstack 24
   899  0011D0                     
   900                           ;mcc_generated_files/tmr0.c: 66:     T0CON1 = 0x80;
   901  0011D0  0E80               	movlw	128
   902  0011D2  6ED6               	movwf	214,c	;volatile
   903                           
   904                           ;mcc_generated_files/tmr0.c: 69:     TMR0H = 0x1E;
   905  0011D4  0E1E               	movlw	30
   906  0011D6  6ED4               	movwf	212,c	;volatile
   907                           
   908                           ;mcc_generated_files/tmr0.c: 72:     TMR0L = 0x00;
   909  0011D8  0E00               	movlw	0
   910  0011DA  6ED3               	movwf	211,c	;volatile
   911  0011DC                     
   912                           ;mcc_generated_files/tmr0.c: 75:     PIR0bits.TMR0IF = 0;
   913  0011DC  010E               	movlb	14	; () banked
   914  0011DE  9BCA               	bcf	202,5,b	;volatile
   915  0011E0                     
   916                           ; BSR set to: 14
   917                           ;mcc_generated_files/tmr0.c: 78:     PIE0bits.TMR0IE = 1;
   918  0011E0  8BC2               	bsf	194,5,b	;volatile
   919  0011E2                     
   920                           ; BSR set to: 14
   921                           ;mcc_generated_files/tmr0.c: 81:     TMR0_SetInterruptHandler(TMR0_DefaultInterruptHandl
      +                          er);
   922  0011E2  0EFE               	movlw	low _TMR0_DefaultInterruptHandler
   923  0011E4  0100               	movlb	0	; () banked
   924  0011E6  6FA0               	movwf	TMR0_SetInterruptHandler@InterruptHandler& (0+255),b
   925  0011E8  0E12               	movlw	high _TMR0_DefaultInterruptHandler
   926  0011EA  6FA1               	movwf	(TMR0_SetInterruptHandler@InterruptHandler+1)& (0+255),b
   927  0011EC  0E00               	movlw	low (_TMR0_DefaultInterruptHandler shr (0+16))
   928  0011EE  6FA2               	movwf	(TMR0_SetInterruptHandler@InterruptHandler+2)& (0+255),b
   929  0011F0  EC68  F009         	call	_TMR0_SetInterruptHandler	;wreg free
   930  0011F4                     
   931                           ;mcc_generated_files/tmr0.c: 84:     T0CON0 = 0x80;
   932  0011F4  0E80               	movlw	128
   933  0011F6  6ED5               	movwf	213,c	;volatile
   934  0011F8  0012               	return		;funcret
   935  0011FA                     __end_of_TMR0_Initialize:
   936                           	callstack 0
   937                           
   938 ;; *************** function _TMR0_SetInterruptHandler *****************
   939 ;; Defined at:
   940 ;;		line 142 in file "mcc_generated_files/tmr0.c"
   941 ;; Parameters:    Size  Location     Type
   942 ;;  InterruptHan    3    0[BANK0 ] PTR FTN()void 
   943 ;;		 -> TMR0_DefaultInterruptHandler(1), DRVA_TMR_ms(1), 
   944 ;; Auto vars:     Size  Location     Type
   945 ;;		None
   946 ;; Return value:  Size  Location     Type
   947 ;;                  1    wreg      void 
   948 ;; Registers used:
   949 ;;		wreg, status,2, status,0
   950 ;; Tracked objects:
   951 ;;		On entry : 0/0
   952 ;;		On exit  : 0/0
   953 ;;		Unchanged: 0/0
   954 ;; Data sizes:     COMRAM   BANK0   BANK1   BANK2   BANK3   BANK4   BANK5   BANK6   BANK7   BANK8   BANK9  BANK10  BANK1
      +1  BANK12  BANK13  BANK14
   955 ;;      Params:         0       3       0       0       0       0       0       0       0       0       0       0       
      +0       0       0       0
   956 ;;      Locals:         0       0       0       0       0       0       0       0       0       0       0       0       
      +0       0       0       0
   957 ;;      Temps:          0       0       0       0       0       0       0       0       0       0       0       0       
      +0       0       0       0
   958 ;;      Totals:         0       3       0       0       0       0       0       0       0       0       0       0       
      +0       0       0       0
   959 ;;Total ram usage:        3 bytes
   960 ;; Hardware stack levels used: 1
   961 ;; Hardware stack levels required when called: 4
   962 ;; This function calls:
   963 ;;		Nothing
   964 ;; This function is called by:
   965 ;;		_TMR0_Initialize
   966 ;;		_main
   967 ;; This function uses a non-reentrant model
   968 ;;
   969                           
   970                           	psect	text4
   971  0012D0                     __ptext4:
   972                           	callstack 0
   973  0012D0                     _TMR0_SetInterruptHandler:
   974                           	callstack 26
   975  0012D0                     
   976                           ;mcc_generated_files/tmr0.c: 143:     TMR0_InterruptHandler = InterruptHandler;
   977  0012D0  C0A0  F052         	movff	TMR0_SetInterruptHandler@InterruptHandler,_TMR0_InterruptHandler
   978  0012D4  C0A1  F053         	movff	TMR0_SetInterruptHandler@InterruptHandler+1,_TMR0_InterruptHandler+1
   979  0012D8  C0A2  F054         	movff	TMR0_SetInterruptHandler@InterruptHandler+2,_TMR0_InterruptHandler+2
   980  0012DC  0012               	return		;funcret
   981  0012DE                     __end_of_TMR0_SetInterruptHandler:
   982                           	callstack 0
   983                           
   984 ;; *************** function _SPI2_Initialize *****************
   985 ;; Defined at:
   986 ;;		line 62 in file "mcc_generated_files/spi2.c"
   987 ;; Parameters:    Size  Location     Type
   988 ;;		None
   989 ;; Auto vars:     Size  Location     Type
   990 ;;		None
   991 ;; Return value:  Size  Location     Type
   992 ;;                  1    wreg      void 
   993 ;; Registers used:
   994 ;;		wreg, status,2
   995 ;; Tracked objects:
   996 ;;		On entry : 0/0
   997 ;;		On exit  : 0/0
   998 ;;		Unchanged: 0/0
   999 ;; Data sizes:     COMRAM   BANK0   BANK1   BANK2   BANK3   BANK4   BANK5   BANK6   BANK7   BANK8   BANK9  BANK10  BANK1
      +1  BANK12  BANK13  BANK14
  1000 ;;      Params:         0       0       0       0       0       0       0       0       0       0       0       0       
      +0       0       0       0
  1001 ;;      Locals:         0       0       0       0       0       0       0       0       0       0       0       0       
      +0       0       0       0
  1002 ;;      Temps:          0       0       0       0       0       0       0       0       0       0       0       0       
      +0       0       0       0
  1003 ;;      Totals:         0       0       0       0       0       0       0       0       0       0       0       0       
      +0       0       0       0
  1004 ;;Total ram usage:        0 bytes
  1005 ;; Hardware stack levels used: 1
  1006 ;; Hardware stack levels required when called: 4
  1007 ;; This function calls:
  1008 ;;		Nothing
  1009 ;; This function is called by:
  1010 ;;		_SYSTEM_Initialize
  1011 ;; This function uses a non-reentrant model
  1012 ;;
  1013                           
  1014                           	psect	text5
  1015  0011FA                     __ptext5:
  1016                           	callstack 0
  1017  0011FA                     _SPI2_Initialize:
  1018                           	callstack 25
  1019  0011FA                     
  1020                           ;mcc_generated_files/spi2.c: 65:     SSP2CLKPPS = 9;
  1021  0011FA  0E09               	movlw	9
  1022  0011FC  010E               	movlb	14	; () banked
  1023  0011FE  6F8F               	movwf	143,b	;volatile
  1024                           
  1025                           ;mcc_generated_files/spi2.c: 66:     SSP2DATPPS = 10;
  1026  001200  0E0A               	movlw	10
  1027  001202  6F90               	movwf	144,b	;volatile
  1028                           
  1029                           ;mcc_generated_files/spi2.c: 67:     RB1PPS = 17;
  1030  001204  0E11               	movlw	17
  1031  001206  6FF0               	movwf	240,b	;volatile
  1032                           
  1033                           ;mcc_generated_files/spi2.c: 68:     RB3PPS = 18;
  1034  001208  0E12               	movlw	18
  1035  00120A  6FF2               	movwf	242,b	;volatile
  1036                           
  1037                           ;mcc_generated_files/spi2.c: 70:     SSP2STAT = 0x40;
  1038  00120C  0E40               	movlw	64
  1039  00120E  6F95               	movwf	149,b	;volatile
  1040                           
  1041                           ;mcc_generated_files/spi2.c: 71:     SSP2CON1 = 0x0A;
  1042  001210  0E0A               	movlw	10
  1043  001212  6F96               	movwf	150,b	;volatile
  1044                           
  1045                           ;mcc_generated_files/spi2.c: 72:     SSP2ADD = 0x9F;
  1046  001214  0E9F               	movlw	159
  1047  001216  6F93               	movwf	147,b	;volatile
  1048  001218                     
  1049                           ; BSR set to: 14
  1050                           ;mcc_generated_files/spi2.c: 73:     TRISBbits.TRISB1 = 0;
  1051  001218  9289               	bcf	137,1,c	;volatile
  1052  00121A                     
  1053                           ; BSR set to: 14
  1054                           ;mcc_generated_files/spi2.c: 74:     SSP2CON1bits.SSPEN = 0;
  1055  00121A  9B96               	bcf	150,5,b	;volatile
  1056  00121C                     
  1057                           ; BSR set to: 14
  1058  00121C  0012               	return		;funcret
  1059  00121E                     __end_of_SPI2_Initialize:
  1060                           	callstack 0
  1061                           
  1062 ;; *************** function _PMD_Initialize *****************
  1063 ;; Defined at:
  1064 ;;		line 75 in file "mcc_generated_files/mcc.c"
  1065 ;; Parameters:    Size  Location     Type
  1066 ;;		None
  1067 ;; Auto vars:     Size  Location     Type
  1068 ;;		None
  1069 ;; Return value:  Size  Location     Type
  1070 ;;                  1    wreg      void 
  1071 ;; Registers used:
  1072 ;;		wreg, status,2
  1073 ;; Tracked objects:
  1074 ;;		On entry : 0/0
  1075 ;;		On exit  : 0/0
  1076 ;;		Unchanged: 0/0
  1077 ;; Data sizes:     COMRAM   BANK0   BANK1   BANK2   BANK3   BANK4   BANK5   BANK6   BANK7   BANK8   BANK9  BANK10  BANK1
      +1  BANK12  BANK13  BANK14
  1078 ;;      Params:         0       0       0       0       0       0       0       0       0       0       0       0       
      +0       0       0       0
  1079 ;;      Locals:         0       0       0       0       0       0       0       0       0       0       0       0       
      +0       0       0       0
  1080 ;;      Temps:          0       0       0       0       0       0       0       0       0       0       0       0       
      +0       0       0       0
  1081 ;;      Totals:         0       0       0       0       0       0       0       0       0       0       0       0       
      +0       0       0       0
  1082 ;;Total ram usage:        0 bytes
  1083 ;; Hardware stack levels used: 1
  1084 ;; Hardware stack levels required when called: 4
  1085 ;; This function calls:
  1086 ;;		Nothing
  1087 ;; This function is called by:
  1088 ;;		_SYSTEM_Initialize
  1089 ;; This function uses a non-reentrant model
  1090 ;;
  1091                           
  1092                           	psect	text6
  1093  00123C                     __ptext6:
  1094                           	callstack 0
  1095  00123C                     _PMD_Initialize:
  1096                           	callstack 25
  1097  00123C                     
  1098                           ;mcc_generated_files/mcc.c: 78:     PMD0 = 0x00;
  1099  00123C  0E00               	movlw	0
  1100  00123E  010E               	movlb	14	; () banked
  1101  001240  6FE1               	movwf	225,b	;volatile
  1102                           
  1103                           ;mcc_generated_files/mcc.c: 80:     PMD1 = 0x00;
  1104  001242  0E00               	movlw	0
  1105  001244  6FE2               	movwf	226,b	;volatile
  1106                           
  1107                           ;mcc_generated_files/mcc.c: 82:     PMD2 = 0x00;
  1108  001246  0E00               	movlw	0
  1109  001248  6FE3               	movwf	227,b	;volatile
  1110                           
  1111                           ;mcc_generated_files/mcc.c: 84:     PMD3 = 0x00;
  1112  00124A  0E00               	movlw	0
  1113  00124C  6FE4               	movwf	228,b	;volatile
  1114                           
  1115                           ;mcc_generated_files/mcc.c: 86:     PMD4 = 0x00;
  1116  00124E  0E00               	movlw	0
  1117  001250  6FE5               	movwf	229,b	;volatile
  1118                           
  1119                           ;mcc_generated_files/mcc.c: 88:     PMD5 = 0x00;
  1120  001252  0E00               	movlw	0
  1121  001254  6FE6               	movwf	230,b	;volatile
  1122  001256                     
  1123                           ; BSR set to: 14
  1124  001256  0012               	return		;funcret
  1125  001258                     __end_of_PMD_Initialize:
  1126                           	callstack 0
  1127                           
  1128 ;; *************** function _PIN_MANAGER_Initialize *****************
  1129 ;; Defined at:
  1130 ;;		line 57 in file "mcc_generated_files/pin_manager.c"
  1131 ;; Parameters:    Size  Location     Type
  1132 ;;		None
  1133 ;; Auto vars:     Size  Location     Type
  1134 ;;		None
  1135 ;; Return value:  Size  Location     Type
  1136 ;;                  1    wreg      void 
  1137 ;; Registers used:
  1138 ;;		wreg, status,2, status,0, cstack
  1139 ;; Tracked objects:
  1140 ;;		On entry : 0/0
  1141 ;;		On exit  : 0/0
  1142 ;;		Unchanged: 0/0
  1143 ;; Data sizes:     COMRAM   BANK0   BANK1   BANK2   BANK3   BANK4   BANK5   BANK6   BANK7   BANK8   BANK9  BANK10  BANK1
      +1  BANK12  BANK13  BANK14
  1144 ;;      Params:         0       0       0       0       0       0       0       0       0       0       0       0       
      +0       0       0       0
  1145 ;;      Locals:         0       0       0       0       0       0       0       0       0       0       0       0       
      +0       0       0       0
  1146 ;;      Temps:          0       0       0       0       0       0       0       0       0       0       0       0       
      +0       0       0       0
  1147 ;;      Totals:         0       0       0       0       0       0       0       0       0       0       0       0       
      +0       0       0       0
  1148 ;;Total ram usage:        0 bytes
  1149 ;; Hardware stack levels used: 1
  1150 ;; Hardware stack levels required when called: 5
  1151 ;; This function calls:
  1152 ;;		_IOCCF1_SetInterruptHandler
  1153 ;; This function is called by:
  1154 ;;		_SYSTEM_Initialize
  1155 ;; This function uses a non-reentrant model
  1156 ;;
  1157                           
  1158                           	psect	text7
  1159  000FFE                     __ptext7:
  1160                           	callstack 0
  1161  000FFE                     _PIN_MANAGER_Initialize:
  1162                           	callstack 24
  1163  000FFE                     
  1164                           ;mcc_generated_files/pin_manager.c: 62:     LATA = 0x00;
  1165  000FFE  0E00               	movlw	0
  1166  001000  6E83               	movwf	131,c	;volatile
  1167                           
  1168                           ;mcc_generated_files/pin_manager.c: 63:     LATB = 0x10;
  1169  001002  0E10               	movlw	16
  1170  001004  6E84               	movwf	132,c	;volatile
  1171                           
  1172                           ;mcc_generated_files/pin_manager.c: 64:     LATC = 0x19;
  1173  001006  0E19               	movlw	25
  1174  001008  6E85               	movwf	133,c	;volatile
  1175  00100A                     
  1176                           ;mcc_generated_files/pin_manager.c: 69:     TRISA = 0xFF;
  1177  00100A  6888               	setf	136,c	;volatile
  1178                           
  1179                           ;mcc_generated_files/pin_manager.c: 70:     TRISB = 0xE5;
  1180  00100C  0EE5               	movlw	229
  1181  00100E  6E89               	movwf	137,c	;volatile
  1182                           
  1183                           ;mcc_generated_files/pin_manager.c: 71:     TRISC = 0xFE;
  1184  001010  0EFE               	movlw	254
  1185  001012  6E8A               	movwf	138,c	;volatile
  1186                           
  1187                           ;mcc_generated_files/pin_manager.c: 76:     ANSELC = 0xE4;
  1188  001014  0EE4               	movlw	228
  1189  001016  010F               	movlb	15	; () banked
  1190  001018  6F21               	movwf	33,b	;volatile
  1191                           
  1192                           ;mcc_generated_files/pin_manager.c: 77:     ANSELB = 0xC1;
  1193  00101A  0EC1               	movlw	193
  1194  00101C  6F19               	movwf	25,b	;volatile
  1195                           
  1196                           ;mcc_generated_files/pin_manager.c: 78:     ANSELA = 0x00;
  1197  00101E  0E00               	movlw	0
  1198  001020  6F11               	movwf	17,b	;volatile
  1199                           
  1200                           ;mcc_generated_files/pin_manager.c: 83:     WPUE = 0x00;
  1201  001022  0E00               	movlw	0
  1202  001024  6F2D               	movwf	45,b	;volatile
  1203                           
  1204                           ;mcc_generated_files/pin_manager.c: 84:     WPUB = 0x00;
  1205  001026  0E00               	movlw	0
  1206  001028  6F18               	movwf	24,b	;volatile
  1207                           
  1208                           ;mcc_generated_files/pin_manager.c: 85:     WPUA = 0x00;
  1209  00102A  0E00               	movlw	0
  1210  00102C  6F10               	movwf	16,b	;volatile
  1211                           
  1212                           ;mcc_generated_files/pin_manager.c: 86:     WPUC = 0x03;
  1213  00102E  0E03               	movlw	3
  1214  001030  6F20               	movwf	32,b	;volatile
  1215                           
  1216                           ;mcc_generated_files/pin_manager.c: 91:     ODCONA = 0x00;
  1217  001032  0E00               	movlw	0
  1218  001034  6F0F               	movwf	15,b	;volatile
  1219                           
  1220                           ;mcc_generated_files/pin_manager.c: 92:     ODCONB = 0x00;
  1221  001036  0E00               	movlw	0
  1222  001038  6F17               	movwf	23,b	;volatile
  1223                           
  1224                           ;mcc_generated_files/pin_manager.c: 93:     ODCONC = 0x00;
  1225  00103A  0E00               	movlw	0
  1226  00103C  6F1F               	movwf	31,b	;volatile
  1227  00103E                     
  1228                           ; BSR set to: 15
  1229                           ;mcc_generated_files/pin_manager.c: 98:     SLRCONA = 0xFF;
  1230  00103E  690E               	setf	14,b	;volatile
  1231  001040                     
  1232                           ; BSR set to: 15
  1233                           ;mcc_generated_files/pin_manager.c: 99:     SLRCONB = 0xFF;
  1234  001040  6916               	setf	22,b	;volatile
  1235  001042                     
  1236                           ; BSR set to: 15
  1237                           ;mcc_generated_files/pin_manager.c: 100:     SLRCONC = 0xFF;
  1238  001042  691E               	setf	30,b	;volatile
  1239  001044                     
  1240                           ; BSR set to: 15
  1241                           ;mcc_generated_files/pin_manager.c: 105:     INLVLA = 0xFF;
  1242  001044  690D               	setf	13,b	;volatile
  1243  001046                     
  1244                           ; BSR set to: 15
  1245                           ;mcc_generated_files/pin_manager.c: 106:     INLVLB = 0xFF;
  1246  001046  6915               	setf	21,b	;volatile
  1247  001048                     
  1248                           ; BSR set to: 15
  1249                           ;mcc_generated_files/pin_manager.c: 107:     INLVLC = 0xFF;
  1250  001048  691D               	setf	29,b	;volatile
  1251                           
  1252                           ;mcc_generated_files/pin_manager.c: 108:     INLVLE = 0x08;
  1253  00104A  0E08               	movlw	8
  1254  00104C  6F2A               	movwf	42,b	;volatile
  1255  00104E                     
  1256                           ; BSR set to: 15
  1257                           ;mcc_generated_files/pin_manager.c: 115:     IOCCFbits.IOCCF1 = 0;
  1258  00104E  931A               	bcf	26,1,b	;volatile
  1259  001050                     
  1260                           ; BSR set to: 15
  1261                           ;mcc_generated_files/pin_manager.c: 117:     IOCCNbits.IOCCN1 = 1;
  1262  001050  831B               	bsf	27,1,b	;volatile
  1263  001052                     
  1264                           ; BSR set to: 15
  1265                           ;mcc_generated_files/pin_manager.c: 119:     IOCCPbits.IOCCP1 = 0;
  1266  001052  931C               	bcf	28,1,b	;volatile
  1267  001054                     
  1268                           ; BSR set to: 15
  1269                           ;mcc_generated_files/pin_manager.c: 124:     IOCCF1_SetInterruptHandler(IOCCF1_DefaultIn
      +                          terruptHandler);
  1270  001054  0E00               	movlw	low _IOCCF1_DefaultInterruptHandler
  1271  001056  0100               	movlb	0	; () banked
  1272  001058  6FA0               	movwf	IOCCF1_SetInterruptHandler@InterruptHandler& (0+255),b
  1273  00105A  0E13               	movlw	high _IOCCF1_DefaultInterruptHandler
  1274  00105C  6FA1               	movwf	(IOCCF1_SetInterruptHandler@InterruptHandler+1)& (0+255),b
  1275  00105E  0E00               	movlw	low (_IOCCF1_DefaultInterruptHandler shr (0+16))
  1276  001060  6FA2               	movwf	(IOCCF1_SetInterruptHandler@InterruptHandler+2)& (0+255),b
  1277  001062  EC6F  F009         	call	_IOCCF1_SetInterruptHandler	;wreg free
  1278  001066                     
  1279                           ;mcc_generated_files/pin_manager.c: 127:     PIE0bits.IOCIE = 1;
  1280  001066  010E               	movlb	14	; () banked
  1281  001068  89C2               	bsf	194,4,b	;volatile
  1282  00106A                     
  1283                           ; BSR set to: 14
  1284                           ;mcc_generated_files/pin_manager.c: 130:     SSP2DATPPS = 0x0A;
  1285  00106A  0E0A               	movlw	10
  1286  00106C  6F90               	movwf	144,b	;volatile
  1287  00106E                     
  1288                           ; BSR set to: 14
  1289                           ;mcc_generated_files/pin_manager.c: 131:     SSP1CLKPPS = 0x13;
  1290  00106E  0E13               	movlw	19
  1291  001070  6FB7               	movwf	183,b	;volatile
  1292  001072                     
  1293                           ; BSR set to: 14
  1294                           ;mcc_generated_files/pin_manager.c: 132:     RB1PPS = 0x11;
  1295  001072  0E11               	movlw	17
  1296  001074  6FF0               	movwf	240,b	;volatile
  1297  001076                     
  1298                           ; BSR set to: 14
  1299                           ;mcc_generated_files/pin_manager.c: 133:     RC3PPS = 0x0F;
  1300  001076  0E0F               	movlw	15
  1301  001078  6FFA               	movwf	250,b	;volatile
  1302  00107A                     
  1303                           ; BSR set to: 14
  1304                           ;mcc_generated_files/pin_manager.c: 134:     RC4PPS = 0x10;
  1305  00107A  0E10               	movlw	16
  1306  00107C  6FFB               	movwf	251,b	;volatile
  1307  00107E                     
  1308                           ; BSR set to: 14
  1309                           ;mcc_generated_files/pin_manager.c: 135:     RB3PPS = 0x12;
  1310  00107E  0E12               	movlw	18
  1311  001080  6FF2               	movwf	242,b	;volatile
  1312  001082                     
  1313                           ; BSR set to: 14
  1314                           ;mcc_generated_files/pin_manager.c: 136:     SSP1DATPPS = 0x14;
  1315  001082  0E14               	movlw	20
  1316  001084  6FB8               	movwf	184,b	;volatile
  1317  001086                     
  1318                           ; BSR set to: 14
  1319                           ;mcc_generated_files/pin_manager.c: 137:     SSP2CLKPPS = 0x09;
  1320  001086  0E09               	movlw	9
  1321  001088  6F8F               	movwf	143,b	;volatile
  1322  00108A                     
  1323                           ; BSR set to: 14
  1324  00108A  0012               	return		;funcret
  1325  00108C                     __end_of_PIN_MANAGER_Initialize:
  1326                           	callstack 0
  1327                           
  1328 ;; *************** function _IOCCF1_SetInterruptHandler *****************
  1329 ;; Defined at:
  1330 ;;		line 167 in file "mcc_generated_files/pin_manager.c"
  1331 ;; Parameters:    Size  Location     Type
  1332 ;;  InterruptHan    3    0[BANK0 ] PTR FTN()void 
  1333 ;;		 -> CA2IOC(1), IOCCF1_DefaultInterruptHandler(1), 
  1334 ;; Auto vars:     Size  Location     Type
  1335 ;;		None
  1336 ;; Return value:  Size  Location     Type
  1337 ;;                  1    wreg      void 
  1338 ;; Registers used:
  1339 ;;		wreg, status,2, status,0
  1340 ;; Tracked objects:
  1341 ;;		On entry : 0/0
  1342 ;;		On exit  : 0/0
  1343 ;;		Unchanged: 0/0
  1344 ;; Data sizes:     COMRAM   BANK0   BANK1   BANK2   BANK3   BANK4   BANK5   BANK6   BANK7   BANK8   BANK9  BANK10  BANK1
      +1  BANK12  BANK13  BANK14
  1345 ;;      Params:         0       3       0       0       0       0       0       0       0       0       0       0       
      +0       0       0       0
  1346 ;;      Locals:         0       0       0       0       0       0       0       0       0       0       0       0       
      +0       0       0       0
  1347 ;;      Temps:          0       0       0       0       0       0       0       0       0       0       0       0       
      +0       0       0       0
  1348 ;;      Totals:         0       3       0       0       0       0       0       0       0       0       0       0       
      +0       0       0       0
  1349 ;;Total ram usage:        3 bytes
  1350 ;; Hardware stack levels used: 1
  1351 ;; Hardware stack levels required when called: 4
  1352 ;; This function calls:
  1353 ;;		Nothing
  1354 ;; This function is called by:
  1355 ;;		_PIN_MANAGER_Initialize
  1356 ;;		_main
  1357 ;; This function uses a non-reentrant model
  1358 ;;
  1359                           
  1360                           	psect	text8
  1361  0012DE                     __ptext8:
  1362                           	callstack 0
  1363  0012DE                     _IOCCF1_SetInterruptHandler:
  1364                           	callstack 24
  1365  0012DE                     
  1366                           ;mcc_generated_files/pin_manager.c: 168:     IOCCF1_InterruptHandler = InterruptHandler;
  1367  0012DE  C0A0  F055         	movff	IOCCF1_SetInterruptHandler@InterruptHandler,_IOCCF1_InterruptHandler
  1368  0012E2  C0A1  F056         	movff	IOCCF1_SetInterruptHandler@InterruptHandler+1,_IOCCF1_InterruptHandler+1
  1369  0012E6  C0A2  F057         	movff	IOCCF1_SetInterruptHandler@InterruptHandler+2,_IOCCF1_InterruptHandler+2
  1370  0012EA  0012               	return		;funcret
  1371  0012EC                     __end_of_IOCCF1_SetInterruptHandler:
  1372                           	callstack 0
  1373                           
  1374 ;; *************** function _OSCILLATOR_Initialize *****************
  1375 ;; Defined at:
  1376 ;;		line 61 in file "mcc_generated_files/mcc.c"
  1377 ;; Parameters:    Size  Location     Type
  1378 ;;		None
  1379 ;; Auto vars:     Size  Location     Type
  1380 ;;		None
  1381 ;; Return value:  Size  Location     Type
  1382 ;;                  1    wreg      void 
  1383 ;; Registers used:
  1384 ;;		wreg, status,2
  1385 ;; Tracked objects:
  1386 ;;		On entry : 0/0
  1387 ;;		On exit  : 0/0
  1388 ;;		Unchanged: 0/0
  1389 ;; Data sizes:     COMRAM   BANK0   BANK1   BANK2   BANK3   BANK4   BANK5   BANK6   BANK7   BANK8   BANK9  BANK10  BANK1
      +1  BANK12  BANK13  BANK14
  1390 ;;      Params:         0       0       0       0       0       0       0       0       0       0       0       0       
      +0       0       0       0
  1391 ;;      Locals:         0       0       0       0       0       0       0       0       0       0       0       0       
      +0       0       0       0
  1392 ;;      Temps:          0       0       0       0       0       0       0       0       0       0       0       0       
      +0       0       0       0
  1393 ;;      Totals:         0       0       0       0       0       0       0       0       0       0       0       0       
      +0       0       0       0
  1394 ;;Total ram usage:        0 bytes
  1395 ;; Hardware stack levels used: 1
  1396 ;; Hardware stack levels required when called: 4
  1397 ;; This function calls:
  1398 ;;		Nothing
  1399 ;; This function is called by:
  1400 ;;		_SYSTEM_Initialize
  1401 ;; This function uses a non-reentrant model
  1402 ;;
  1403                           
  1404                           	psect	text9
  1405  001272                     __ptext9:
  1406                           	callstack 0
  1407  001272                     _OSCILLATOR_Initialize:
  1408                           	callstack 25
  1409  001272                     
  1410                           ;mcc_generated_files/mcc.c: 64:     OSCCON1 = 0x60;
  1411  001272  0E60               	movlw	96
  1412  001274  010E               	movlb	14	; () banked
  1413  001276  6FD8               	movwf	216,b	;volatile
  1414                           
  1415                           ;mcc_generated_files/mcc.c: 66:     OSCCON3 = 0x00;
  1416  001278  0E00               	movlw	0
  1417  00127A  6FDA               	movwf	218,b	;volatile
  1418                           
  1419                           ;mcc_generated_files/mcc.c: 68:     OSCEN = 0x00;
  1420  00127C  0E00               	movlw	0
  1421  00127E  6FDC               	movwf	220,b	;volatile
  1422                           
  1423                           ;mcc_generated_files/mcc.c: 70:     OSCFRQ = 0x08;
  1424  001280  0E08               	movlw	8
  1425  001282  6FDE               	movwf	222,b	;volatile
  1426                           
  1427                           ;mcc_generated_files/mcc.c: 72:     OSCTUNE = 0x00;
  1428  001284  0E00               	movlw	0
  1429  001286  6FDD               	movwf	221,b	;volatile
  1430  001288                     
  1431                           ; BSR set to: 14
  1432  001288  0012               	return		;funcret
  1433  00128A                     __end_of_OSCILLATOR_Initialize:
  1434                           	callstack 0
  1435                           
  1436 ;; *************** function _INTERRUPT_Initialize *****************
  1437 ;; Defined at:
  1438 ;;		line 52 in file "mcc_generated_files/interrupt_manager.c"
  1439 ;; Parameters:    Size  Location     Type
  1440 ;;		None
  1441 ;; Auto vars:     Size  Location     Type
  1442 ;;		None
  1443 ;; Return value:  Size  Location     Type
  1444 ;;                  1    wreg      void 
  1445 ;; Registers used:
  1446 ;;		None
  1447 ;; Tracked objects:
  1448 ;;		On entry : 0/0
  1449 ;;		On exit  : 0/0
  1450 ;;		Unchanged: 0/0
  1451 ;; Data sizes:     COMRAM   BANK0   BANK1   BANK2   BANK3   BANK4   BANK5   BANK6   BANK7   BANK8   BANK9  BANK10  BANK1
      +1  BANK12  BANK13  BANK14
  1452 ;;      Params:         0       0       0       0       0       0       0       0       0       0       0       0       
      +0       0       0       0
  1453 ;;      Locals:         0       0       0       0       0       0       0       0       0       0       0       0       
      +0       0       0       0
  1454 ;;      Temps:          0       0       0       0       0       0       0       0       0       0       0       0       
      +0       0       0       0
  1455 ;;      Totals:         0       0       0       0       0       0       0       0       0       0       0       0       
      +0       0       0       0
  1456 ;;Total ram usage:        0 bytes
  1457 ;; Hardware stack levels used: 1
  1458 ;; Hardware stack levels required when called: 4
  1459 ;; This function calls:
  1460 ;;		Nothing
  1461 ;; This function is called by:
  1462 ;;		_SYSTEM_Initialize
  1463 ;; This function uses a non-reentrant model
  1464 ;;
  1465                           
  1466                           	psect	text10
  1467  0012FA                     __ptext10:
  1468                           	callstack 0
  1469  0012FA                     _INTERRUPT_Initialize:
  1470                           	callstack 25
  1471  0012FA                     
  1472                           ;mcc_generated_files/interrupt_manager.c: 55:     INTCONbits.IPEN = 0;
  1473  0012FA  9AF2               	bcf	242,5,c	;volatile
  1474  0012FC  0012               	return		;funcret
  1475  0012FE                     __end_of_INTERRUPT_Initialize:
  1476                           	callstack 0
  1477                           
  1478 ;; *************** function _I2C1_Initialize *****************
  1479 ;; Defined at:
  1480 ;;		line 168 in file "mcc_generated_files/i2c1_master.c"
  1481 ;; Parameters:    Size  Location     Type
  1482 ;;		None
  1483 ;; Auto vars:     Size  Location     Type
  1484 ;;		None
  1485 ;; Return value:  Size  Location     Type
  1486 ;;                  1    wreg      void 
  1487 ;; Registers used:
  1488 ;;		wreg, status,2
  1489 ;; Tracked objects:
  1490 ;;		On entry : 0/0
  1491 ;;		On exit  : 0/0
  1492 ;;		Unchanged: 0/0
  1493 ;; Data sizes:     COMRAM   BANK0   BANK1   BANK2   BANK3   BANK4   BANK5   BANK6   BANK7   BANK8   BANK9  BANK10  BANK1
      +1  BANK12  BANK13  BANK14
  1494 ;;      Params:         0       0       0       0       0       0       0       0       0       0       0       0       
      +0       0       0       0
  1495 ;;      Locals:         0       0       0       0       0       0       0       0       0       0       0       0       
      +0       0       0       0
  1496 ;;      Temps:          0       0       0       0       0       0       0       0       0       0       0       0       
      +0       0       0       0
  1497 ;;      Totals:         0       0       0       0       0       0       0       0       0       0       0       0       
      +0       0       0       0
  1498 ;;Total ram usage:        0 bytes
  1499 ;; Hardware stack levels used: 1
  1500 ;; Hardware stack levels required when called: 4
  1501 ;; This function calls:
  1502 ;;		Nothing
  1503 ;; This function is called by:
  1504 ;;		_SYSTEM_Initialize
  1505 ;; This function uses a non-reentrant model
  1506 ;;
  1507                           
  1508                           	psect	text11
  1509  00128A                     __ptext11:
  1510                           	callstack 0
  1511  00128A                     _I2C1_Initialize:
  1512                           	callstack 25
  1513  00128A                     
  1514                           ;mcc_generated_files/i2c1_master.c: 170:     SSP1STAT = 0x80;
  1515  00128A  0E80               	movlw	128
  1516  00128C  6E95               	movwf	149,c	;volatile
  1517                           
  1518                           ;mcc_generated_files/i2c1_master.c: 171:     SSP1CON1 = 0x08;
  1519  00128E  0E08               	movlw	8
  1520  001290  6E96               	movwf	150,c	;volatile
  1521                           
  1522                           ;mcc_generated_files/i2c1_master.c: 172:     SSP1CON2 = 0x00;
  1523  001292  0E00               	movlw	0
  1524  001294  6E97               	movwf	151,c	;volatile
  1525                           
  1526                           ;mcc_generated_files/i2c1_master.c: 173:     SSP1CON3 = 0x08;
  1527  001296  0E08               	movlw	8
  1528  001298  6E98               	movwf	152,c	;volatile
  1529                           
  1530                           ;mcc_generated_files/i2c1_master.c: 174:     SSP1ADD = 0x9F;
  1531  00129A  0E9F               	movlw	159
  1532  00129C  6E93               	movwf	147,c	;volatile
  1533  00129E                     
  1534                           ;mcc_generated_files/i2c1_master.c: 175:     SSP1CON1bits.SSPEN = 0;
  1535  00129E  9A96               	bcf	150,5,c	;volatile
  1536  0012A0  0012               	return		;funcret
  1537  0012A2                     __end_of_I2C1_Initialize:
  1538                           	callstack 0
  1539                           
  1540 ;; *************** function _INTERRUPT_InterruptManager *****************
  1541 ;; Defined at:
  1542 ;;		line 58 in file "mcc_generated_files/interrupt_manager.c"
  1543 ;; Parameters:    Size  Location     Type
  1544 ;;		None
  1545 ;; Auto vars:     Size  Location     Type
  1546 ;;		None
  1547 ;; Return value:  Size  Location     Type
  1548 ;;                  1    wreg      void 
  1549 ;; Registers used:
  1550 ;;		wreg, status,2, status,0, pcl, pclath, pclatu, tosl, cstack
  1551 ;; Tracked objects:
  1552 ;;		On entry : 0/0
  1553 ;;		On exit  : 0/0
  1554 ;;		Unchanged: 0/0
  1555 ;; Data sizes:     COMRAM   BANK0   BANK1   BANK2   BANK3   BANK4   BANK5   BANK6   BANK7   BANK8   BANK9  BANK10  BANK1
      +1  BANK12  BANK13  BANK14
  1556 ;;      Params:         0       0       0       0       0       0       0       0       0       0       0       0       
      +0       0       0       0
  1557 ;;      Locals:         0       0       0       0       0       0       0       0       0       0       0       0       
      +0       0       0       0
  1558 ;;      Temps:          2       0       0       0       0       0       0       0       0       0       0       0       
      +0       0       0       0
  1559 ;;      Totals:         2       0       0       0       0       0       0       0       0       0       0       0       
      +0       0       0       0
  1560 ;;Total ram usage:        2 bytes
  1561 ;; Hardware stack levels used: 1
  1562 ;; Hardware stack levels required when called: 3
  1563 ;; This function calls:
  1564 ;;		_PIN_MANAGER_IOC
  1565 ;;		_TMR0_ISR
  1566 ;; This function is called by:
  1567 ;;		Interrupt level 2
  1568 ;; This function uses a non-reentrant model
  1569 ;;
  1570                           
  1571                           	psect	intcode
  1572  000008                     __pintcode:
  1573                           	callstack 0
  1574  000008                     _INTERRUPT_InterruptManager:
  1575                           	callstack 24
  1576                           
  1577                           ;incstack = 0
  1578  000008  825C               	bsf	int$flags,1,c	;set compiler interrupt flag (level 2)
  1579  00000A  CFFA F05A          	movff	pclath,??_INTERRUPT_InterruptManager
  1580  00000E  CFFB F05B          	movff	pclatu,??_INTERRUPT_InterruptManager+1
  1581  000012                     
  1582                           ;mcc_generated_files/interrupt_manager.c: 61:     if(PIE0bits.TMR0IE == 1 && PIR0bits.TM
      +                          R0IF == 1)
  1583  000012  010E               	movlb	14	; () banked
  1584  000014  ABC2               	btfss	194,5,b	;volatile
  1585  000016  EF0F  F000         	goto	i2u673_41
  1586  00001A  EF11  F000         	goto	i2u673_40
  1587  00001E                     i2u673_41:
  1588  00001E  EF1C  F000         	goto	i2l1872
  1589  000022                     i2u673_40:
  1590  000022                     
  1591                           ; BSR set to: 14
  1592  000022  ABCA               	btfss	202,5,b	;volatile
  1593  000024  EF16  F000         	goto	i2u674_41
  1594  000028  EF18  F000         	goto	i2u674_40
  1595  00002C                     i2u674_41:
  1596  00002C  EF1C  F000         	goto	i2l1872
  1597  000030                     i2u674_40:
  1598  000030                     
  1599                           ; BSR set to: 14
  1600                           ;mcc_generated_files/interrupt_manager.c: 62:     {;mcc_generated_files/interrupt_manage
      +                          r.c: 63:         TMR0_ISR();
  1601  000030  EC76  F009         	call	_TMR0_ISR	;wreg free
  1602                           
  1603                           ;mcc_generated_files/interrupt_manager.c: 64:     }
  1604  000034  EF2C  F000         	goto	i2l1876
  1605  000038                     i2l1872:
  1606                           
  1607                           ; BSR set to: 14
  1608  000038  A9C2               	btfss	194,4,b	;volatile
  1609  00003A  EF21  F000         	goto	i2u675_41
  1610  00003E  EF23  F000         	goto	i2u675_40
  1611  000042                     i2u675_41:
  1612  000042  EF2C  F000         	goto	i2l1876
  1613  000046                     i2u675_40:
  1614  000046                     
  1615                           ; BSR set to: 14
  1616  000046  A9CA               	btfss	202,4,b	;volatile
  1617  000048  EF28  F000         	goto	i2u676_41
  1618  00004C  EF2A  F000         	goto	i2u676_40
  1619  000050                     i2u676_41:
  1620  000050  EF2C  F000         	goto	i2l1876
  1621  000054                     i2u676_40:
  1622  000054                     
  1623                           ; BSR set to: 14
  1624                           ;mcc_generated_files/interrupt_manager.c: 66:     {;mcc_generated_files/interrupt_manage
      +                          r.c: 67:         PIN_MANAGER_IOC();
  1625  000054  EC5D  F009         	call	_PIN_MANAGER_IOC	;wreg free
  1626  000058                     i2l1876:
  1627  000058  C05B  FFFB         	movff	??_INTERRUPT_InterruptManager+1,pclatu
  1628  00005C  C05A  FFFA         	movff	??_INTERRUPT_InterruptManager,pclath
  1629  000060  925C               	bcf	int$flags,1,c	;clear compiler interrupt flag (level 2)
  1630  000062  0011               	retfie		f
  1631  000064                     __end_of_INTERRUPT_InterruptManager:
  1632                           	callstack 0
  1633                           
  1634 ;; *************** function _TMR0_ISR *****************
  1635 ;; Defined at:
  1636 ;;		line 121 in file "mcc_generated_files/tmr0.c"
  1637 ;; Parameters:    Size  Location     Type
  1638 ;;		None
  1639 ;; Auto vars:     Size  Location     Type
  1640 ;;		None
  1641 ;; Return value:  Size  Location     Type
  1642 ;;                  1    wreg      void 
  1643 ;; Registers used:
  1644 ;;		wreg, status,2, status,0, pcl, pclath, pclatu, tosl, cstack
  1645 ;; Tracked objects:
  1646 ;;		On entry : 0/0
  1647 ;;		On exit  : 0/0
  1648 ;;		Unchanged: 0/0
  1649 ;; Data sizes:     COMRAM   BANK0   BANK1   BANK2   BANK3   BANK4   BANK5   BANK6   BANK7   BANK8   BANK9  BANK10  BANK1
      +1  BANK12  BANK13  BANK14
  1650 ;;      Params:         0       0       0       0       0       0       0       0       0       0       0       0       
      +0       0       0       0
  1651 ;;      Locals:         0       0       0       0       0       0       0       0       0       0       0       0       
      +0       0       0       0
  1652 ;;      Temps:          0       0       0       0       0       0       0       0       0       0       0       0       
      +0       0       0       0
  1653 ;;      Totals:         0       0       0       0       0       0       0       0       0       0       0       0       
      +0       0       0       0
  1654 ;;Total ram usage:        0 bytes
  1655 ;; Hardware stack levels used: 1
  1656 ;; Hardware stack levels required when called: 2
  1657 ;; This function calls:
  1658 ;;		_TMR0_CallBack
  1659 ;; This function is called by:
  1660 ;;		_INTERRUPT_InterruptManager
  1661 ;; This function uses a non-reentrant model
  1662 ;;
  1663                           
  1664                           	psect	text13
  1665  0012EC                     __ptext13:
  1666                           	callstack 0
  1667  0012EC                     _TMR0_ISR:
  1668                           	callstack 24
  1669  0012EC                     
  1670                           ;mcc_generated_files/tmr0.c: 124:     PIR0bits.TMR0IF = 0;
  1671  0012EC  010E               	movlb	14	; () banked
  1672  0012EE  9BCA               	bcf	202,5,b	;volatile
  1673  0012F0                     
  1674                           ; BSR set to: 14
  1675                           ;mcc_generated_files/tmr0.c: 127:     TMR0_CallBack();
  1676  0012F0  ECD0  F008         	call	_TMR0_CallBack	;wreg free
  1677  0012F4  0012               	return		;funcret
  1678  0012F6                     __end_of_TMR0_ISR:
  1679                           	callstack 0
  1680                           
  1681 ;; *************** function _TMR0_CallBack *****************
  1682 ;; Defined at:
  1683 ;;		line 132 in file "mcc_generated_files/tmr0.c"
  1684 ;; Parameters:    Size  Location     Type
  1685 ;;		None
  1686 ;; Auto vars:     Size  Location     Type
  1687 ;;		None
  1688 ;; Return value:  Size  Location     Type
  1689 ;;                  1    wreg      void 
  1690 ;; Registers used:
  1691 ;;		wreg, status,2, status,0, pcl, pclath, pclatu, tosl, cstack
  1692 ;; Tracked objects:
  1693 ;;		On entry : 0/0
  1694 ;;		On exit  : 0/0
  1695 ;;		Unchanged: 0/0
  1696 ;; Data sizes:     COMRAM   BANK0   BANK1   BANK2   BANK3   BANK4   BANK5   BANK6   BANK7   BANK8   BANK9  BANK10  BANK1
      +1  BANK12  BANK13  BANK14
  1697 ;;      Params:         0       0       0       0       0       0       0       0       0       0       0       0       
      +0       0       0       0
  1698 ;;      Locals:         0       0       0       0       0       0       0       0       0       0       0       0       
      +0       0       0       0
  1699 ;;      Temps:          0       0       0       0       0       0       0       0       0       0       0       0       
      +0       0       0       0
  1700 ;;      Totals:         0       0       0       0       0       0       0       0       0       0       0       0       
      +0       0       0       0
  1701 ;;Total ram usage:        0 bytes
  1702 ;; Hardware stack levels used: 1
  1703 ;; Hardware stack levels required when called: 1
  1704 ;; This function calls:
  1705 ;;		Absolute function
  1706 ;;		_DRVA_TMR_ms
  1707 ;;		_TMR0_DefaultInterruptHandler
  1708 ;; This function is called by:
  1709 ;;		_TMR0_ISR
  1710 ;; This function uses a non-reentrant model
  1711 ;;
  1712                           
  1713                           	psect	text14
  1714  0011A0                     __ptext14:
  1715                           	callstack 0
  1716  0011A0                     _TMR0_CallBack:
  1717                           	callstack 24
  1718  0011A0                     
  1719                           ;mcc_generated_files/tmr0.c: 136:     if(TMR0_InterruptHandler)
  1720  0011A0  5052               	movf	_TMR0_InterruptHandler^0,w,c
  1721  0011A2  1053               	iorwf	(_TMR0_InterruptHandler+1)^0,w,c
  1722  0011A4  1054               	iorwf	(_TMR0_InterruptHandler+2)^0,w,c
  1723  0011A6  B4D8               	btfsc	status,2,c
  1724  0011A8  EFD8  F008         	goto	i2u368_41
  1725  0011AC  EFDA  F008         	goto	i2u368_40
  1726  0011B0                     i2u368_41:
  1727  0011B0  EFE7  F008         	goto	i2l1848
  1728  0011B4                     i2u368_40:
  1729  0011B4                     
  1730                           ;mcc_generated_files/tmr0.c: 137:     {;mcc_generated_files/tmr0.c: 138:         TMR0_In
      +                          terruptHandler();
  1731  0011B4  D802               	call	i2u369_48
  1732  0011B6  EFE7  F008         	goto	i2u369_49
  1733  0011BA                     i2u369_48:
  1734  0011BA  0005               	push	
  1735  0011BC  6EFA               	movwf	pclath,c
  1736  0011BE  5052               	movf	_TMR0_InterruptHandler^0,w,c
  1737  0011C0  6EFD               	movwf	tosl,c
  1738  0011C2  5053               	movf	(_TMR0_InterruptHandler+1)^0,w,c
  1739  0011C4  6EFE               	movwf	tosh,c
  1740  0011C6  5054               	movf	(_TMR0_InterruptHandler+2)^0,w,c
  1741  0011C8  6EFF               	movwf	tosu,c
  1742  0011CA  50FA               	movf	pclath,w,c
  1743  0011CC  0012               	return		;indir
  1744  0011CE                     i2u369_49:
  1745  0011CE                     i2l1848:
  1746  0011CE  0012               	return		;funcret
  1747  0011D0                     __end_of_TMR0_CallBack:
  1748                           	callstack 0
  1749                           
  1750 ;; *************** function _DRVA_TMR_ms *****************
  1751 ;; Defined at:
  1752 ;;		line 189 in file "mcc_generated_files/fatfs/drva.c"
  1753 ;; Parameters:    Size  Location     Type
  1754 ;;		None
  1755 ;; Auto vars:     Size  Location     Type
  1756 ;;  n               2    0[COMRAM] unsigned int 
  1757 ;; Return value:  Size  Location     Type
  1758 ;;                  1    wreg      void 
  1759 ;; Registers used:
  1760 ;;		wreg, status,2, status,0
  1761 ;; Tracked objects:
  1762 ;;		On entry : 0/0
  1763 ;;		On exit  : 0/0
  1764 ;;		Unchanged: 0/0
  1765 ;; Data sizes:     COMRAM   BANK0   BANK1   BANK2   BANK3   BANK4   BANK5   BANK6   BANK7   BANK8   BANK9  BANK10  BANK1
      +1  BANK12  BANK13  BANK14
  1766 ;;      Params:         0       0       0       0       0       0       0       0       0       0       0       0       
      +0       0       0       0
  1767 ;;      Locals:         2       0       0       0       0       0       0       0       0       0       0       0       
      +0       0       0       0
  1768 ;;      Temps:          0       0       0       0       0       0       0       0       0       0       0       0       
      +0       0       0       0
  1769 ;;      Totals:         2       0       0       0       0       0       0       0       0       0       0       0       
      +0       0       0       0
  1770 ;;Total ram usage:        2 bytes
  1771 ;; Hardware stack levels used: 1
  1772 ;; This function calls:
  1773 ;;		Nothing
  1774 ;; This function is called by:
  1775 ;;		_main
  1776 ;;		_TMR0_CallBack
  1777 ;; This function uses a non-reentrant model
  1778 ;;
  1779                           
  1780                           	psect	text15
  1781  0010E2                     __ptext15:
  1782                           	callstack 0
  1783  0010E2                     _DRVA_TMR_ms:
  1784                           	callstack 24
  1785  0010E2                     
  1786                           ;mcc_generated_files/fatfs/drva.c: 190:  UINT n;;mcc_generated_files/fatfs/drva.c: 191: 
      +                           n = Timer1;
  1787  0010E2  C033  F058         	movff	_Timer1,DRVA_TMR_ms@n	;volatile
  1788  0010E6  C034  F059         	movff	_Timer1+1,DRVA_TMR_ms@n+1	;volatile
  1789  0010EA                     
  1790                           ;mcc_generated_files/fatfs/drva.c: 192:  if (n) Timer1 = --n;
  1791  0010EA  5058               	movf	DRVA_TMR_ms@n^0,w,c
  1792  0010EC  1059               	iorwf	(DRVA_TMR_ms@n+1)^0,w,c
  1793  0010EE  B4D8               	btfsc	status,2,c
  1794  0010F0  EF7C  F008         	goto	i2u189_41
  1795  0010F4  EF7E  F008         	goto	i2u189_40
  1796  0010F8                     i2u189_41:
  1797  0010F8  EF85  F008         	goto	i2l3971
  1798  0010FC                     i2u189_40:
  1799  0010FC  0658               	decf	DRVA_TMR_ms@n^0,f,c
  1800  0010FE  A0D8               	btfss	status,0,c
  1801  001100  0659               	decf	(DRVA_TMR_ms@n+1)^0,f,c
  1802  001102  C058  F033         	movff	DRVA_TMR_ms@n,_Timer1	;volatile
  1803  001106  C059  F034         	movff	DRVA_TMR_ms@n+1,_Timer1+1	;volatile
  1804  00110A                     i2l3971:
  1805                           
  1806                           ;mcc_generated_files/fatfs/drva.c: 193:  n = Timer2;
  1807  00110A  C031  F058         	movff	_Timer2,DRVA_TMR_ms@n	;volatile
  1808  00110E  C032  F059         	movff	_Timer2+1,DRVA_TMR_ms@n+1	;volatile
  1809  001112                     
  1810                           ;mcc_generated_files/fatfs/drva.c: 194:  if (n) Timer2 = --n;
  1811  001112  5058               	movf	DRVA_TMR_ms@n^0,w,c
  1812  001114  1059               	iorwf	(DRVA_TMR_ms@n+1)^0,w,c
  1813  001116  B4D8               	btfsc	status,2,c
  1814  001118  EF90  F008         	goto	i2u190_41
  1815  00111C  EF92  F008         	goto	i2u190_40
  1816  001120                     i2u190_41:
  1817  001120  EF99  F008         	goto	i2l185
  1818  001124                     i2u190_40:
  1819  001124  0658               	decf	DRVA_TMR_ms@n^0,f,c
  1820  001126  A0D8               	btfss	status,0,c
  1821  001128  0659               	decf	(DRVA_TMR_ms@n+1)^0,f,c
  1822  00112A  C058  F031         	movff	DRVA_TMR_ms@n,_Timer2	;volatile
  1823  00112E  C059  F032         	movff	DRVA_TMR_ms@n+1,_Timer2+1	;volatile
  1824  001132                     i2l185:
  1825  001132  0012               	return		;funcret
  1826  001134                     __end_of_DRVA_TMR_ms:
  1827                           	callstack 0
  1828                           
  1829 ;; *************** function _TMR0_DefaultInterruptHandler *****************
  1830 ;; Defined at:
  1831 ;;		line 146 in file "mcc_generated_files/tmr0.c"
  1832 ;; Parameters:    Size  Location     Type
  1833 ;;		None
  1834 ;; Auto vars:     Size  Location     Type
  1835 ;;		None
  1836 ;; Return value:  Size  Location     Type
  1837 ;;                  1    wreg      void 
  1838 ;; Registers used:
  1839 ;;		None
  1840 ;; Tracked objects:
  1841 ;;		On entry : 0/0
  1842 ;;		On exit  : 0/0
  1843 ;;		Unchanged: 0/0
  1844 ;; Data sizes:     COMRAM   BANK0   BANK1   BANK2   BANK3   BANK4   BANK5   BANK6   BANK7   BANK8   BANK9  BANK10  BANK1
      +1  BANK12  BANK13  BANK14
  1845 ;;      Params:         0       0       0       0       0       0       0       0       0       0       0       0       
      +0       0       0       0
  1846 ;;      Locals:         0       0       0       0       0       0       0       0       0       0       0       0       
      +0       0       0       0
  1847 ;;      Temps:          0       0       0       0       0       0       0       0       0       0       0       0       
      +0       0       0       0
  1848 ;;      Totals:         0       0       0       0       0       0       0       0       0       0       0       0       
      +0       0       0       0
  1849 ;;Total ram usage:        0 bytes
  1850 ;; Hardware stack levels used: 1
  1851 ;; This function calls:
  1852 ;;		Nothing
  1853 ;; This function is called by:
  1854 ;;		_TMR0_Initialize
  1855 ;;		_TMR0_CallBack
  1856 ;; This function uses a non-reentrant model
  1857 ;;
  1858                           
  1859                           	psect	text16
  1860  0012FE                     __ptext16:
  1861                           	callstack 0
  1862  0012FE                     _TMR0_DefaultInterruptHandler:
  1863                           	callstack 24
  1864  0012FE  0012               	return		;funcret
  1865  001300                     __end_of_TMR0_DefaultInterruptHandler:
  1866                           	callstack 0
  1867                           
  1868 ;; *************** function _PIN_MANAGER_IOC *****************
  1869 ;; Defined at:
  1870 ;;		line 140 in file "mcc_generated_files/pin_manager.c"
  1871 ;; Parameters:    Size  Location     Type
  1872 ;;		None
  1873 ;; Auto vars:     Size  Location     Type
  1874 ;;		None
  1875 ;; Return value:  Size  Location     Type
  1876 ;;                  1    wreg      void 
  1877 ;; Registers used:
  1878 ;;		wreg, status,2, status,0, pcl, pclath, pclatu, tosl, cstack
  1879 ;; Tracked objects:
  1880 ;;		On entry : 0/0
  1881 ;;		On exit  : 0/0
  1882 ;;		Unchanged: 0/0
  1883 ;; Data sizes:     COMRAM   BANK0   BANK1   BANK2   BANK3   BANK4   BANK5   BANK6   BANK7   BANK8   BANK9  BANK10  BANK1
      +1  BANK12  BANK13  BANK14
  1884 ;;      Params:         0       0       0       0       0       0       0       0       0       0       0       0       
      +0       0       0       0
  1885 ;;      Locals:         0       0       0       0       0       0       0       0       0       0       0       0       
      +0       0       0       0
  1886 ;;      Temps:          0       0       0       0       0       0       0       0       0       0       0       0       
      +0       0       0       0
  1887 ;;      Totals:         0       0       0       0       0       0       0       0       0       0       0       0       
      +0       0       0       0
  1888 ;;Total ram usage:        0 bytes
  1889 ;; Hardware stack levels used: 1
  1890 ;; Hardware stack levels required when called: 2
  1891 ;; This function calls:
  1892 ;;		_IOCCF1_ISR
  1893 ;; This function is called by:
  1894 ;;		_INTERRUPT_InterruptManager
  1895 ;; This function uses a non-reentrant model
  1896 ;;
  1897                           
  1898                           	psect	text17
  1899  0012BA                     __ptext17:
  1900                           	callstack 0
  1901  0012BA                     _PIN_MANAGER_IOC:
  1902                           	callstack 24
  1903  0012BA                     
  1904                           ;mcc_generated_files/pin_manager.c: 143:     if(IOCCFbits.IOCCF1 == 1)
  1905  0012BA  010F               	movlb	15	; () banked
  1906  0012BC  A31A               	btfss	26,1,b	;volatile
  1907  0012BE  EF63  F009         	goto	i2u470_41
  1908  0012C2  EF65  F009         	goto	i2u470_40
  1909  0012C6                     i2u470_41:
  1910  0012C6  EF67  F009         	goto	i2l1385
  1911  0012CA                     i2u470_40:
  1912  0012CA                     
  1913                           ; BSR set to: 15
  1914                           ;mcc_generated_files/pin_manager.c: 144:     {;mcc_generated_files/pin_manager.c: 145:  
      +                                 IOCCF1_ISR();
  1915  0012CA  ECB6  F008         	call	_IOCCF1_ISR	;wreg free
  1916  0012CE                     i2l1385:
  1917  0012CE  0012               	return		;funcret
  1918  0012D0                     __end_of_PIN_MANAGER_IOC:
  1919                           	callstack 0
  1920                           
  1921 ;; *************** function _IOCCF1_ISR *****************
  1922 ;; Defined at:
  1923 ;;		line 152 in file "mcc_generated_files/pin_manager.c"
  1924 ;; Parameters:    Size  Location     Type
  1925 ;;		None
  1926 ;; Auto vars:     Size  Location     Type
  1927 ;;		None
  1928 ;; Return value:  Size  Location     Type
  1929 ;;                  1    wreg      void 
  1930 ;; Registers used:
  1931 ;;		wreg, status,2, status,0, pcl, pclath, pclatu, tosl, cstack
  1932 ;; Tracked objects:
  1933 ;;		On entry : 0/0
  1934 ;;		On exit  : 0/0
  1935 ;;		Unchanged: 0/0
  1936 ;; Data sizes:     COMRAM   BANK0   BANK1   BANK2   BANK3   BANK4   BANK5   BANK6   BANK7   BANK8   BANK9  BANK10  BANK1
      +1  BANK12  BANK13  BANK14
  1937 ;;      Params:         0       0       0       0       0       0       0       0       0       0       0       0       
      +0       0       0       0
  1938 ;;      Locals:         0       0       0       0       0       0       0       0       0       0       0       0       
      +0       0       0       0
  1939 ;;      Temps:          0       0       0       0       0       0       0       0       0       0       0       0       
      +0       0       0       0
  1940 ;;      Totals:         0       0       0       0       0       0       0       0       0       0       0       0       
      +0       0       0       0
  1941 ;;Total ram usage:        0 bytes
  1942 ;; Hardware stack levels used: 1
  1943 ;; Hardware stack levels required when called: 1
  1944 ;; This function calls:
  1945 ;;		Absolute function
  1946 ;;		_CA2IOC
  1947 ;;		_IOCCF1_DefaultInterruptHandler
  1948 ;; This function is called by:
  1949 ;;		_PIN_MANAGER_IOC
  1950 ;; This function uses a non-reentrant model
  1951 ;;
  1952                           
  1953                           	psect	text18
  1954  00116C                     __ptext18:
  1955                           	callstack 0
  1956  00116C                     _IOCCF1_ISR:
  1957                           	callstack 24
  1958  00116C                     
  1959                           ;mcc_generated_files/pin_manager.c: 157:     if(IOCCF1_InterruptHandler)
  1960  00116C  5055               	movf	_IOCCF1_InterruptHandler^0,w,c
  1961  00116E  1056               	iorwf	(_IOCCF1_InterruptHandler+1)^0,w,c
  1962  001170  1057               	iorwf	(_IOCCF1_InterruptHandler+2)^0,w,c
  1963  001172  B4D8               	btfsc	status,2,c
  1964  001174  EFBE  F008         	goto	i2u366_41
  1965  001178  EFC0  F008         	goto	i2u366_40
  1966  00117C                     i2u366_41:
  1967  00117C  EFCD  F008         	goto	i2l5115
  1968  001180                     i2u366_40:
  1969  001180                     
  1970                           ;mcc_generated_files/pin_manager.c: 158:     {;mcc_generated_files/pin_manager.c: 159:  
      +                                 IOCCF1_InterruptHandler();
  1971  001180  D802               	call	i2u367_48
  1972  001182  EFCD  F008         	goto	i2u367_49
  1973  001186                     i2u367_48:
  1974  001186  0005               	push	
  1975  001188  6EFA               	movwf	pclath,c
  1976  00118A  5055               	movf	_IOCCF1_InterruptHandler^0,w,c
  1977  00118C  6EFD               	movwf	tosl,c
  1978  00118E  5056               	movf	(_IOCCF1_InterruptHandler+1)^0,w,c
  1979  001190  6EFE               	movwf	tosh,c
  1980  001192  5057               	movf	(_IOCCF1_InterruptHandler+2)^0,w,c
  1981  001194  6EFF               	movwf	tosu,c
  1982  001196  50FA               	movf	pclath,w,c
  1983  001198  0012               	return		;indir
  1984  00119A                     i2u367_49:
  1985  00119A                     i2l5115:
  1986                           
  1987                           ;mcc_generated_files/pin_manager.c: 161:     IOCCFbits.IOCCF1 = 0;
  1988  00119A  010F               	movlb	15	; () banked
  1989  00119C  931A               	bcf	26,1,b	;volatile
  1990  00119E                     
  1991                           ; BSR set to: 15
  1992  00119E  0012               	return		;funcret
  1993  0011A0                     __end_of_IOCCF1_ISR:
  1994                           	callstack 0
  1995                           
  1996 ;; *************** function _CA2IOC *****************
  1997 ;; Defined at:
  1998 ;;		line 38 in file "main.c"
  1999 ;; Parameters:    Size  Location     Type
  2000 ;;		None
  2001 ;; Auto vars:     Size  Location     Type
  2002 ;;  x               2    0[COMRAM] int 
  2003 ;; Return value:  Size  Location     Type
  2004 ;;                  1    wreg      void 
  2005 ;; Registers used:
  2006 ;;		wreg, status,2, status,0
  2007 ;; Tracked objects:
  2008 ;;		On entry : 0/0
  2009 ;;		On exit  : 0/0
  2010 ;;		Unchanged: 0/0
  2011 ;; Data sizes:     COMRAM   BANK0   BANK1   BANK2   BANK3   BANK4   BANK5   BANK6   BANK7   BANK8   BANK9  BANK10  BANK1
      +1  BANK12  BANK13  BANK14
  2012 ;;      Params:         0       0       0       0       0       0       0       0       0       0       0       0       
      +0       0       0       0
  2013 ;;      Locals:         2       0       0       0       0       0       0       0       0       0       0       0       
      +0       0       0       0
  2014 ;;      Temps:          0       0       0       0       0       0       0       0       0       0       0       0       
      +0       0       0       0
  2015 ;;      Totals:         2       0       0       0       0       0       0       0       0       0       0       0       
      +0       0       0       0
  2016 ;;Total ram usage:        2 bytes
  2017 ;; Hardware stack levels used: 1
  2018 ;; This function calls:
  2019 ;;		Nothing
  2020 ;; This function is called by:
  2021 ;;		_main
  2022 ;;		_IOCCF1_ISR
  2023 ;; This function uses a non-reentrant model
  2024 ;;
  2025                           
  2026                           	psect	text19
  2027  0012A2                     __ptext19:
  2028                           	callstack 0
  2029  0012A2                     _CA2IOC:
  2030                           	callstack 24
  2031  0012A2                     
  2032                           ;main.c: 39:     __nop();
  2033  0012A2  F000               	nop	
  2034  0012A4  9085               	bcf	133,0,c	;volatile
  2035  0012A6                     
  2036                           ;main.c: 41:     for (int x = 0; x < 100000; ++x) __nop();;
  2037  0012A6  0E00               	movlw	0
  2038  0012A8  6E59               	movwf	(CA2IOC@x+1)^0,c
  2039  0012AA  0E00               	movlw	0
  2040  0012AC  6E58               	movwf	CA2IOC@x^0,c
  2041  0012AE                     i2l1923:
  2042  0012AE  F000               	nop	
  2043  0012B0  4A58               	infsnz	CA2IOC@x^0,f,c
  2044  0012B2  2A59               	incf	(CA2IOC@x+1)^0,f,c
  2045  0012B4  EF57  F009         	goto	i2l1923
  2046  0012B8  0012               	return		;funcret
  2047  0012BA                     __end_of_CA2IOC:
  2048                           	callstack 0
  2049                           
  2050 ;; *************** function _IOCCF1_DefaultInterruptHandler *****************
  2051 ;; Defined at:
  2052 ;;		line 174 in file "mcc_generated_files/pin_manager.c"
  2053 ;; Parameters:    Size  Location     Type
  2054 ;;		None
  2055 ;; Auto vars:     Size  Location     Type
  2056 ;;		None
  2057 ;; Return value:  Size  Location     Type
  2058 ;;                  1    wreg      void 
  2059 ;; Registers used:
  2060 ;;		None
  2061 ;; Tracked objects:
  2062 ;;		On entry : 0/0
  2063 ;;		On exit  : 0/0
  2064 ;;		Unchanged: 0/0
  2065 ;; Data sizes:     COMRAM   BANK0   BANK1   BANK2   BANK3   BANK4   BANK5   BANK6   BANK7   BANK8   BANK9  BANK10  BANK1
      +1  BANK12  BANK13  BANK14
  2066 ;;      Params:         0       0       0       0       0       0       0       0       0       0       0       0       
      +0       0       0       0
  2067 ;;      Locals:         0       0       0       0       0       0       0       0       0       0       0       0       
      +0       0       0       0
  2068 ;;      Temps:          0       0       0       0       0       0       0       0       0       0       0       0       
      +0       0       0       0
  2069 ;;      Totals:         0       0       0       0       0       0       0       0       0       0       0       0       
      +0       0       0       0
  2070 ;;Total ram usage:        0 bytes
  2071 ;; Hardware stack levels used: 1
  2072 ;; This function calls:
  2073 ;;		Nothing
  2074 ;; This function is called by:
  2075 ;;		_PIN_MANAGER_Initialize
  2076 ;;		_IOCCF1_ISR
  2077 ;; This function uses a non-reentrant model
  2078 ;;
  2079                           
  2080                           	psect	text20
  2081  001300                     __ptext20:
  2082                           	callstack 0
  2083  001300                     _IOCCF1_DefaultInterruptHandler:
  2084                           	callstack 24
  2085  001300  0012               	return		;funcret
  2086  001302                     __end_of_IOCCF1_DefaultInterruptHandler:
  2087                           	callstack 0
  2088                           
  2089                           	psect	text21
  2090  000000                     __ptext21:
  2091                           	callstack 0
  2092  000000                     
  2093                           	psect	rparam
  2094  0000                     
  2095                           	psect	temp
  2096  00005C                     btemp:
  2097                           	callstack 0
  2098  00005C                     	ds	1
  2099  0000                     int$flags	set	btemp
  2100  0000                     wtemp8	set	btemp+1
  2101  0000                     ttemp5	set	btemp+1
  2102  0000                     ttemp6	set	btemp+4
  2103  0000                     ttemp7	set	btemp+8
  2104                           
  2105                           	psect	idloc
  2106                           
  2107                           ;Config register IDLOC0 @ 0x200000
  2108                           ;	unspecified, using default values
  2109  200000                     	org	2097152
  2110  200000  0FFF               	dw	4095
  2111                           
  2112                           ;Config register IDLOC1 @ 0x200002
  2113                           ;	unspecified, using default values
  2114  200002                     	org	2097154
  2115  200002  0FFF               	dw	4095
  2116                           
  2117                           ;Config register IDLOC2 @ 0x200004
  2118                           ;	unspecified, using default values
  2119  200004                     	org	2097156
  2120  200004  0FFF               	dw	4095
  2121                           
  2122                           ;Config register IDLOC3 @ 0x200006
  2123                           ;	unspecified, using default values
  2124  200006                     	org	2097158
  2125  200006  0FFF               	dw	4095
  2126                           
  2127                           ;Config register IDLOC4 @ 0x200008
  2128                           ;	unspecified, using default values
  2129  200008                     	org	2097160
  2130  200008  0FFF               	dw	4095
  2131                           
  2132                           ;Config register IDLOC5 @ 0x20000A
  2133                           ;	unspecified, using default values
  2134  20000A                     	org	2097162
  2135  20000A  0FFF               	dw	4095
  2136                           
  2137                           ;Config register IDLOC6 @ 0x20000C
  2138                           ;	unspecified, using default values
  2139  20000C                     	org	2097164
  2140  20000C  0FFF               	dw	4095
  2141                           
  2142                           ;Config register IDLOC7 @ 0x20000E
  2143                           ;	unspecified, using default values
  2144  20000E                     	org	2097166
  2145  20000E  0FFF               	dw	4095
  2146                           
  2147                           	psect	config
  2148                           
  2149                           ;Config register CONFIG1L @ 0x300000
  2150                           ;	External Oscillator mode Selection bits
  2151                           ;	FEXTOSC = OFF, Oscillator not enabled
  2152                           ;	Power-up default value for COSC bits
  2153                           ;	RSTOSC = HFINTOSC_64MHZ, HFINTOSC with HFFRQ = 64 MHz and CDIV = 1:1
  2154  300000                     	org	3145728
  2155  300000  8C                 	db	140
  2156                           
  2157                           ;Config register CONFIG1H @ 0x300001
  2158                           ;	Clock Out Enable bit
  2159                           ;	CLKOUTEN = OFF, CLKOUT function is disabled
  2160                           ;	Clock Switch Enable bit
  2161                           ;	CSWEN = ON, Writing to NOSC and NDIV is allowed
  2162                           ;	Fail-Safe Clock Monitor Enable bit
  2163                           ;	FCMEN = ON, Fail-Safe Clock Monitor enabled
  2164  300001                     	org	3145729
  2165  300001  FF                 	db	255
  2166                           
  2167                           ;Config register CONFIG2L @ 0x300002
  2168                           ;	Master Clear Enable bit
  2169                           ;	MCLRE = EXTMCLR, If LVP = 0, MCLR pin is MCLR; If LVP = 1, RE3 pin function is MCLR
  2170                           ;	Power-up Timer Enable bit
  2171                           ;	PWRTE = OFF, Power up timer disabled
  2172                           ;	Low-power BOR enable bit
  2173                           ;	LPBOREN = OFF, ULPBOR disabled
  2174                           ;	Brown-out Reset Enable bits
  2175                           ;	BOREN = SBORDIS, Brown-out Reset enabled , SBOREN bit is ignored
  2176  300002                     	org	3145730
  2177  300002  FF                 	db	255
  2178                           
  2179                           ;Config register CONFIG2H @ 0x300003
  2180                           ;	Brown Out Reset Voltage selection bits
  2181                           ;	BORV = VBOR_2P45, Brown-out Reset Voltage (VBOR) set to 2.45V
  2182                           ;	ZCD Disable bit
  2183                           ;	ZCD = OFF, ZCD disabled. ZCD can be enabled by setting the ZCDSEN bit of ZCDCON
  2184                           ;	PPSLOCK bit One-Way Set Enable bit
  2185                           ;	PPS1WAY = ON, PPSLOCK bit can be cleared and set only once; PPS registers remain locke
      +                          d after one clear/set cycle
  2186                           ;	Stack Full/Underflow Reset Enable bit
  2187                           ;	STVREN = ON, Stack full/underflow will cause Reset
  2188                           ;	Debugger Enable bit
  2189                           ;	DEBUG = OFF, Background debugger disabled
  2190                           ;	Extended Instruction Set Enable bit
  2191                           ;	XINST = OFF, Extended Instruction Set and Indexed Addressing Mode disabled
  2192  300003                     	org	3145731
  2193  300003  FF                 	db	255
  2194                           
  2195                           ;Config register CONFIG3L @ 0x300004
  2196                           ;	WDT Period Select bits
  2197                           ;	WDTCPS = WDTCPS_31, Divider ratio 1:65536; software control of WDTPS
  2198                           ;	WDT operating mode
  2199                           ;	WDTE = OFF, WDT Disabled
  2200  300004                     	org	3145732
  2201  300004  9F                 	db	159
  2202                           
  2203                           ;Config register CONFIG3H @ 0x300005
  2204                           ;	WDT Window Select bits
  2205                           ;	WDTCWS = WDTCWS_7, window always open (100%); software control; keyed access not requi
      +                          red
  2206                           ;	WDT input clock selector
  2207                           ;	WDTCCS = SC, Software Control
  2208  300005                     	org	3145733
  2209  300005  FF                 	db	255
  2210                           
  2211                           ;Config register CONFIG4L @ 0x300006
  2212                           ;	Write Protection Block 0
  2213                           ;	WRT0 = OFF, Block 0 (000800-003FFFh) not write-protected
  2214                           ;	Write Protection Block 1
  2215                           ;	WRT1 = OFF, Block 1 (004000-007FFFh) not write-protected
  2216                           ;	Write Protection Block 2
  2217                           ;	WRT2 = OFF, Block 2 (008000-00BFFFh) not write-protected
  2218                           ;	Write Protection Block 3
  2219                           ;	WRT3 = OFF, Block 3 (00C000-00FFFFh) not write-protected
  2220                           ;	Write Protection Block 4
  2221                           ;	WRT4 = OFF, Block 4 (010000-013FFFh) not write-protected
  2222                           ;	Write Protection Block 5
  2223                           ;	WRT5 = OFF, Block 5 (014000-017FFFh) not write-protected
  2224                           ;	Write Protection Block 6
  2225                           ;	WRT6 = OFF, Block 6 (018000-01BFFFh) not write-protected
  2226                           ;	Write Protection Block 7
  2227                           ;	WRT7 = OFF, Block 7 (01C000-01FFFFh) not write-protected
  2228  300006                     	org	3145734
  2229  300006  FF                 	db	255
  2230                           
  2231                           ;Config register CONFIG4H @ 0x300007
  2232                           ;	Configuration Register Write Protection bit
  2233                           ;	WRTC = OFF, Configuration registers (300000-30000Bh) not write-protected
  2234                           ;	Boot Block Write Protection bit
  2235                           ;	WRTB = OFF, Boot Block (000000-0007FFh) not write-protected
  2236                           ;	Data EEPROM Write Protection bit
  2237                           ;	WRTD = OFF, Data EEPROM not write-protected
  2238                           ;	Scanner Enable bit
  2239                           ;	SCANE = ON, Scanner module is available for use, SCANMD bit can control the module
  2240                           ;	Low Voltage Programming Enable bit
  2241                           ;	LVP = ON, Low voltage programming enabled. MCLR/VPP pin function is MCLR. MCLRE config
      +                          uration bit is ignored
  2242  300007                     	org	3145735
  2243  300007  FF                 	db	255
  2244                           
  2245                           ;Config register CONFIG5L @ 0x300008
  2246                           ;	UserNVM Program Memory Code Protection bit
  2247                           ;	CP = OFF, UserNVM code protection disabled
  2248                           ;	DataNVM Memory Code Protection bit
  2249                           ;	CPD = OFF, DataNVM code protection disabled
  2250  300008                     	org	3145736
  2251  300008  FF                 	db	255
  2252                           
  2253                           ;Config register CONFIG5H @ 0x300009
  2254                           ;	unspecified, using default values
  2255  300009                     	org	3145737
  2256  300009  FF                 	db	255
  2257                           
  2258                           ;Config register CONFIG6L @ 0x30000A
  2259                           ;	Table Read Protection Block 0
  2260                           ;	EBTR0 = OFF, Block 0 (000800-003FFFh) not protected from table reads executed in other
      +                           blocks
  2261                           ;	Table Read Protection Block 1
  2262                           ;	EBTR1 = OFF, Block 1 (004000-007FFFh) not protected from table reads executed in other
      +                           blocks
  2263                           ;	Table Read Protection Block 2
  2264                           ;	EBTR2 = OFF, Block 2 (008000-00BFFFh) not protected from table reads executed in other
      +                           blocks
  2265                           ;	Table Read Protection Block 3
  2266                           ;	EBTR3 = OFF, Block 3 (00C000-00FFFFh) not protected from table reads executed in other
      +                           blocks
  2267                           ;	Table Read Protection Block 4
  2268                           ;	EBTR4 = OFF, Block 4 (010000-013FFFh) not protected from table reads executed in other
      +                           blocks
  2269                           ;	Table Read Protection Block 5
  2270                           ;	EBTR5 = OFF, Block 5 (014000-017FFFh) not protected from table reads executed in other
      +                           blocks
  2271                           ;	Table Read Protection Block 6
  2272                           ;	EBTR6 = OFF, Block 6 (018000-01BFFFh) not protected from table reads executed in other
      +                           blocks
  2273                           ;	Table Read Protection Block 7
  2274                           ;	EBTR7 = OFF, Block 7 (01C000-01FFFFh) not protected from table reads executed in other
      +                           blocks
  2275  30000A                     	org	3145738
  2276  30000A  FF                 	db	255
  2277                           
  2278                           ;Config register CONFIG6H @ 0x30000B
  2279                           ;	Boot Block Table Read Protection bit
  2280                           ;	EBTRB = OFF, Boot Block (000000-0007FFh) not protected from table reads executed in ot
      +                          her blocks
  2281  30000B                     	org	3145739
  2282  30000B  FF                 	db	255
  2283                           tosu	equ	0xFFF
  2284                           tosh	equ	0xFFE
  2285                           tosl	equ	0xFFD
  2286                           stkptr	equ	0xFFC
  2287                           pclatu	equ	0xFFB
  2288                           pclath	equ	0xFFA
  2289                           pcl	equ	0xFF9
  2290                           tblptru	equ	0xFF8
  2291                           tblptrh	equ	0xFF7
  2292                           tblptrl	equ	0xFF6
  2293                           tablat	equ	0xFF5
  2294                           prodh	equ	0xFF4
  2295                           prodl	equ	0xFF3
  2296                           indf0	equ	0xFEF
  2297                           postinc0	equ	0xFEE
  2298                           postdec0	equ	0xFED
  2299                           preinc0	equ	0xFEC
  2300                           plusw0	equ	0xFEB
  2301                           fsr0h	equ	0xFEA
  2302                           fsr0l	equ	0xFE9
  2303                           wreg	equ	0xFE8
  2304                           indf1	equ	0xFE7
  2305                           postinc1	equ	0xFE6
  2306                           postdec1	equ	0xFE5
  2307                           preinc1	equ	0xFE4
  2308                           plusw1	equ	0xFE3
  2309                           fsr1h	equ	0xFE2
  2310                           fsr1l	equ	0xFE1
  2311                           bsr	equ	0xFE0
  2312                           indf2	equ	0xFDF
  2313                           postinc2	equ	0xFDE
  2314                           postdec2	equ	0xFDD
  2315                           preinc2	equ	0xFDC
  2316                           plusw2	equ	0xFDB
  2317                           fsr2h	equ	0xFDA
  2318                           fsr2l	equ	0xFD9
  2319                           status	equ	0xFD8

Data Sizes:
    Strings     50
    Constant    202
    Data        26
    BSS         2337
    Persistent  6
    Stack       0

Auto Spaces:
    Space          Size  Autos    Used
    COMRAM           94      4      91
    BANK0           160      3      67
    BANK1           256      0       0
    BANK2           256      0       0
    BANK3           256      0       0
    BANK4           256      0       0
    BANK5           256      0       0
    BANK6           256      0       0
    BANK7           256      0       0
    BANK8           256      0       0
    BANK9           256      0       0
    BANK10          256      0       0
    BANK11          256      0       0
    BANK12          256      0       0
    BANK13          256      0       0
    BANK14          136      0       0

Pointer List with Targets:

    f_open@dj.fs	PTR struct . size(2) Largest target is 0
		 -> drive(BIGRAM[563]), drive@fatfs_demo$F2478(BIGRAM[563]), NULL(NULL[0]), 

    f_chdir@dj.fs	PTR struct . size(2) Largest target is 0
		 -> drive(BIGRAM[563]), drive@fatfs_demo$F2478(BIGRAM[563]), NULL(NULL[0]), 

    f_getcwd@dj.fs	PTR struct . size(2) Largest target is 0
		 -> drive(BIGRAM[563]), drive@fatfs_demo$F2478(BIGRAM[563]), NULL(NULL[0]), 

    f_stat@dj.fs	PTR struct . size(2) Largest target is 0
		 -> drive(BIGRAM[563]), drive@fatfs_demo$F2478(BIGRAM[563]), NULL(NULL[0]), 

    f_unlink@dj.fs	PTR struct . size(2) Largest target is 0
		 -> drive(BIGRAM[563]), drive@fatfs_demo$F2478(BIGRAM[563]), NULL(NULL[0]), 

    f_unlink@sdj.fs	PTR struct . size(2) Largest target is 0
		 -> drive(BIGRAM[563]), drive@fatfs_demo$F2478(BIGRAM[563]), NULL(NULL[0]), 

    f_mkdir@dj.fs	PTR struct . size(2) Largest target is 0
		 -> drive(BIGRAM[563]), drive@fatfs_demo$F2478(BIGRAM[563]), NULL(NULL[0]), 

    f_rename@djo.fs	PTR struct . size(2) Largest target is 0
		 -> drive(BIGRAM[563]), drive@fatfs_demo$F2478(BIGRAM[563]), NULL(NULL[0]), 

    f_rename@djn.fs	PTR struct . size(2) Largest target is 0
		 -> drive(BIGRAM[563]), drive@fatfs_demo$F2478(BIGRAM[563]), NULL(NULL[0]), 

    f_getlabel@dj.fs	PTR struct . size(2) Largest target is 0
		 -> drive(BIGRAM[563]), drive@fatfs_demo$F2478(BIGRAM[563]), NULL(NULL[0]), 

    f_setlabel@dj.fs	PTR struct . size(2) Largest target is 0
		 -> drive(BIGRAM[563]), drive@fatfs_demo$F2478(BIGRAM[563]), NULL(NULL[0]), 

    file@fatfs_demo$F2498.fs	PTR struct . size(2) Largest target is 0
		 -> drive(BIGRAM[563]), drive@fatfs_demo$F2478(BIGRAM[563]), NULL(NULL[0]), 

    file.fs	PTR struct . size(2) Largest target is 0
		 -> drive(BIGRAM[563]), drive@fatfs_demo$F2478(BIGRAM[563]), NULL(NULL[0]), 

    I2C1_Read1ByteRegister@returnValue.data	PTR unsigned char  size(2) Largest target is 0

    I2C1_Read2ByteRegister@returnValue.data	PTR unsigned char  size(2) Largest target is 0

    I2C1_Write1ByteRegister@data.data	PTR unsigned char  size(2) Largest target is 0

    I2C1_Write2ByteRegister@data.data	PTR unsigned char  size(2) Largest target is 0

    I2C1_DO_TX$5231$0	PTR void  size(2) Largest target is 5
		 -> I2C1_ReadDataBlock@bufferBlock(COMRAM[4]), I2C1_Write2ByteRegister@data(COMRAM[2]), I2C1_Write1ByteRegister@data(COMRAM[1]), I2C1_Read2ByteRegister@returnValue(COMRAM[2]), 
		 -> NULL(NULL[0]), I2C1_Read1ByteRegister@returnValue(COMRAM[1]), 

    I2C1_DO_RX$5237$0	PTR void  size(2) Largest target is 5
		 -> I2C1_ReadDataBlock@bufferBlock(COMRAM[4]), I2C1_Write2ByteRegister@data(COMRAM[2]), I2C1_Write1ByteRegister@data(COMRAM[1]), I2C1_Read2ByteRegister@returnValue(COMRAM[2]), 
		 -> NULL(NULL[0]), I2C1_Read1ByteRegister@returnValue(COMRAM[1]), 

    I2C1_DO_TX_EMPTY$5243$0	PTR void  size(2) Largest target is 5
		 -> I2C1_ReadDataBlock@bufferBlock(COMRAM[4]), I2C1_Write2ByteRegister@data(COMRAM[2]), I2C1_Write1ByteRegister@data(COMRAM[1]), I2C1_Read2ByteRegister@returnValue(COMRAM[2]), 
		 -> NULL(NULL[0]), I2C1_Read1ByteRegister@returnValue(COMRAM[1]), 

    I2C1_DO_RX_EMPTY$5249$0	PTR void  size(2) Largest target is 5
		 -> I2C1_ReadDataBlock@bufferBlock(COMRAM[4]), I2C1_Write2ByteRegister@data(COMRAM[2]), I2C1_Write1ByteRegister@data(COMRAM[1]), I2C1_Read2ByteRegister@returnValue(COMRAM[2]), 
		 -> NULL(NULL[0]), I2C1_Read1ByteRegister@returnValue(COMRAM[1]), 

    cb$0	PTR void  size(2) Largest target is 5
		 -> I2C1_ReadDataBlock@bufferBlock(COMRAM[4]), I2C1_Write2ByteRegister@data(COMRAM[2]), I2C1_Write1ByteRegister@data(COMRAM[1]), I2C1_Read2ByteRegister@returnValue(COMRAM[2]), 
		 -> NULL(NULL[0]), I2C1_Read1ByteRegister@returnValue(COMRAM[1]), 

    cb$0	PTR void  size(2) Largest target is 5
		 -> I2C1_ReadDataBlock@bufferBlock(COMRAM[4]), I2C1_Write2ByteRegister@data(COMRAM[2]), I2C1_Write1ByteRegister@data(COMRAM[1]), I2C1_Read2ByteRegister@returnValue(COMRAM[2]), 
		 -> NULL(NULL[0]), I2C1_Read1ByteRegister@returnValue(COMRAM[1]), 

    ?_ReadClock.__tm_zone	PTR const unsigned char  size(2) Largest target is 0

    S2910$0$0	PTR void  size(2) Largest target is 5
		 -> I2C1_ReadDataBlock@bufferBlock(COMRAM[4]), I2C1_Write2ByteRegister@data(COMRAM[2]), I2C1_Write1ByteRegister@data(COMRAM[1]), I2C1_Read2ByteRegister@returnValue(COMRAM[2]), 
		 -> NULL(NULL[0]), I2C1_Read1ByteRegister@returnValue(COMRAM[1]), 

    t.__tm_zone	PTR const unsigned char  size(2) Largest target is 0

    dir.pat	PTR const unsigned char  size(2) Largest target is 0

    dir.dir	PTR unsigned char  size(2) Largest target is 563
		 -> drive(BIGRAM[563]), drive@fatfs_demo$F2478(BIGRAM[563]), NULL(NULL[0]), 

    dir.obj.fs	PTR struct . size(2) Largest target is 563
		 -> drive(BIGRAM[563]), drive@fatfs_demo$F2478(BIGRAM[563]), NULL(NULL[0]), 

    file.dir_ptr	PTR unsigned char  size(2) Largest target is 563
		 -> drive(BIGRAM[563]), drive@fatfs_demo$F2478(BIGRAM[563]), NULL(NULL[0]), 

    file.obj.fs	PTR struct . size(2) Largest target is 563
		 -> drive(BIGRAM[563]), drive@fatfs_demo$F2478(BIGRAM[563]), NULL(NULL[0]), 

    TMR0_SetInterruptHandler@InterruptHandler	PTR FTN()void  size(3) Largest target is 1
		 -> TMR0_DefaultInterruptHandler(), DRVA_TMR_ms(), 

    TMR0_InterruptHandler	PTR FTN()void  size(3) Largest target is 1
		 -> TMR0_DefaultInterruptHandler(), Absolute function(), DRVA_TMR_ms(), 

    S2910$data_ptr	PTR unsigned char  size(2) Largest target is 5
		 -> I2C1_ReadDataBlock@reg(COMRAM[1]), I2C1_ReadDataBlock@bufferBlock(COMRAM[4]), I2C1_Write2ByteRegister@reg(COMRAM[1]), I2C1_Write2ByteRegister@data(COMRAM[2]), 
		 -> I2C1_Write1ByteRegister@reg(COMRAM[1]), I2C1_Write1ByteRegister@data(COMRAM[1]), I2C1_Read2ByteRegister@reg(COMRAM[1]), I2C1_Read2ByteRegister@returnValue(COMRAM[2]), 
		 -> NULL(NULL[0]), I2C1_Read1ByteRegister@reg(COMRAM[1]), I2C1_Read1ByteRegister@returnValue(COMRAM[1]), 

    I2C1_Status.data_ptr	PTR unsigned char  size(2) Largest target is 5
		 -> I2C1_Read1ByteRegister@returnValue.data(COMRAM[3]), I2C1_Read2ByteRegister@returnValue.data(COMRAM[3]), I2C1_Write1ByteRegister@data.data(COMRAM[3]), I2C1_Write2ByteRegister@data.data(COMRAM[3]), 
		 -> I2C1_ReadDataBlock@reg(COMRAM[1]), I2C1_ReadDataBlock@bufferBlock(COMRAM[4]), bufferBlock.data(COMRAM[3]), I2C1_Write2ByteRegister@reg(COMRAM[1]), 
		 -> I2C1_Write2ByteRegister@data(COMRAM[2]), I2C1_Write1ByteRegister@reg(COMRAM[1]), I2C1_Write1ByteRegister@data(COMRAM[1]), I2C1_Read2ByteRegister@reg(COMRAM[1]), 
		 -> I2C1_Read2ByteRegister@returnValue(COMRAM[2]), NULL(NULL[0]), I2C1_Read1ByteRegister@reg(COMRAM[1]), I2C1_Read1ByteRegister@returnValue(COMRAM[1]), 

    S2910$callbackPayload	PTR void [6] size(2) Largest target is 5
		 -> I2C1_ReadDataBlock@bufferBlock(COMRAM[4]), I2C1_Write2ByteRegister@data(COMRAM[2]), I2C1_Write1ByteRegister@data(COMRAM[1]), I2C1_Read2ByteRegister@returnValue(COMRAM[2]), 
		 -> NULL(NULL[0]), I2C1_Read1ByteRegister@returnValue(COMRAM[1]), 

    I2C1_Status.callbackPayload	PTR void [6] size(2) Largest target is 5
		 -> I2C1_ReadDataBlock@bufferBlock(COMRAM[4]), I2C1_Write2ByteRegister@data(COMRAM[2]), I2C1_Write1ByteRegister@data(COMRAM[1]), I2C1_Read2ByteRegister@returnValue(COMRAM[2]), 
		 -> NULL(NULL[0]), I2C1_Read1ByteRegister@returnValue(COMRAM[1]), 

    S2910$callbackTable	PTR FTN(PTR void ,)enum E360[6] size(3) Largest target is 1
		 -> I2C1_CallbackReturnReset(), I2C1_CallbackReturnStop(), Absolute function(), rdBlkRegCompleteHandler(), 
		 -> wr2RegCompleteHandler(), wr1RegCompleteHandler(), rd2RegCompleteHandler(), rd1RegCompleteHandler(), 

    I2C1_Status.callbackTable	PTR FTN(PTR void ,)enum E360[6] size(3) Largest target is 1
		 -> I2C1_CallbackReturnReset(), I2C1_CallbackReturnStop(), Absolute function(), rdBlkRegCompleteHandler(), 
		 -> wr2RegCompleteHandler(), wr1RegCompleteHandler(), rd2RegCompleteHandler(), rd1RegCompleteHandler(), 

    i2c1_fsmStateTable	const PTR FTN()enum E9968[16] size(3) Largest target is 1
		 -> I2C1_DO_ADDRESS_NACK(), I2C1_DO_RESET(), I2C1_DO_RX_NACK_RESTART(), I2C1_DO_RX_NACK_STOP(), 
		 -> I2C1_DO_RX_ACK(), I2C1_DO_SEND_STOP(), I2C1_DO_SEND_RESTART(), I2C1_DO_SEND_RESTART_WRITE(), 
		 -> I2C1_DO_SEND_RESTART_READ(), I2C1_DO_TX_EMPTY(), I2C1_DO_RCEN(), I2C1_DO_RX(), 
		 -> I2C1_DO_TX(), I2C1_DO_SEND_ADR_WRITE(), I2C1_DO_SEND_ADR_READ(), I2C1_DO_IDLE(), 

    IOCCF1_SetInterruptHandler@InterruptHandler	PTR FTN()void  size(3) Largest target is 1
		 -> CA2IOC(), IOCCF1_DefaultInterruptHandler(), 

    IOCCF1_InterruptHandler	PTR FTN()void  size(3) Largest target is 1
		 -> CA2IOC(), Absolute function(), IOCCF1_DefaultInterruptHandler(), 

    S2566tm$__tm_zone	PTR const unsigned char  size(2) Largest target is 0

    clk.__tm_zone	PTR const unsigned char  size(2) Largest target is 0

    file.dir_ptr	PTR unsigned char  size(2) Largest target is 563
		 -> drive(BIGRAM[563]), drive@fatfs_demo$F2478(BIGRAM[563]), NULL(NULL[0]), 

    file.obj.fs	PTR struct . size(2) Largest target is 563
		 -> drive(BIGRAM[563]), drive@fatfs_demo$F2478(BIGRAM[563]), NULL(NULL[0]), 

    dj.pat	PTR const unsigned char  size(2) Largest target is 0

    dj.dir	PTR unsigned char  size(2) Largest target is 563
		 -> drive(BIGRAM[563]), drive@fatfs_demo$F2478(BIGRAM[563]), NULL(NULL[0]), 

    dj.obj.fs	PTR struct . size(2) Largest target is 563
		 -> drive(BIGRAM[563]), drive@fatfs_demo$F2478(BIGRAM[563]), NULL(NULL[0]), 

    dj.pat	PTR const unsigned char  size(2) Largest target is 0

    dj.dir	PTR unsigned char  size(2) Largest target is 563
		 -> drive(BIGRAM[563]), drive@fatfs_demo$F2478(BIGRAM[563]), NULL(NULL[0]), 

    dj.obj.fs	PTR struct . size(2) Largest target is 563
		 -> drive(BIGRAM[563]), drive@fatfs_demo$F2478(BIGRAM[563]), NULL(NULL[0]), 

    djn.pat	PTR const unsigned char  size(2) Largest target is 0

    djn.dir	PTR unsigned char  size(2) Largest target is 563
		 -> drive(BIGRAM[563]), drive@fatfs_demo$F2478(BIGRAM[563]), NULL(NULL[0]), 

    djn.obj.fs	PTR struct . size(2) Largest target is 563
		 -> drive(BIGRAM[563]), drive@fatfs_demo$F2478(BIGRAM[563]), NULL(NULL[0]), 

    djo.pat	PTR const unsigned char  size(2) Largest target is 0

    djo.dir	PTR unsigned char  size(2) Largest target is 563
		 -> drive(BIGRAM[563]), drive@fatfs_demo$F2478(BIGRAM[563]), NULL(NULL[0]), 

    djo.obj.fs	PTR struct . size(2) Largest target is 563
		 -> drive(BIGRAM[563]), drive@fatfs_demo$F2478(BIGRAM[563]), NULL(NULL[0]), 

    dj.pat	PTR const unsigned char  size(2) Largest target is 0

    dj.dir	PTR unsigned char  size(2) Largest target is 563
		 -> drive(BIGRAM[563]), drive@fatfs_demo$F2478(BIGRAM[563]), NULL(NULL[0]), 

    dj.obj.fs	PTR struct . size(2) Largest target is 563
		 -> drive(BIGRAM[563]), drive@fatfs_demo$F2478(BIGRAM[563]), NULL(NULL[0]), 

    sdj.pat	PTR const unsigned char  size(2) Largest target is 0

    sdj.dir	PTR unsigned char  size(2) Largest target is 563
		 -> drive(BIGRAM[563]), drive@fatfs_demo$F2478(BIGRAM[563]), NULL(NULL[0]), 

    sdj.obj.fs	PTR struct . size(2) Largest target is 563
		 -> drive(BIGRAM[563]), drive@fatfs_demo$F2478(BIGRAM[563]), NULL(NULL[0]), 

    dj.pat	PTR const unsigned char  size(2) Largest target is 0

    dj.dir	PTR unsigned char  size(2) Largest target is 563
		 -> drive(BIGRAM[563]), drive@fatfs_demo$F2478(BIGRAM[563]), NULL(NULL[0]), 

    dj.obj.fs	PTR struct . size(2) Largest target is 563
		 -> drive(BIGRAM[563]), drive@fatfs_demo$F2478(BIGRAM[563]), NULL(NULL[0]), 

    f_truncate@fp.dir_ptr	PTR unsigned char  size(2) Largest target is 563
		 -> drive(BIGRAM[563]), drive@fatfs_demo$F2478(BIGRAM[563]), NULL(NULL[0]), 

    f_truncate@fp.obj.fs	PTR struct . size(2) Largest target is 563
		 -> drive(BIGRAM[563]), drive@fatfs_demo$F2478(BIGRAM[563]), NULL(NULL[0]), 

    obj.fs	PTR struct . size(2) Largest target is 563
		 -> drive(BIGRAM[563]), drive@fatfs_demo$F2478(BIGRAM[563]), NULL(NULL[0]), 

    dj.pat	PTR const unsigned char  size(2) Largest target is 0

    dj.dir	PTR unsigned char  size(2) Largest target is 563
		 -> drive(BIGRAM[563]), drive@fatfs_demo$F2478(BIGRAM[563]), NULL(NULL[0]), 

    dj.obj.fs	PTR struct . size(2) Largest target is 563
		 -> drive(BIGRAM[563]), drive@fatfs_demo$F2478(BIGRAM[563]), NULL(NULL[0]), 

    f_findfirst@dp.pat	PTR const unsigned char  size(2) Largest target is 0

    f_findfirst@dp.dir	PTR unsigned char  size(2) Largest target is 563
		 -> drive(BIGRAM[563]), drive@fatfs_demo$F2478(BIGRAM[563]), NULL(NULL[0]), 

    f_findfirst@dp.obj.fs	PTR struct . size(2) Largest target is 563
		 -> drive(BIGRAM[563]), drive@fatfs_demo$F2478(BIGRAM[563]), NULL(NULL[0]), 

    f_findnext@dp.pat	PTR const unsigned char  size(2) Largest target is 0

    f_findnext@dp.dir	PTR unsigned char  size(2) Largest target is 563
		 -> drive(BIGRAM[563]), drive@fatfs_demo$F2478(BIGRAM[563]), NULL(NULL[0]), 

    f_findnext@dp.obj.fs	PTR struct . size(2) Largest target is 563
		 -> drive(BIGRAM[563]), drive@fatfs_demo$F2478(BIGRAM[563]), NULL(NULL[0]), 

    f_readdir@dp.pat	PTR const unsigned char  size(2) Largest target is 0

    f_readdir@dp.dir	PTR unsigned char  size(2) Largest target is 563
		 -> drive(BIGRAM[563]), drive@fatfs_demo$F2478(BIGRAM[563]), NULL(NULL[0]), 

    f_readdir@dp.obj.fs	PTR struct . size(2) Largest target is 563
		 -> drive(BIGRAM[563]), drive@fatfs_demo$F2478(BIGRAM[563]), NULL(NULL[0]), 

    f_closedir@dp.pat	PTR const unsigned char  size(2) Largest target is 0

    f_closedir@dp.dir	PTR unsigned char  size(2) Largest target is 563
		 -> drive(BIGRAM[563]), drive@fatfs_demo$F2478(BIGRAM[563]), NULL(NULL[0]), 

    f_closedir@dp.obj.fs	PTR struct . size(2) Largest target is 563
		 -> drive(BIGRAM[563]), drive@fatfs_demo$F2478(BIGRAM[563]), NULL(NULL[0]), 

    f_opendir@dp.pat	PTR const unsigned char  size(2) Largest target is 0

    f_opendir@dp.dir	PTR unsigned char  size(2) Largest target is 563
		 -> drive(BIGRAM[563]), drive@fatfs_demo$F2478(BIGRAM[563]), NULL(NULL[0]), 

    f_opendir@dp.obj.fs	PTR struct . size(2) Largest target is 563
		 -> drive(BIGRAM[563]), drive@fatfs_demo$F2478(BIGRAM[563]), NULL(NULL[0]), 

    f_lseek@fp.dir_ptr	PTR unsigned char  size(2) Largest target is 563
		 -> drive(BIGRAM[563]), drive@fatfs_demo$F2478(BIGRAM[563]), NULL(NULL[0]), 

    f_lseek@fp.obj.fs	PTR struct . size(2) Largest target is 563
		 -> drive(BIGRAM[563]), drive@fatfs_demo$F2478(BIGRAM[563]), NULL(NULL[0]), 

    dj.pat	PTR const unsigned char  size(2) Largest target is 0

    dj.dir	PTR unsigned char  size(2) Largest target is 563
		 -> drive(BIGRAM[563]), drive@fatfs_demo$F2478(BIGRAM[563]), NULL(NULL[0]), 

    dj.obj.fs	PTR struct . size(2) Largest target is 563
		 -> drive(BIGRAM[563]), drive@fatfs_demo$F2478(BIGRAM[563]), NULL(NULL[0]), 

    dj.pat	PTR const unsigned char  size(2) Largest target is 0

    dj.dir	PTR unsigned char  size(2) Largest target is 563
		 -> drive(BIGRAM[563]), drive@fatfs_demo$F2478(BIGRAM[563]), NULL(NULL[0]), 

    dj.obj.fs	PTR struct . size(2) Largest target is 563
		 -> drive(BIGRAM[563]), drive@fatfs_demo$F2478(BIGRAM[563]), NULL(NULL[0]), 

    f_close@fp.dir_ptr	PTR unsigned char  size(2) Largest target is 563
		 -> drive(BIGRAM[563]), drive@fatfs_demo$F2478(BIGRAM[563]), NULL(NULL[0]), 

    f_close@fp.obj.fs	PTR struct . size(2) Largest target is 563
		 -> drive(BIGRAM[563]), drive@fatfs_demo$F2478(BIGRAM[563]), NULL(NULL[0]), 

    f_sync@fp.dir_ptr	PTR unsigned char  size(2) Largest target is 563
		 -> drive(BIGRAM[563]), drive@fatfs_demo$F2478(BIGRAM[563]), NULL(NULL[0]), 

    f_sync@fp.obj.fs	PTR struct . size(2) Largest target is 563
		 -> drive(BIGRAM[563]), drive@fatfs_demo$F2478(BIGRAM[563]), NULL(NULL[0]), 

    f_write@fp.dir_ptr	PTR unsigned char  size(2) Largest target is 563
		 -> drive(BIGRAM[563]), drive@fatfs_demo$F2478(BIGRAM[563]), NULL(NULL[0]), 

    f_write@fp.obj.fs	PTR struct . size(2) Largest target is 563
		 -> drive(BIGRAM[563]), drive@fatfs_demo$F2478(BIGRAM[563]), NULL(NULL[0]), 

    f_read@fp.dir_ptr	PTR unsigned char  size(2) Largest target is 563
		 -> drive(BIGRAM[563]), drive@fatfs_demo$F2478(BIGRAM[563]), NULL(NULL[0]), 

    f_read@fp.obj.fs	PTR struct . size(2) Largest target is 563
		 -> drive(BIGRAM[563]), drive@fatfs_demo$F2478(BIGRAM[563]), NULL(NULL[0]), 

    S425$dir_ptr	PTR unsigned char  size(2) Largest target is 563
		 -> drive(BIGRAM[563]), drive@fatfs_demo$F2478(BIGRAM[563]), NULL(NULL[0]), 

    f_open@fp.dir_ptr	PTR unsigned char  size(2) Largest target is 563
		 -> drive(BIGRAM[563]), drive@fatfs_demo$F2478(BIGRAM[563]), NULL(NULL[0]), 

    f_open@fp.obj.fs	PTR struct . size(2) Largest target is 563
		 -> drive(BIGRAM[563]), drive@fatfs_demo$F2478(BIGRAM[563]), NULL(NULL[0]), 

    dj.pat	PTR const unsigned char  size(2) Largest target is 0

    dj.dir	PTR unsigned char  size(2) Largest target is 563
		 -> drive(BIGRAM[563]), drive@fatfs_demo$F2478(BIGRAM[563]), NULL(NULL[0]), 

    dj.obj.fs	PTR struct . size(2) Largest target is 563
		 -> drive(BIGRAM[563]), drive@fatfs_demo$F2478(BIGRAM[563]), NULL(NULL[0]), 

    validate@obj.fs	PTR struct . size(2) Largest target is 563
		 -> drive(BIGRAM[563]), drive@fatfs_demo$F2478(BIGRAM[563]), NULL(NULL[0]), 

    FatFs	PTR struct .[1] size(2) Largest target is 563
		 -> drive(BIGRAM[563]), drive@fatfs_demo$F2478(BIGRAM[563]), NULL(NULL[0]), 

    follow_path@dp.pat	PTR const unsigned char  size(2) Largest target is 0

    follow_path@dp.dir	PTR unsigned char  size(2) Largest target is 563
		 -> drive(BIGRAM[563]), drive@fatfs_demo$F2478(BIGRAM[563]), NULL(NULL[0]), 

    follow_path@dp.obj.fs	PTR struct . size(2) Largest target is 563
		 -> drive(BIGRAM[563]), drive@fatfs_demo$F2478(BIGRAM[563]), NULL(NULL[0]), 

    create_name@dp.pat	PTR const unsigned char  size(2) Largest target is 0

    create_name@dp.dir	PTR unsigned char  size(2) Largest target is 563
		 -> drive(BIGRAM[563]), drive@fatfs_demo$F2478(BIGRAM[563]), NULL(NULL[0]), 

    create_name@dp.obj.fs	PTR struct . size(2) Largest target is 563
		 -> drive(BIGRAM[563]), drive@fatfs_demo$F2478(BIGRAM[563]), NULL(NULL[0]), 

    get_fileinfo@dp.pat	PTR const unsigned char  size(2) Largest target is 0

    get_fileinfo@dp.dir	PTR unsigned char  size(2) Largest target is 563
		 -> drive(BIGRAM[563]), drive@fatfs_demo$F2478(BIGRAM[563]), NULL(NULL[0]), 

    get_fileinfo@dp.obj.fs	PTR struct . size(2) Largest target is 563
		 -> drive(BIGRAM[563]), drive@fatfs_demo$F2478(BIGRAM[563]), NULL(NULL[0]), 

    dir_remove@dp.pat	PTR const unsigned char  size(2) Largest target is 0

    dir_remove@dp.dir	PTR unsigned char  size(2) Largest target is 563
		 -> drive(BIGRAM[563]), drive@fatfs_demo$F2478(BIGRAM[563]), NULL(NULL[0]), 

    dir_remove@dp.obj.fs	PTR struct . size(2) Largest target is 563
		 -> drive(BIGRAM[563]), drive@fatfs_demo$F2478(BIGRAM[563]), NULL(NULL[0]), 

    dir_register@dp.pat	PTR const unsigned char  size(2) Largest target is 0

    dir_register@dp.dir	PTR unsigned char  size(2) Largest target is 563
		 -> drive(BIGRAM[563]), drive@fatfs_demo$F2478(BIGRAM[563]), NULL(NULL[0]), 

    dir_register@dp.obj.fs	PTR struct . size(2) Largest target is 563
		 -> drive(BIGRAM[563]), drive@fatfs_demo$F2478(BIGRAM[563]), NULL(NULL[0]), 

    dir_find@dp.pat	PTR const unsigned char  size(2) Largest target is 0

    dir_find@dp.dir	PTR unsigned char  size(2) Largest target is 563
		 -> drive(BIGRAM[563]), drive@fatfs_demo$F2478(BIGRAM[563]), NULL(NULL[0]), 

    dir_find@dp.obj.fs	PTR struct . size(2) Largest target is 563
		 -> drive(BIGRAM[563]), drive@fatfs_demo$F2478(BIGRAM[563]), NULL(NULL[0]), 

    dir_read@dp.pat	PTR const unsigned char  size(2) Largest target is 0

    dir_read@dp.dir	PTR unsigned char  size(2) Largest target is 563
		 -> drive(BIGRAM[563]), drive@fatfs_demo$F2478(BIGRAM[563]), NULL(NULL[0]), 

    dir_read@dp.obj.fs	PTR struct . size(2) Largest target is 563
		 -> drive(BIGRAM[563]), drive@fatfs_demo$F2478(BIGRAM[563]), NULL(NULL[0]), 

    dir_alloc@dp.pat	PTR const unsigned char  size(2) Largest target is 0

    dir_alloc@dp.dir	PTR unsigned char  size(2) Largest target is 563
		 -> drive(BIGRAM[563]), drive@fatfs_demo$F2478(BIGRAM[563]), NULL(NULL[0]), 

    dir_alloc@dp.obj.fs	PTR struct . size(2) Largest target is 563
		 -> drive(BIGRAM[563]), drive@fatfs_demo$F2478(BIGRAM[563]), NULL(NULL[0]), 

    dir_next@dp.pat	PTR const unsigned char  size(2) Largest target is 0

    dir_next@dp.dir	PTR unsigned char  size(2) Largest target is 563
		 -> drive(BIGRAM[563]), drive@fatfs_demo$F2478(BIGRAM[563]), NULL(NULL[0]), 

    dir_next@dp.obj.fs	PTR struct . size(2) Largest target is 563
		 -> drive(BIGRAM[563]), drive@fatfs_demo$F2478(BIGRAM[563]), NULL(NULL[0]), 

    S401$pat	PTR const unsigned char  size(2) Largest target is 0

    dir_sdi@dp.pat	PTR const unsigned char  size(2) Largest target is 0

    S401$dir	PTR unsigned char  size(2) Largest target is 563
		 -> drive(BIGRAM[563]), drive@fatfs_demo$F2478(BIGRAM[563]), NULL(NULL[0]), 

    dir_sdi@dp.dir	PTR unsigned char  size(2) Largest target is 563
		 -> drive(BIGRAM[563]), drive@fatfs_demo$F2478(BIGRAM[563]), NULL(NULL[0]), 

    dir_sdi@dp.obj.fs	PTR struct . size(2) Largest target is 563
		 -> drive(BIGRAM[563]), drive@fatfs_demo$F2478(BIGRAM[563]), NULL(NULL[0]), 

    create_chain@obj.fs	PTR struct . size(2) Largest target is 563
		 -> drive(BIGRAM[563]), drive@fatfs_demo$F2478(BIGRAM[563]), NULL(NULL[0]), 

    remove_chain@obj.fs	PTR struct . size(2) Largest target is 563
		 -> drive(BIGRAM[563]), drive@fatfs_demo$F2478(BIGRAM[563]), NULL(NULL[0]), 

    S394$fs	PTR struct . size(2) Largest target is 563
		 -> drive(BIGRAM[563]), drive@fatfs_demo$F2478(BIGRAM[563]), NULL(NULL[0]), 

    get_fat@obj.fs	PTR struct . size(2) Largest target is 563
		 -> drive(BIGRAM[563]), drive@fatfs_demo$F2478(BIGRAM[563]), NULL(NULL[0]), 

    rdBlkRegCompleteHandler@ptr.data	PTR unsigned char  size(2) Largest target is 0

    S96$data	PTR unsigned char  size(2) Largest target is 0

    bufferBlock.data	PTR unsigned char  size(2) Largest target is 0


Critical Paths under _main in COMRAM

    None.

Critical Paths under _INTERRUPT_InterruptManager in COMRAM

    _TMR0_CallBack->_DRVA_TMR_ms
    _IOCCF1_ISR->_CA2IOC

Critical Paths under _main in BANK0

    _main->_IOCCF1_SetInterruptHandler
    _main->_TMR0_SetInterruptHandler
    _TMR0_Initialize->_TMR0_SetInterruptHandler
    _PIN_MANAGER_Initialize->_IOCCF1_SetInterruptHandler

Critical Paths under _INTERRUPT_InterruptManager in BANK0

    None.

Critical Paths under _main in BANK1

    None.

Critical Paths under _INTERRUPT_InterruptManager in BANK1

    None.

Critical Paths under _main in BANK2

    None.

Critical Paths under _INTERRUPT_InterruptManager in BANK2

    None.

Critical Paths under _main in BANK3

    None.

Critical Paths under _INTERRUPT_InterruptManager in BANK3

    None.

Critical Paths under _main in BANK4

    None.

Critical Paths under _INTERRUPT_InterruptManager in BANK4

    None.

Critical Paths under _main in BANK5

    None.

Critical Paths under _INTERRUPT_InterruptManager in BANK5

    None.

Critical Paths under _main in BANK6

    None.

Critical Paths under _INTERRUPT_InterruptManager in BANK6

    None.

Critical Paths under _main in BANK7

    None.

Critical Paths under _INTERRUPT_InterruptManager in BANK7

    None.

Critical Paths under _main in BANK8

    None.

Critical Paths under _INTERRUPT_InterruptManager in BANK8

    None.

Critical Paths under _main in BANK9

    None.

Critical Paths under _INTERRUPT_InterruptManager in BANK9

    None.

Critical Paths under _main in BANK10

    None.

Critical Paths under _INTERRUPT_InterruptManager in BANK10

    None.

Critical Paths under _main in BANK11

    None.

Critical Paths under _INTERRUPT_InterruptManager in BANK11

    None.

Critical Paths under _main in BANK12

    None.

Critical Paths under _INTERRUPT_InterruptManager in BANK12

    None.

Critical Paths under _main in BANK13

    None.

Critical Paths under _INTERRUPT_InterruptManager in BANK13

    None.

Critical Paths under _main in BANK14

    None.

Critical Paths under _INTERRUPT_InterruptManager in BANK14

    None.

Call Graph Tables:

 ---------------------------------------------------------------------------------
 (Depth) Function   	        Calls       Base Space   Used Autos Params    Refs
 ---------------------------------------------------------------------------------
 (0) _main                                                 0     0      0     844
         _IOCCF1_SetInterruptHandler
                  _SYSTEM_Initialize
           _TMR0_SetInterruptHandler
                    _TMR0_StartTimer
 ---------------------------------------------------------------------------------
 (1) _TMR0_StartTimer                                      0     0      0       0
 ---------------------------------------------------------------------------------
 (1) _SYSTEM_Initialize                                    0     0      0     422
                    _I2C1_Initialize
               _INTERRUPT_Initialize
              _OSCILLATOR_Initialize
             _PIN_MANAGER_Initialize
                     _PMD_Initialize
                    _SPI2_Initialize
                    _TMR0_Initialize
 ---------------------------------------------------------------------------------
 (2) _TMR0_Initialize                                      0     0      0     211
           _TMR0_SetInterruptHandler
 ---------------------------------------------------------------------------------
 (1) _TMR0_SetInterruptHandler                             3     0      3     211
                                              0 BANK0      3     0      3
 ---------------------------------------------------------------------------------
 (2) _SPI2_Initialize                                      0     0      0       0
 ---------------------------------------------------------------------------------
 (2) _PMD_Initialize                                       0     0      0       0
 ---------------------------------------------------------------------------------
 (2) _PIN_MANAGER_Initialize                               0     0      0     211
         _IOCCF1_SetInterruptHandler
 ---------------------------------------------------------------------------------
 (3) _IOCCF1_SetInterruptHandler                           3     0      3     211
                                              0 BANK0      3     0      3
 ---------------------------------------------------------------------------------
 (2) _OSCILLATOR_Initialize                                0     0      0       0
 ---------------------------------------------------------------------------------
 (2) _INTERRUPT_Initialize                                 0     0      0       0
 ---------------------------------------------------------------------------------
 (2) _I2C1_Initialize                                      0     0      0       0
 ---------------------------------------------------------------------------------
 Estimated maximum stack depth 3
 ---------------------------------------------------------------------------------
 (Depth) Function   	        Calls       Base Space   Used Autos Params    Refs
 ---------------------------------------------------------------------------------
 (4) _INTERRUPT_InterruptManager                           2     2      0      60
                                              2 COMRAM     2     2      0
                    _PIN_MANAGER_IOC
                           _TMR0_ISR
 ---------------------------------------------------------------------------------
 (5) _TMR0_ISR                                             0     0      0      60
                      _TMR0_CallBack
 ---------------------------------------------------------------------------------
 (6) _TMR0_CallBack                                        0     0      0      60
                   Absolute function *
                        _DRVA_TMR_ms *
       _TMR0_DefaultInterruptHandler *
 ---------------------------------------------------------------------------------
 (7) _TMR0_DefaultInterruptHandler                         0     0      0       0
 ---------------------------------------------------------------------------------
 (7) _DRVA_TMR_ms                                          2     2      0      60
                                              0 COMRAM     2     2      0
 ---------------------------------------------------------------------------------
 (5) _PIN_MANAGER_IOC                                      0     0      0       0
                         _IOCCF1_ISR
 ---------------------------------------------------------------------------------
 (6) _IOCCF1_ISR                                           0     0      0       0
                   Absolute function *
                             _CA2IOC *
     _IOCCF1_DefaultInterruptHandler *
 ---------------------------------------------------------------------------------
 (7) _IOCCF1_DefaultInterruptHandler                       0     0      0       0
 ---------------------------------------------------------------------------------
 (7) _CA2IOC                                               2     2      0       0
                                              0 COMRAM     2     2      0
 ---------------------------------------------------------------------------------
 (7) Absolute function(Fake)                               0     0      0       0
 ---------------------------------------------------------------------------------
 Estimated maximum stack depth 7
 ---------------------------------------------------------------------------------

 Call Graph Graphs:

 _main (ROOT)
   _IOCCF1_SetInterruptHandler
   _SYSTEM_Initialize
     _I2C1_Initialize
     _INTERRUPT_Initialize
     _OSCILLATOR_Initialize
     _PIN_MANAGER_Initialize
       _IOCCF1_SetInterruptHandler
     _PMD_Initialize
     _SPI2_Initialize
     _TMR0_Initialize
       _TMR0_SetInterruptHandler
   _TMR0_SetInterruptHandler
   _TMR0_StartTimer

 _INTERRUPT_InterruptManager (ROOT)
   _PIN_MANAGER_IOC
     _IOCCF1_ISR
       Absolute function(Fake) *
       _CA2IOC *
       _IOCCF1_DefaultInterruptHandler *
   _TMR0_ISR
     _TMR0_CallBack
       Absolute function(Fake) *
       _DRVA_TMR_ms *
       _TMR0_DefaultInterruptHandler *

 Address spaces:
Name               Size   Autos  Total    Cost      Usage
BIGRAM             E87      0     8AA      62       59.6%
EEDATA             400      0       0       0        0.0%
BITBANK13          100      0       0      30        0.0%
BANK13             100      0       0      31        0.0%
BITBANK12          100      0       0      28        0.0%
BANK12             100      0       0      29        0.0%
BITBANK11          100      0       0      26        0.0%
BANK11             100      0       0      27        0.0%
BITBANK10          100      0       0      24        0.0%
BANK10             100      0       0      25        0.0%
BITBANK9           100      0       0      22        0.0%
BANK9              100      0       0      23        0.0%
BITBANK8           100      0       0      20        0.0%
BANK8              100      0       0      21        0.0%
BITBANK7           100      0       0      18        0.0%
BANK7              100      0       0      19        0.0%
BITBANK6           100      0       0      16        0.0%
BANK6              100      0       0      17        0.0%
BITBANK5           100      0       0      14        0.0%
BANK5              100      0       0      15        0.0%
BITBANK4           100      0       0      12        0.0%
BANK4              100      0       0      13        0.0%
BITBANK3           100      0       0      10        0.0%
BANK3              100      0       0      11        0.0%
BITBANK2           100      0       0       8        0.0%
BANK2              100      0       0       9        0.0%
BITBANK1           100      0       0       6        0.0%
BANK1              100      0       0       7        0.0%
BITBANK0            A0      0       0       4        0.0%
BANK0               A0      3      43       5       41.9%
BITBANK14           88      0       0      32        0.0%
BANK14              88      0       0      33        0.0%
BITCOMRAM           5E      0       0       0        0.0%
COMRAM              5E      4      5B       1       96.8%
BITBIGSFRlhhhhh     55      0       0      41        0.0%
BITBIGSFRhhhll      3A      0       0      36        0.0%
BITBIGSFRlllhlh     1F      0       0      57        0.0%
BITBIGSFRhhhhl      1B      0       0      35        0.0%
BITBIGSFRlhhhhh     11      0       0      45        0.0%
BITBIGSFRhhhhh       D      0       0      34        0.0%
BITBIGSFRllhh        A      0       0      52        0.0%
BITBIGSFRlllhh       9      0       0      56        0.0%
BITBIGSFRlhhhhh      9      0       0      48        0.0%
BITBIGSFRlhhhhh      8      0       0      43        0.0%
BITBIGSFRlhhhhh      7      0       0      46        0.0%
BITBIGSFRllhlhl      4      0       0      54        0.0%
BITBIGSFRlhhhhh      3      0       0      44        0.0%
BITBIGSFRhlh         3      0       0      39        0.0%
BITBIGSFRhhll        3      0       0      38        0.0%
BITBIGSFRllhlhh      2      0       0      53        0.0%
BITBIGSFRllhll       2      0       0      55        0.0%
BITBIGSFRlhhhhh      2      0       0      42        0.0%
BITBIGSFRlhhhhl      2      0       0      49        0.0%
BITBIGSFRhll         2      0       0      40        0.0%
BITBIGSFRllll        2      0       0      60        0.0%
BITBIGSFRlllhll      1      0       0      58        0.0%
BITBIGSFRhhlh        1      0       0      37        0.0%
BITBIGSFRlhhhhh      1      0       0      47        0.0%
BITBIGSFRlllhll      1      0       0      59        0.0%
BITBIGSFRlhhl        1      0       0      50        0.0%
BITBIGSFRlhl         1      0       0      51        0.0%
BIGSFR               0      0       0     200        0.0%
BITSFR_2             0      0       0     200        0.0%
SFR_2                0      0       0     200        0.0%
BITSFR_1             0      0       0     200        0.0%
SFR_1                0      0       0     200        0.0%
BITSFR               0      0       0     200        0.0%
SFR                  0      0       0     200        0.0%
STACK                0      0       0       2        0.0%
NULL                 0      0       0       0        0.0%
ABS                  0      0      9E      61        0.0%
DATA                 0      0     948       3        0.0%
CODE                 0      0       0       0        0.0%


Microchip Technology PIC18 Macro Assembler V2.36 build 20220127204148 
Symbol Table                                                                                   Wed Jun 29 22:44:56 2022

                     _file@fatfs_demo$F2498 072B                                ?_DRVA_TMR_ms 0058  
                                       _dir 0060                                         _fno 008A  
                                       tosl 000FFD                                         wreg 000FE8  
                      _I2C1_DO_RX_NACK_STOP 000000                                        l1300 1256  
                                      l1502 12A0                                        l1381 108A  
                                      l1294 123A                                        l1392 12EA  
                                      l1297 1288                                        l1761 121C  
                                      l1826 11F8                                        l1851 12DC  
                                      l1932 1164                                        l1829 12F8  
                                      l1933 1164                                        l1867 12FC  
                                      l6901 107A                                        l6903 107E  
                                      l6911 11D0                                        l6905 1082  
                                      l6913 11DC                                        l6921 121E  
                                      l6907 1086                                        l6851 12D0  
                                      l6915 11E0                                        l6931 1232  
                                      l6923 1222                                        l6853 12FA  
                                      l6909 1272                                        l6861 11FA  
                                      l6917 11E2                                        l6933 1236  
                                      l6925 1226                                        l6941 115E  
                                      l6871 103E                                        l6855 123C  
                                      l6863 1218                                        l6919 11F4  
                                      l6927 122A                                        l6935 12F6  
                                      l6943 1160                                        l6857 128A  
                                      l6849 12DE                                        l6881 1048  
                                      l6873 1040                                        l6865 121A  
                                      l6929 122E                                        l6937 1134  
                                      l6859 129E                                        l6891 1066  
                                      l6883 104E                                        l6875 1042  
                                      l6867 0FFE                                        l6939 115C  
                                      l6893 106A                                        l6885 1050  
                                      l6877 1044                                        l6869 100A  
                                      l6895 106E                                        l6887 1052  
                                      l6879 1046                                        l6897 1072  
                                      l6889 1054                                        l6899 1076  
                                      STR_1 0FCB                                        STR_3 0FF6  
                                      STR_5 0FF0                                        STR_7 0FFA  
                                      STR_8 0FE6                                        _LATA 000F83  
                                      _LATB 000F84                                        _LATC 000F85  
                                      _PMD0 000EE1                                        _PMD1 000EE2  
                                      _PMD2 000EE3                                        _PMD3 000EE4  
                                      _PMD4 000EE5                                        _PMD5 000EE6  
                                      _WPUA 000F10                                        _WPUB 000F18  
                                      _WPUC 000F20                                        _WPUE 000F2D  
                                      _Fsid 002B                                        _file 0509  
                                      _main 1134                             _TMR0_StartTimer 12F6  
                                      fsr1h 000FE2                                        fsr1l 000FE1  
                                      btemp 005C                                        start 0064  
                              ___param_bank 000000                     __end_of_TMR0_Initialize 11FA  
            ??_TMR0_DefaultInterruptHandler 0058               __end_of_OSCILLATOR_Initialize 128A  
                                     ?_main 0058                                       STR_11 0FDA  
                                     i2l185 1132                  __end_of_i2c1_fsmStateTable 0FB1  
                                     _OSCEN 000EDC                                       _TMR0H 000FD4  
                                     _TMR0L 000FD3                                       _TRISA 000F88  
                                     _TRISB 000F89                                       _TRISC 000F8A  
                                     _FatFs 002D                                       _ExCvt 0F01  
                 ?_TMR0_SetInterruptHandler 00A0                           ??_I2C1_Initialize 00A0  
                          __end_of_TMR0_ISR 12F6                     __end_of_PIN_MANAGER_IOC 12D0  
                                     _drive 00A3                                       pclath 000FFA  
                                     pclatu 000FFB                                       tablat 000FF5  
                                     ttemp5 005D                                       ttemp6 0060  
                                     ttemp7 0064                                       status 000FD8  
                                     wtemp8 005D                             __initialization 108C  
                              __end_of_main 116C                                DRVA_TMR_ms@n 0058  
               ?_INTERRUPT_InterruptManager 0058                                      ??_main 00A3  
                             __activetblptr 000003                                      _CA2IOC 12A2  
                   __end_of_TMR0_StartTimer 12FA                ??_IOCCF1_SetInterruptHandler 00A3  
                                    _ANSELA 000F11                                      _ANSELB 000F19  
                                    _ANSELC 000F21                                      _T0CON0 000FD5  
                                    _T0CON1 000FD6                                      _RB1PPS 000EF0  
                                    _RB3PPS 000EF2                                      _RC3PPS 000EFA  
                                    _RC4PPS 000EFB                                      _ODCONA 000F0F  
                                    _ODCONB 000F17                                      _ODCONC 000F1F  
                                    i2l1385 12CE                                      i2l1395 1300  
                                    i2l1389 119E                                      i2l5111 116C  
                                    i2l1921 12A4                                      i2l5113 1180  
                                    i2l1923 12AE                                      i2l5115 119A  
                                    i2l1844 12F4                                      i2l5117 11A0  
                                    i2l1854 12FE                                      i2l5119 11B4  
                                    i2l1848 11CE                                      i2l1872 0038  
                                    i2l1876 0058                                      i2l4481 12A6  
                                    _INLVLA 000F0D                                      _INLVLB 000F15  
                                    _INLVLC 000F1D                                      i2l4485 12B0  
                                    _INLVLE 000F2A                                      i2l4479 12A2  
                                    i2l5643 12BA                                      i2l3971 110A  
                                    i2l5651 12F0                                      i2l5645 12CA  
                                    i2l3973 1112                                      i2l3965 10E2  
                                    i2l6701 0030                                      i2l3975 1124  
                                    i2l3967 10EA                                      i2l6703 0046  
                                    i2l3969 10FC                                      i2l5649 12EC  
                                    i2l6705 0054                                      i2l6697 0012  
                                    i2l6699 0022                                      _OSCFRQ 000EDE  
                            DiskTest@F10576 0038                                      _DiskWP 0036  
                          _I2C1_DO_TX_EMPTY 000000                                      _Timer1 0033  
                                    _Timer2 0031                            ?_TMR0_Initialize 0058  
                                    clear_0 10B4                                      clear_1 10C6  
                                    clear_2 10D2                                      isa$std 000001  
                     _I2C1_DO_SEND_ADR_READ 000000                              _PMD_Initialize 123C  
                              __pdataCOMRAM 0038                                __mediumconst 0000  
                                    tblptrh 000FF7                                      tblptrl 000FF6  
                                    tblptru 000FF8                       __end_of_TMR0_CallBack 11D0  
  TMR0_SetInterruptHandler@InterruptHandler 00A0  IOCCF1_SetInterruptHandler@InterruptHandler 00A0  
                          ?_PIN_MANAGER_IOC 0058                     _I2C1_DO_RX_NACK_RESTART 000000  
                              ??_IOCCF1_ISR 005A                           _SYSTEM_Initialize 121E  
                                __accesstop 0060                     __end_of__initialization 10D8  
                        ?_SYSTEM_Initialize 0058                               ___rparam_used 000001  
                   _rdBlkRegCompleteHandler 000000                               __end_of_ExCvt 0F81  
                __end_of_spi2_configuration 0FB9                              __pcstackCOMRAM 0058  
                       ??_SYSTEM_Initialize 00A3                                   ?_TMR0_ISR 0058  
                                   CA2IOC@x 0058                      __end_of_PMD_Initialize 1258  
                        __end_of_IOCCF1_ISR 11A0                                     ?_CA2IOC 0058  
                          ?_TMR0_StartTimer 0058                   __end_of_SYSTEM_Initialize 123C  
                         ??_SPI2_Initialize 00A0                                  __pbssBANK0 0060  
                                __pnvCOMRAM 0052                       _rd1RegCompleteHandler 000000  
                         _I2C1_DO_SEND_STOP 000000                       _wr1RegCompleteHandler 000000  
          __end_of_TMR0_SetInterruptHandler 12DE                                  ??_TMR0_ISR 005A  
                           _I2C1_Initialize 128A                             ?_PMD_Initialize 0058  
                                   _OSCCON1 000ED8                                     _OSCCON3 000EDA  
        __end_of_IOCCF1_SetInterruptHandler 12EC                  _IOCCF1_SetInterruptHandler 12DE  
                                   _OSCTUNE 000EDD                                     _SSP1ADD 000F93  
                                   _SSP2ADD 000E93                                     _SLRCONA 000F0E  
                                   _SLRCONB 000F16                                     _SLRCONC 000F1E  
                                   _SSP1BUF 000F92                                     _SSP2BUF 000E92  
                        _i2c1_fsmStateTable 0F81                                     _CurrVol 0035  
                                   __Hparam 0000                                     __Lparam 0000  
                              __psmallconst 0F00                                     __pcinit 108C  
                                   __ramtop 0F00                                     __ptext0 1134  
                                   __ptext1 12F6                                     __ptext2 121E  
                                   __ptext3 11D0                                     __ptext4 12D0  
                                   __ptext5 11FA                                     __ptext6 123C  
                                   __ptext7 0FFE                                     __ptext8 12DE  
                                   __ptext9 1272                       _OSCILLATOR_Initialize 1272  
                  ??_PIN_MANAGER_Initialize 00A3                                   _IOCCFbits 000F1A  
                                 _IOCCNbits 000F1B                                   _IOCCPbits 000F1C  
                      end_of_initialization 10D8                      _I2C1_DO_SEND_ADR_WRITE 000000  
                   __end_of_I2C1_Initialize 12A2                                 _I2C1_Status 0001  
                                   postdec1 000FE5                                     postinc0 000FEE  
                _I2C1_DO_SEND_RESTART_WRITE 000000                    _TMR0_SetInterruptHandler 12D0  
                                 _PORTBbits 000F8E                                   _TRISBbits 000F89  
                            __end_of_CA2IOC 12BA                __end_of_INTERRUPT_Initialize 12FE  
                            _I2C1_DO_RX_ACK 000000                               __pidataCOMRAM 1258  
                    _drive@fatfs_demo$F2478 02D6                               ??_DRVA_TMR_ms 0058  
                    ?_OSCILLATOR_Initialize 0058                             _SPI2_Initialize 11FA  
                        _spi2_configuration 0FB1                         start_initialization 108C  
                                  ??_CA2IOC 0058                             _DiskInitialized 0037  
                          ?_I2C1_Initialize 0058                            f_setlabel@badchr 0FB9  
                          ??_PMD_Initialize 00A0                                 __pbssBIGRAM 00A3  
                               __pbssCOMRAM 0001                        _I2C1_DO_SEND_RESTART 000000  
                             __pcstackBANK0 00A0                         __end_of_DRVA_TMR_ms 1134  
               ?_IOCCF1_SetInterruptHandler 00A0                       _TMR0_InterruptHandler 0052  
                     _rd2RegCompleteHandler 000000                      _PIN_MANAGER_Initialize 0FFE  
                     _wr2RegCompleteHandler 000000                                   __pintcode 0008  
                   __end_of_SPI2_Initialize 121E                ??_INTERRUPT_InterruptManager 005A  
         fp__IOCCF1_DefaultInterruptHandler 0000            ??_IOCCF1_DefaultInterruptHandler 0058  
           ?_IOCCF1_DefaultInterruptHandler 0058                                 __smallconst 0F00  
                             _TMR0_CallBack 11A0                                   fp__CA2IOC 0000  
                      _INTERRUPT_Initialize 12FA                           ??_TMR0_Initialize 00A3  
                                  _LATBbits 000F84                                    _LATCbits 000F85  
                                _I2C1_DO_RX 000000                                  _I2C1_DO_TX 000000  
                                  _PIE0bits 000EC2                                    _PIE3bits 000EC5  
                ??_TMR0_SetInterruptHandler 00A3                                    i2u190_40 1124  
                                  i2u190_41 1120                                    _PIR0bits 000ECA  
                                  i2u189_40 10FC                                    i2u189_41 10F8  
                                  _PIR3bits 000ECD                                    i2u366_40 1180  
                                  i2u470_40 12CA                                    i2u366_41 117C  
                                  i2u470_41 12C6                                    i2u367_48 1186  
                                  i2u368_40 11B4                                    i2u367_49 119A  
                                  i2u368_41 11B0                                    i2u369_48 11BA  
                                  i2u369_49 11CE                                    i2u673_40 0022  
                                  i2u673_41 001E                                    i2u674_40 0030  
                                  i2u674_41 002C                                    i2u675_40 0046  
                                  i2u675_41 0042                                    i2u676_40 0054  
                                  i2u676_41 0050                   _I2C1_DO_SEND_RESTART_READ 000000  
                                  _SSP1CON1 000F96                                    _SSP1CON2 000F97  
                                  _SSP1CON3 000F98                                    _SSP2CON1 000E96  
                                  _SSP2CON2 000E97                                    _TMR0_ISR 12EC  
                                  _SSP1STAT 000F95                                    _SSP2STAT 000E95  
                         ??_PIN_MANAGER_IOC 005A                                 _DRVA_TMR_ms 10E2  
                                  _CardType 002F                              ?_TMR0_CallBack 0058  
                             _I2C1_DO_RESET 000000                                   copy_data0 10A0  
                     ?_INTERRUPT_Initialize 0058                                    __Hrparam 0000  
                                  __Lrparam 0000                            ?_SPI2_Initialize 0058  
                   ??_OSCILLATOR_Initialize 00A0                           ??_TMR0_StartTimer 00A0  
                                _T0CON0bits 000FD5                    __end_off_setlabel@badchr 0FCB  
                                  __ptext10 12FA                                    __ptext11 128A  
                                  __ptext20 1300                                    __ptext21 0000  
                                  __ptext13 12EC                                    __ptext14 11A0  
                                  __ptext15 10E2                                    __ptext16 12FE  
                                  __ptext17 12BA                                    __ptext18 116C  
                                  __ptext19 12A2                                _SSP1CON1bits 000F96  
                              _SSP1CON2bits 000F97                                _SSP2CON1bits 000E96  
                                _IOCCF1_ISR 116C                    _I2C1_CallbackReturnReset 000000  
      __end_of_TMR0_DefaultInterruptHandler 1300                _TMR0_DefaultInterruptHandler 12FE  
                                  isa$xinst 000000                                    int$flags 005C  
        __end_of_INTERRUPT_InterruptManager 0064                  _INTERRUPT_InterruptManager 0008  
                              _SSP1STATbits 000F95                                _I2C1_DO_IDLE 000000  
                              _I2C1_DO_RCEN 000000                                  _INTCONbits 000FF2  
                           ??_TMR0_CallBack 005A                      ??_INTERRUPT_Initialize 00A0  
                                  intlevel2 0000                         FatFsDemo_Tasks@F262 0045  
                   ?_PIN_MANAGER_Initialize 0058                     _I2C1_CallbackReturnStop 000000  
           fp__TMR0_DefaultInterruptHandler 0000               ?_TMR0_DefaultInterruptHandler 0058  
                      _I2C1_DO_ADDRESS_NACK 000000                                  _SSP1DATPPS 000EB8  
                                _SSP2DATPPS 000E90                                  _SSP1CLKPPS 000EB7  
                                _SSP2CLKPPS 000E8F                             _TMR0_Initialize 11D0  
                            fp__DRVA_TMR_ms 0000                                 ?_IOCCF1_ISR 0058  
            __end_of_PIN_MANAGER_Initialize 108C      __end_of_IOCCF1_DefaultInterruptHandler 1302  
            _IOCCF1_DefaultInterruptHandler 1300                             _PIN_MANAGER_IOC 12BA  
                   _IOCCF1_InterruptHandler 0055  
