

Microchip MPLAB XC8 Assembler V2.36 build 20220127204148 
                                                                                               Sat Jul 02 17:01:52 2022

Microchip MPLAB XC8 C Compiler v2.36 (Free license) build 20220127204148 Og1 
     1                           	processor	18F27K40
     2                           	fnconf	rparam,??,?,0
     3                           	pagewidth 120
     4                           	opt	flic
     5                           	psect	idataBANK0,global,class=CODE,delta=1,noexec
     6                           	psect	mediumconst,global,reloc=2,class=MEDIUMCONST,delta=1,noexec
     7                           	psect	nvBANK0,global,class=BANK0,space=1,delta=1,lowdata,noexec
     8                           	psect	cinit,global,reloc=2,class=CODE,delta=1
     9                           	psect	bssCOMRAM,global,class=COMRAM,space=1,delta=1,lowdata,noexec
    10                           	psect	bssBANK0,global,class=BANK0,space=1,delta=1,lowdata,noexec
    11                           	psect	dataBANK0,global,class=BANK0,space=1,delta=1,lowdata,noexec
    12                           	psect	bssBIGRAM,global,class=BIGRAM,space=1,delta=1,noexec
    13                           	psect	cstackBANK0,global,class=BANK0,space=1,delta=1,lowdata,noexec
    14                           	psect	cstackCOMRAM,global,class=COMRAM,space=1,delta=1,lowdata,noexec
    15                           	psect	text0,global,reloc=2,class=CODE,delta=1
    16                           	psect	text1,global,reloc=2,class=CODE,delta=1
    17                           	psect	text2,global,reloc=2,class=CODE,delta=1
    18                           	psect	text3,global,reloc=2,class=CODE,delta=1
    19                           	psect	text4,global,reloc=2,class=CODE,delta=1,group=2
    20                           	psect	text5,global,reloc=2,class=CODE,delta=1,group=2
    21                           	psect	text6,global,reloc=2,class=CODE,delta=1,group=2
    22                           	psect	text7,global,reloc=2,class=CODE,delta=1
    23                           	psect	text8,global,reloc=2,class=CODE,delta=1
    24                           	psect	text9,global,reloc=2,class=CODE,delta=1,group=2
    25                           	psect	text10,global,reloc=2,class=CODE,delta=1
    26                           	psect	text11,global,reloc=2,class=CODE,delta=1
    27                           	psect	text12,global,reloc=2,class=CODE,delta=1
    28                           	psect	text13,global,reloc=2,class=CODE,delta=1
    29                           	psect	text14,global,reloc=2,class=CODE,delta=1,group=2
    30                           	psect	text15,global,reloc=2,class=CODE,delta=1
    31                           	psect	text16,global,reloc=2,class=CODE,delta=1
    32                           	psect	text17,global,reloc=2,class=CODE,delta=1,group=2
    33                           	psect	text18,global,reloc=2,class=CODE,delta=1,group=2
    34                           	psect	text19,global,reloc=2,class=CODE,delta=1,group=1
    35                           	psect	text20,global,reloc=2,class=CODE,delta=1,group=1
    36                           	psect	text21,global,reloc=2,class=CODE,delta=1,group=1
    37                           	psect	text22,global,reloc=2,class=CODE,delta=1
    38                           	psect	text23,global,reloc=2,class=CODE,delta=1
    39                           	psect	text24,global,reloc=2,class=CODE,delta=1
    40                           	psect	text25,global,reloc=2,class=CODE,delta=1
    41                           	psect	text26,global,reloc=2,class=CODE,delta=1,inline
    42                           	psect	text27,global,reloc=2,class=CODE,delta=1
    43                           	psect	text28,global,reloc=2,class=CODE,delta=1
    44                           	psect	text29,global,reloc=2,class=CODE,delta=1
    45                           	psect	text30,global,reloc=2,class=CODE,delta=1,inline
    46                           	psect	text31,global,reloc=2,class=CODE,delta=1,inline
    47                           	psect	text32,global,reloc=2,class=CODE,delta=1
    48                           	psect	text33,global,reloc=2,class=CODE,delta=1
    49                           	psect	text34,global,reloc=2,class=CODE,delta=1
    50                           	psect	text35,global,reloc=2,class=CODE,delta=1
    51                           	psect	text36,global,reloc=2,class=CODE,delta=1
    52                           	psect	text37,global,reloc=2,class=CODE,delta=1
    53                           	psect	text38,global,reloc=2,class=CODE,delta=1
    54                           	psect	text39,global,reloc=2,class=CODE,delta=1
    55                           	psect	text40,global,reloc=2,class=CODE,delta=1
    56                           	psect	text41,global,reloc=2,class=CODE,delta=1
    57                           	psect	text42,global,reloc=2,class=CODE,delta=1
    58                           	psect	text43,global,reloc=2,class=CODE,delta=1
    59                           	psect	text44,global,reloc=2,class=CODE,delta=1
    60                           	psect	text45,global,reloc=2,class=CODE,delta=1
    61                           	psect	text46,global,reloc=2,class=CODE,delta=1
    62                           	psect	text47,global,reloc=2,class=CODE,delta=1
    63                           	psect	text48,global,reloc=2,class=CODE,delta=1,inline
    64                           	psect	text49,global,reloc=2,class=CODE,delta=1,inline
    65                           	psect	text50,global,reloc=2,class=CODE,delta=1,inline
    66                           	psect	text51,global,reloc=2,class=CODE,delta=1,inline
    67                           	psect	text52,global,reloc=2,class=CODE,delta=1,inline
    68                           	psect	text53,global,reloc=2,class=CODE,delta=1,inline
    69                           	psect	text54,global,reloc=2,class=CODE,delta=1,inline
    70                           	psect	text55,global,reloc=2,class=CODE,delta=1
    71                           	psect	text56,global,reloc=2,class=CODE,delta=1
    72                           	psect	text57,global,reloc=2,class=CODE,delta=1
    73                           	psect	text58,global,reloc=2,class=CODE,delta=1
    74                           	psect	text59,global,reloc=2,class=CODE,delta=1
    75                           	psect	text60,global,reloc=2,class=CODE,delta=1
    76                           	psect	text61,global,reloc=2,class=CODE,delta=1
    77                           	psect	text62,global,reloc=2,class=CODE,delta=1
    78                           	psect	text63,global,reloc=2,class=CODE,delta=1
    79                           	psect	text64,global,reloc=2,class=CODE,delta=1
    80                           	psect	text65,global,reloc=2,class=CODE,delta=1,inline
    81                           	psect	text66,global,reloc=2,class=CODE,delta=1,inline
    82                           	psect	text67,global,reloc=2,class=CODE,delta=1,inline
    83                           	psect	text68,global,reloc=2,class=CODE,delta=1
    84                           	psect	text69,global,reloc=2,class=CODE,delta=1,inline
    85                           	psect	text70,global,reloc=2,class=CODE,delta=1,inline
    86                           	psect	text71,global,reloc=2,class=CODE,delta=1,inline
    87                           	psect	text72,global,reloc=2,class=CODE,delta=1
    88                           	psect	text73,global,reloc=2,class=CODE,delta=1
    89                           	psect	text74,global,reloc=2,class=CODE,delta=1
    90                           	psect	text75,global,reloc=2,class=CODE,delta=1
    91                           	psect	text76,global,reloc=2,class=CODE,delta=1
    92                           	psect	text77,global,reloc=2,class=CODE,delta=1
    93                           	psect	text78,global,reloc=2,class=CODE,delta=1
    94                           	psect	text79,global,reloc=2,class=CODE,delta=1
    95                           	psect	text80,global,reloc=2,class=CODE,delta=1
    96                           	psect	text81,global,reloc=2,class=CODE,delta=1
    97                           	psect	text82,global,reloc=2,class=CODE,delta=1
    98                           	psect	intcode,global,reloc=2,class=CODE,delta=1
    99                           	psect	text84,global,reloc=2,class=CODE,delta=1
   100                           	psect	text85,global,reloc=2,class=CODE,delta=1
   101                           	psect	text86,global,reloc=2,class=CODE,delta=1
   102                           	psect	text87,global,reloc=2,class=CODE,delta=1
   103                           	psect	text88,global,reloc=2,class=CODE,delta=1
   104                           	psect	intsave_regs,global,class=BIGRAM,space=1,delta=1,noexec
   105                           	psect	text89,global,reloc=2,class=CODE,delta=1
   106                           	psect	rparam,global,class=COMRAM,space=1,delta=1,noexec
   107                           	psect	temp,global,ovrld,common,class=COMRAM,space=1,delta=1
   108                           	psect	idloc,global,abs,ovrld,class=IDLOC,space=5,delta=1,noexec
   109                           	psect	config,global,abs,ovrld,class=CONFIG,space=4,delta=1,noexec
   110  0000                     
   111                           ; Version 2.40
   112                           ; Generated 17/11/2021 GMT
   113                           ; 
   114                           ; Copyright © 2021, Microchip Technology Inc. and its subsidiaries ("Microchip")
   115                           ; All rights reserved.
   116                           ; 
   117                           ; This software is developed by Microchip Technology Inc. and its subsidiaries ("Microch
      +                          ip").
   118                           ; 
   119                           ; Redistribution and use in source and binary forms, with or without modification, are
   120                           ; permitted provided that the following conditions are met:
   121                           ; 
   122                           ;     1. Redistributions of source code must retain the above copyright notice, this lis
      +                          t of
   123                           ;        conditions and the following disclaimer.
   124                           ; 
   125                           ;     2. Redistributions in binary form must reproduce the above copyright notice, this 
      +                          list
   126                           ;        of conditions and the following disclaimer in the documentation and/or other
   127                           ;        materials provided with the distribution. Publication is not required when
   128                           ;        this file is used in an embedded application.
   129                           ; 
   130                           ;     3. Microchip's name may not be used to endorse or promote products derived from th
      +                          is
   131                           ;        software without specific prior written permission.
   132                           ; 
   133                           ; THIS SOFTWARE IS PROVIDED BY MICROCHIP "AS IS" AND ANY EXPRESS OR IMPLIED WARRANTIES,
   134                           ; INCLUDING, BUT NOT LIMITED TO, THE IMPLIED WARRANTIES OF MERCHANTABILITY AND FITNESS F
      +                          OR
   135                           ; PURPOSE ARE DISCLAIMED.  IN NO EVENT SHALL MICROCHIP BE LIABLE FOR ANY DIRECT, INDIREC
      +                          T,
   136                           ; INCIDENTAL, SPECIAL, EXEMPLARY, OR CONSEQUENTIAL DAMAGES (INCLUDING BUT NOT LIMITED TO
   137                           ; PROCUREMENT OF SUBSTITUTE GOODS OR SERVICES; LOSS OF USE, DATA OR PROFITS; OR BUSINESS
   138                           ; INTERRUPTION) HOWSOEVER CAUSED AND ON ANY THEORY OF LIABILITY, WHETHER IN CONTRACT, ST
      +                          RICT
   139                           ; LIABILITY, OR TORT (INCLUDING NEGLIGENCE OR OTHERWISE) ARISING IN ANY WAY OUT OF THE U
      +                          SE OF
   140                           ; THIS SOFTWARE, EVEN IF ADVISED OF THE POSSIBILITY OF SUCH DAMAGE.
   141                           ; 
   142                           ; 
   143                           ; Code-generator required, PIC18F27K40 Definitions
   144                           ; 
   145                           ; SFR Addresses
   146  0000                     
   147                           	psect	idataBANK0
   148  011BD0                     __pidataBANK0:
   149                           	callstack 0
   150                           
   151                           ;initializer for FatFsDemo_Tasks@F262
   152  011BD0  48                 	db	72
   153  011BD1  65                 	db	101
   154  011BD2  6C                 	db	108
   155  011BD3  6C                 	db	108
   156  011BD4  6F                 	db	111
   157  011BD5  20                 	db	32
   158  011BD6  57                 	db	87
   159  011BD7  6F                 	db	111
   160  011BD8  72                 	db	114
   161  011BD9  6C                 	db	108
   162  011BDA  64                 	db	100
   163  011BDB  21                 	db	33
   164  011BDC  00                 	db	0
   165                           
   166                           	psect	mediumconst
   167  00FED2                     __pmediumconst:
   168                           	callstack 0
   169  00FED2  00                 	db	0
   170  00FED3                     _ExCvt:
   171                           	callstack 0
   172  00FED3  80                 	db	128
   173  00FED4  9A                 	db	154
   174  00FED5  45                 	db	69
   175  00FED6  41                 	db	65
   176  00FED7  8E                 	db	142
   177  00FED8  41                 	db	65
   178  00FED9  8F                 	db	143
   179  00FEDA  80                 	db	128
   180  00FEDB  45                 	db	69
   181  00FEDC  45                 	db	69
   182  00FEDD  45                 	db	69
   183  00FEDE  49                 	db	73
   184  00FEDF  49                 	db	73
   185  00FEE0  49                 	db	73
   186  00FEE1  8E                 	db	142
   187  00FEE2  8F                 	db	143
   188  00FEE3  90                 	db	144
   189  00FEE4  92                 	db	146
   190  00FEE5  92                 	db	146
   191  00FEE6  4F                 	db	79
   192  00FEE7  99                 	db	153
   193  00FEE8  4F                 	db	79
   194  00FEE9  55                 	db	85
   195  00FEEA  55                 	db	85
   196  00FEEB  59                 	db	89
   197  00FEEC  99                 	db	153
   198  00FEED  9A                 	db	154
   199  00FEEE  9B                 	db	155
   200  00FEEF  9C                 	db	156
   201  00FEF0  9D                 	db	157
   202  00FEF1  9E                 	db	158
   203  00FEF2  9F                 	db	159
   204  00FEF3  41                 	db	65
   205  00FEF4  49                 	db	73
   206  00FEF5  4F                 	db	79
   207  00FEF6  55                 	db	85
   208  00FEF7  A5                 	db	165
   209  00FEF8  A5                 	db	165
   210  00FEF9  A6                 	db	166
   211  00FEFA  A7                 	db	167
   212  00FEFB  A8                 	db	168
   213  00FEFC  A9                 	db	169
   214  00FEFD  AA                 	db	170
   215  00FEFE  AB                 	db	171
   216  00FEFF  AC                 	db	172
   217  00FF00  AD                 	db	173
   218  00FF01  AE                 	db	174
   219  00FF02  AF                 	db	175
   220  00FF03  B0                 	db	176
   221  00FF04  B1                 	db	177
   222  00FF05  B2                 	db	178
   223  00FF06  B3                 	db	179
   224  00FF07  B4                 	db	180
   225  00FF08  B5                 	db	181
   226  00FF09  B6                 	db	182
   227  00FF0A  B7                 	db	183
   228  00FF0B  B8                 	db	184
   229  00FF0C  B9                 	db	185
   230  00FF0D  BA                 	db	186
   231  00FF0E  BB                 	db	187
   232  00FF0F  BC                 	db	188
   233  00FF10  BD                 	db	189
   234  00FF11  BE                 	db	190
   235  00FF12  BF                 	db	191
   236  00FF13  C0                 	db	192
   237  00FF14  C1                 	db	193
   238  00FF15  C2                 	db	194
   239  00FF16  C3                 	db	195
   240  00FF17  C4                 	db	196
   241  00FF18  C5                 	db	197
   242  00FF19  C6                 	db	198
   243  00FF1A  C7                 	db	199
   244  00FF1B  C8                 	db	200
   245  00FF1C  C9                 	db	201
   246  00FF1D  CA                 	db	202
   247  00FF1E  CB                 	db	203
   248  00FF1F  CC                 	db	204
   249  00FF20  CD                 	db	205
   250  00FF21  CE                 	db	206
   251  00FF22  CF                 	db	207
   252  00FF23  D0                 	db	208
   253  00FF24  D1                 	db	209
   254  00FF25  D2                 	db	210
   255  00FF26  D3                 	db	211
   256  00FF27  D4                 	db	212
   257  00FF28  D5                 	db	213
   258  00FF29  D6                 	db	214
   259  00FF2A  D7                 	db	215
   260  00FF2B  D8                 	db	216
   261  00FF2C  D9                 	db	217
   262  00FF2D  DA                 	db	218
   263  00FF2E  DB                 	db	219
   264  00FF2F  DC                 	db	220
   265  00FF30  DD                 	db	221
   266  00FF31  DE                 	db	222
   267  00FF32  DF                 	db	223
   268  00FF33  E0                 	db	224
   269  00FF34  E1                 	db	225
   270  00FF35  E2                 	db	226
   271  00FF36  E3                 	db	227
   272  00FF37  E4                 	db	228
   273  00FF38  E5                 	db	229
   274  00FF39  E6                 	db	230
   275  00FF3A  E7                 	db	231
   276  00FF3B  E8                 	db	232
   277  00FF3C  E9                 	db	233
   278  00FF3D  EA                 	db	234
   279  00FF3E  EB                 	db	235
   280  00FF3F  EC                 	db	236
   281  00FF40  ED                 	db	237
   282  00FF41  EE                 	db	238
   283  00FF42  EF                 	db	239
   284  00FF43  F0                 	db	240
   285  00FF44  F1                 	db	241
   286  00FF45  F2                 	db	242
   287  00FF46  F3                 	db	243
   288  00FF47  F4                 	db	244
   289  00FF48  F5                 	db	245
   290  00FF49  F6                 	db	246
   291  00FF4A  F7                 	db	247
   292  00FF4B  F8                 	db	248
   293  00FF4C  F9                 	db	249
   294  00FF4D  FA                 	db	250
   295  00FF4E  FB                 	db	251
   296  00FF4F  FC                 	db	252
   297  00FF50  FD                 	db	253
   298  00FF51  FE                 	db	254
   299  00FF52  FF                 	db	255
   300  00FF53                     __end_of_ExCvt:
   301                           	callstack 0
   302  00FF53                     _i2c1_fsmStateTable:
   303                           	callstack 0
   304  00FF53  F6                 	db	low _I2C1_DO_IDLE
   305  00FF54  1B                 	db	high _I2C1_DO_IDLE
   306  00FF55  01                 	db	low (_I2C1_DO_IDLE shr (0+16))
   307  00FF56  B2                 	db	low _I2C1_DO_SEND_ADR_READ
   308  00FF57  1B                 	db	high _I2C1_DO_SEND_ADR_READ
   309  00FF58  01                 	db	low (_I2C1_DO_SEND_ADR_READ shr (0+16))
   310  00FF59  A2                 	db	low _I2C1_DO_SEND_ADR_WRITE
   311  00FF5A  1B                 	db	high _I2C1_DO_SEND_ADR_WRITE
   312  00FF5B  01                 	db	low (_I2C1_DO_SEND_ADR_WRITE shr (0+16))
   313  00FF5C  5E                 	db	low _I2C1_DO_TX
   314  00FF5D  0C                 	db	high _I2C1_DO_TX
   315  00FF5E  01                 	db	low (_I2C1_DO_TX shr (0+16))
   316  00FF5F  F4                 	db	low _I2C1_DO_RX
   317  00FF60  0F                 	db	high _I2C1_DO_RX
   318  00FF61  01                 	db	low (_I2C1_DO_RX shr (0+16))
   319  00FF62  EA                 	db	low _I2C1_DO_RCEN
   320  00FF63  1B                 	db	high _I2C1_DO_RCEN
   321  00FF64  01                 	db	low (_I2C1_DO_RCEN shr (0+16))
   322  00FF65  08                 	db	low _I2C1_DO_TX_EMPTY
   323  00FF66  14                 	db	high _I2C1_DO_TX_EMPTY
   324  00FF67  01                 	db	low (_I2C1_DO_TX_EMPTY shr (0+16))
   325  00FF68  44                 	db	low _I2C1_DO_SEND_RESTART_READ
   326  00FF69  1C                 	db	high _I2C1_DO_SEND_RESTART_READ
   327  00FF6A  01                 	db	low (_I2C1_DO_SEND_RESTART_READ shr (0+16))
   328  00FF6B  3C                 	db	low _I2C1_DO_SEND_RESTART_WRITE
   329  00FF6C  1C                 	db	high _I2C1_DO_SEND_RESTART_WRITE
   330  00FF6D  01                 	db	low (_I2C1_DO_SEND_RESTART_WRITE shr (0+16))
   331  00FF6E  34                 	db	low _I2C1_DO_SEND_RESTART
   332  00FF6F  1C                 	db	high _I2C1_DO_SEND_RESTART
   333  00FF70  01                 	db	low (_I2C1_DO_SEND_RESTART shr (0+16))
   334  00FF71  2C                 	db	low _I2C1_DO_SEND_STOP
   335  00FF72  1C                 	db	high _I2C1_DO_SEND_STOP
   336  00FF73  01                 	db	low (_I2C1_DO_SEND_STOP shr (0+16))
   337  00FF74  24                 	db	low _I2C1_DO_RX_ACK
   338  00FF75  1C                 	db	high _I2C1_DO_RX_ACK
   339  00FF76  01                 	db	low (_I2C1_DO_RX_ACK shr (0+16))
   340  00FF77  1C                 	db	low _I2C1_DO_RX_NACK_STOP
   341  00FF78  1C                 	db	high _I2C1_DO_RX_NACK_STOP
   342  00FF79  01                 	db	low (_I2C1_DO_RX_NACK_STOP shr (0+16))
   343  00FF7A  14                 	db	low _I2C1_DO_RX_NACK_RESTART
   344  00FF7B  1C                 	db	high _I2C1_DO_RX_NACK_RESTART
   345  00FF7C  01                 	db	low (_I2C1_DO_RX_NACK_RESTART shr (0+16))
   346  00FF7D  DE                 	db	low _I2C1_DO_RESET
   347  00FF7E  1B                 	db	high _I2C1_DO_RESET
   348  00FF7F  01                 	db	low (_I2C1_DO_RESET shr (0+16))
   349  00FF80  5A                 	db	low _I2C1_DO_ADDRESS_NACK
   350  00FF81  16                 	db	high _I2C1_DO_ADDRESS_NACK
   351  00FF82  01                 	db	low (_I2C1_DO_ADDRESS_NACK shr (0+16))
   352  00FF83                     __end_of_i2c1_fsmStateTable:
   353                           	callstack 0
   354  00FF83                     _spi2_configuration:
   355                           	callstack 0
   356  00FF83  0A                 	db	10
   357  00FF84  40                 	db	64
   358  00FF85  9F                 	db	159
   359  00FF86  00                 	db	0
   360  00FF87  00                 	db	0
   361  00FF88  40                 	db	64
   362  00FF89  9F                 	db	159
   363  00FF8A  00                 	db	0
   364  00FF8B                     __end_of_spi2_configuration:
   365                           	callstack 0
   366  00FF8B                     f_setlabel@badchr:
   367                           	callstack 0
   368  00FF8B  2B                 	db	43
   369  00FF8C  2E                 	db	46
   370  00FF8D  2C                 	db	44
   371  00FF8E  3B                 	db	59
   372  00FF8F  3D                 	db	61
   373  00FF90  5B                 	db	91
   374  00FF91  5D                 	db	93
   375  00FF92  2F                 	db	47
   376  00FF93  5C                 	db	92
   377  00FF94  22                 	db	34
   378  00FF95  2A                 	db	42
   379  00FF96  3A                 	db	58
   380  00FF97  3C                 	db	60
   381  00FF98  3E                 	db	62
   382  00FF99  3F                 	db	63
   383  00FF9A  7C                 	db	124
   384  00FF9B  7F                 	db	127
   385  00FF9C  00                 	db	0
   386  00FF9D                     __end_off_setlabel@badchr:
   387                           	callstack 0
   388  0000                     _T0CON0	set	4053
   389  0000                     _OSCTUNE	set	3805
   390  0000                     _OSCFRQ	set	3806
   391  00FF9D                     STR_11:
   392  00FF9D  4A                 	db	74	;'J'
   393  00FF9E  61                 	db	97	;'a'
   394  00FF9F  6E                 	db	110	;'n'
   395  00FFA0  46                 	db	70	;'F'
   396  00FFA1  65                 	db	101	;'e'
   397  00FFA2  62                 	db	98	;'b'
   398  00FFA3  4D                 	db	77	;'M'
   399  00FFA4  61                 	db	97	;'a'
   400  00FFA5  72                 	db	114	;'r'
   401  00FFA6  41                 	db	65	;'A'
   402  00FFA7  70                 	db	112	;'p'
   403  00FFA8  72                 	db	114	;'r'
   404  00FFA9  4D                 	db	77	;'M'
   405  00FFAA  61                 	db	97	;'a'
   406  00FFAB  79                 	db	121	;'y'
   407  00FFAC  4A                 	db	74	;'J'
   408  00FFAD  75                 	db	117	;'u'
   409  00FFAE  6E                 	db	110	;'n'
   410  00FFAF  4A                 	db	74	;'J'
   411  00FFB0  75                 	db	117	;'u'
   412  00FFB1  6C                 	db	108	;'l'
   413  00FFB2  41                 	db	65	;'A'
   414  00FFB3  75                 	db	117	;'u'
   415  00FFB4  67                 	db	103	;'g'
   416  00FFB5  53                 	db	83	;'S'
   417  00FFB6  65                 	db	101	;'e'
   418  00FFB7  70                 	db	112	;'p'
   419  00FFB8  4F                 	db	79	;'O'
   420  00FFB9  63                 	db	99	;'c'
   421  00FFBA  74                 	db	116	;'t'
   422  00FFBB  4E                 	db	78	;'N'
   423  00FFBC  6F                 	db	111	;'o'
   424  00FFBD  76                 	db	118	;'v'
   425  00FFBE  44                 	db	68	;'D'
   426  00FFBF  65                 	db	101	;'e'
   427  00FFC0  63                 	db	99	;'c'
   428  00FFC1  00                 	db	0
   429  00FFC2                     STR_10:
   430  00FFC2  53                 	db	83	;'S'
   431  00FFC3  75                 	db	117	;'u'
   432  00FFC4  6E                 	db	110	;'n'
   433  00FFC5  4D                 	db	77	;'M'
   434  00FFC6  6F                 	db	111	;'o'
   435  00FFC7  6E                 	db	110	;'n'
   436  00FFC8  54                 	db	84	;'T'
   437  00FFC9  75                 	db	117	;'u'
   438  00FFCA  65                 	db	101	;'e'
   439  00FFCB  57                 	db	87	;'W'
   440  00FFCC  65                 	db	101	;'e'
   441  00FFCD  64                 	db	100	;'d'
   442  00FFCE  54                 	db	84	;'T'
   443  00FFCF  68                 	db	104	;'h'
   444  00FFD0  75                 	db	117	;'u'
   445  00FFD1  46                 	db	70	;'F'
   446  00FFD2  72                 	db	114	;'r'
   447  00FFD3  69                 	db	105	;'i'
   448  00FFD4  53                 	db	83	;'S'
   449  00FFD5  61                 	db	97	;'a'
   450  00FFD6  74                 	db	116	;'t'
   451  00FFD7  00                 	db	0
   452  00FFD8                     STR_1:
   453  00FFD8  22                 	db	34
   454  00FFD9  2A                 	db	42
   455  00FFDA  2B                 	db	43
   456  00FFDB  2C                 	db	44
   457  00FFDC  3A                 	db	58	;':'
   458  00FFDD  3B                 	db	59	;';'
   459  00FFDE  3C                 	db	60	;'<'
   460  00FFDF  3D                 	db	61	;'='
   461  00FFE0  3E                 	db	62	;'>'
   462  00FFE1  3F                 	db	63	;'?'
   463  00FFE2  5B                 	db	91	;'['
   464  00FFE3  5D                 	db	93	;']'
   465  00FFE4  7C                 	db	124
   466  00FFE5  7F                 	db	127
   467  00FFE6  00                 	db	0
   468  00FFE7  48                 	db	72	;'H'
   469  00FFE8  45                 	db	69	;'E'
   470  00FFE9  4C                 	db	76	;'L'
   471  00FFEA  4C                 	db	76	;'L'
   472  00FFEB  4F                 	db	79	;'O'
   473  00FFEC  2E                 	db	46
   474  00FFED  54                 	db	84	;'T'
   475  00FFEE  58                 	db	88	;'X'
   476  00FFEF  54                 	db	84	;'T'
   477  00FFF0  00                 	db	0
   478  00FFF1                     STR_5:
   479  00FFF1  46                 	db	70	;'F'
   480  00FFF2  41                 	db	65	;'A'
   481  00FFF3  54                 	db	84	;'T'
   482  00FFF4  33                 	db	51	;'3'
   483  00FFF5  32                 	db	50	;'2'
   484  00FFF6  00                 	db	0
   485  00FFF7                     STR_3:
   486  00FFF7  46                 	db	70	;'F'
   487  00FFF8  41                 	db	65	;'A'
   488  00FFF9  54                 	db	84	;'T'
   489  00FFFA  00                 	db	0
   490  00FFFB                     STR_7:
   491  00FFFB  30                 	db	48	;'0'
   492  00FFFC  3A                 	db	58	;':'
   493  00FFFD  00                 	db	0
   494  00FFFE  00                 	db	0	; dummy byte at the end
   495  0000                     
   496                           	psect	nvBANK0
   497  0000FC                     __pnvBANK0:
   498                           	callstack 0
   499  0000FC                     _TMR0_InterruptHandler:
   500                           	callstack 0
   501  0000FC                     	ds	3
   502  0000                     _SSP2CON1bits	set	3734
   503  0000                     _LATCbits	set	3973
   504  0000                     _T0CON0bits	set	4053
   505  0000                     _TRISBbits	set	3977
   506  0000                     _SSP1STATbits	set	3989
   507  0000                     _SSP1CON2bits	set	3991
   508  0000                     _SSP1CON1bits	set	3990
   509  0000                     _LATB	set	3972
   510  0000                     _SSP2CLKPPS	set	3727
   511  0000                     _SSP2DATPPS	set	3728
   512  0000                     _PIE0bits	set	3778
   513  0000                     _OSCCON1	set	3800
   514  0000                     _LATBbits	set	3972
   515  0000                     _TRISA	set	3976
   516  0000                     _LATC	set	3973
   517  0000                     _PORTBbits	set	3982
   518  0000                     _PORTCbits	set	3983
   519  0000                     _SSP1BUF	set	3986
   520  0000                     _SSP1ADD	set	3987
   521  0000                     _SSP1STAT	set	3989
   522  0000                     _OSCCON3	set	3802
   523  0000                     _OSCEN	set	3804
   524  0000                     _PMD0	set	3809
   525  0000                     _RB1PPS	set	3824
   526  0000                     _INLVLA	set	3853
   527  0000                     _SLRCONA	set	3854
   528  0000                     _ODCONA	set	3855
   529  0000                     _WPUA	set	3856
   530  0000                     _ANSELA	set	3857
   531  0000                     _ANSELB	set	3865
   532  0000                     _ANSELC	set	3873
   533  0000                     _LATA	set	3971
   534  0000                     _PMD5	set	3814
   535  0000                     _PMD4	set	3813
   536  0000                     _PMD3	set	3812
   537  0000                     _PMD2	set	3811
   538  0000                     _PMD1	set	3810
   539  0000                     _PORTA	set	3981
   540  0000                     _TRISC	set	3978
   541  0000                     _TRISB	set	3977
   542  0000                     _INLVLE	set	3882
   543  0000                     _WPUE	set	3885
   544  0000                     _INLVLC	set	3869
   545  0000                     _SLRCONC	set	3870
   546  0000                     _ODCONC	set	3871
   547  0000                     _WPUC	set	3872
   548  0000                     _INLVLB	set	3861
   549  0000                     _SLRCONB	set	3862
   550  0000                     _ODCONB	set	3863
   551  0000                     _WPUB	set	3864
   552  0000                     _PIE3bits	set	3781
   553  0000                     _PIR3bits	set	3789
   554  0000                     _SSP2BUF	set	3730
   555  0000                     _SSP2ADD	set	3731
   556  0000                     _SSP2STAT	set	3733
   557  0000                     _SSP1CLKPPS	set	3767
   558  0000                     _SSP1DATPPS	set	3768
   559  0000                     _RB3PPS	set	3826
   560  0000                     _RC3PPS	set	3834
   561  0000                     _RC4PPS	set	3835
   562  0000                     _TMR0L	set	4051
   563  0000                     _TMR0H	set	4052
   564  0000                     _T0CON1	set	4054
   565  0000                     _SSP1CON3	set	3992
   566  0000                     _SSP1CON2	set	3991
   567  0000                     _SSP1CON1	set	3990
   568  0000                     _PIR0bits	set	3786
   569  0000                     _SSP2CON2	set	3735
   570  0000                     _SSP2CON1	set	3734
   571  0000                     _INTCONbits	set	4082
   572                           
   573                           ; #config settings
   574                           
   575                           	psect	cinit
   576  01171E                     __pcinit:
   577                           	callstack 0
   578  01171E                     start_initialization:
   579                           	callstack 0
   580  01171E                     __initialization:
   581                           	callstack 0
   582                           
   583                           ; Initialize objects allocated to BANK0 (13 bytes)
   584                           ; load TBLPTR registers with __pidataBANK0
   585  01171E  0ED0               	movlw	low __pidataBANK0
   586  011720  6EF6               	movwf	tblptrl,c
   587  011722  0E1B               	movlw	high __pidataBANK0
   588  011724  6EF7               	movwf	tblptrh,c
   589  011726  0E01               	movlw	low (__pidataBANK0 shr (0+16))
   590  011728  6EF8               	movwf	tblptru,c
   591  01172A  EE00  F0EF         	lfsr	0,__pdataBANK0
   592  01172E  EE10 F00D          	lfsr	1,13
   593  011732                     copy_data0:
   594  011732  0009               	tblrd		*+
   595  011734  CFF5 FFEE          	movff	tablat,postinc0
   596  011738  50E5               	movf	postdec1,w,c
   597  01173A  50E1               	movf	fsr1l,w,c
   598  01173C  E1FA               	bnz	copy_data0
   599                           
   600                           ; Clear objects allocated to BIGRAM (1109 bytes)
   601  01173E  EE00  F0FF         	lfsr	0,__pbssBIGRAM
   602  011742  EE14 F055          	lfsr	1,1109
   603  011746                     clear_0:
   604  011746  6AEE               	clrf	postinc0,c
   605  011748  50E5               	movf	postdec1,w,c
   606  01174A  50E1               	movf	fsr1l,w,c
   607  01174C  E1FC               	bnz	clear_0
   608  01174E  50E2               	movf	fsr1h,w,c
   609  011750  E1FA               	bnz	clear_0
   610                           
   611                           ; Clear objects allocated to BANK0 (102 bytes)
   612  011752  EE00  F060         	lfsr	0,__pbssBANK0
   613  011756  0E66               	movlw	102
   614  011758                     clear_1:
   615  011758  6AEE               	clrf	postinc0,c
   616  01175A  06E8               	decf	wreg,f,c
   617  01175C  E1FD               	bnz	clear_1
   618                           
   619                           ; Clear objects allocated to COMRAM (5 bytes)
   620  01175E  6A5A               	clrf	(__pbssCOMRAM+4)& (0+255),c
   621  011760  6A59               	clrf	(__pbssCOMRAM+3)& (0+255),c
   622  011762  6A58               	clrf	(__pbssCOMRAM+2)& (0+255),c
   623  011764  6A57               	clrf	(__pbssCOMRAM+1)& (0+255),c
   624  011766  6A56               	clrf	__pbssCOMRAM& (0+255),c
   625  011768                     end_of_initialization:
   626                           	callstack 0
   627  011768                     __end_of__initialization:
   628                           	callstack 0
   629  011768  905B               	bcf	int$flags,0,c	;clear compiler interrupt flag (level 1)
   630  01176A  925B               	bcf	int$flags,1,c	;clear compiler interrupt flag (level 2)
   631  01176C  0100               	movlb	0
   632  01176E  EFD0  F08C         	goto	_main	;jump to C main() function
   633                           
   634                           	psect	bssCOMRAM
   635  000056                     __pbssCOMRAM:
   636                           	callstack 0
   637  000056                     ___freelist:
   638                           	callstack 0
   639  000056                     	ds	2
   640  000058                     _Timer1:
   641                           	callstack 0
   642  000058                     	ds	2
   643  00005A                     _DiskInitialized:
   644                           	callstack 0
   645  00005A                     	ds	1
   646                           
   647                           	psect	bssBANK0
   648  000060                     __pbssBANK0:
   649                           	callstack 0
   650  000060                     _I2C1_Status:
   651                           	callstack 0
   652  000060                     	ds	42
   653  00008A                     	ds	8
   654  000092                     malloc@lock:
   655                           	callstack 0
   656  000092                     	ds	4
   657  000096                     _brkp:
   658                           	callstack 0
   659  000096                     	ds	2
   660  000098                     _errno:
   661                           	callstack 0
   662  000098                     	ds	2
   663  00009A                     malloc@end:
   664                           	callstack 0
   665  00009A                     	ds	2
   666  00009C                     malloc@cur:
   667                           	callstack 0
   668  00009C                     	ds	2
   669  00009E                     	ds	2
   670  0000A0                     _Fsid:
   671                           	callstack 0
   672  0000A0                     	ds	2
   673  0000A2                     _FatFs:
   674                           	callstack 0
   675  0000A2                     	ds	2
   676  0000A4                     _CardType:
   677                           	callstack 0
   678  0000A4                     	ds	2
   679  0000A6                     _Timer2:
   680                           	callstack 0
   681  0000A6                     	ds	2
   682  0000A8                     _RTCDRV_MODE:
   683                           	callstack 0
   684  0000A8                     	ds	1
   685  0000A9                     _CurrVol:
   686                           	callstack 0
   687  0000A9                     	ds	1
   688  0000AA                     _DiskWP:
   689                           	callstack 0
   690  0000AA                     	ds	1
   691  0000AB                     asctime@buf:
   692                           	callstack 0
   693  0000AB                     	ds	27
   694                           
   695                           	psect	dataBANK0
   696  0000EF                     __pdataBANK0:
   697                           	callstack 0
   698  0000EF                     FatFsDemo_Tasks@F262:
   699                           	callstack 0
   700  0000EF                     	ds	13
   701                           
   702                           	psect	bssBIGRAM
   703  0000FF                     __pbssBIGRAM:
   704                           	callstack 0
   705  0000FF                     _drive:
   706                           	callstack 0
   707  0000FF                     	ds	563
   708  000332                     _file:
   709                           	callstack 0
   710  000332                     	ds	546
   711                           
   712                           	psect	cstackBANK0
   713  0000C6                     __pcstackBANK0:
   714                           	callstack 0
   715  0000C6                     rtcGetAClk@bufferOut:
   716                           	callstack 0
   717  0000C6                     rtcGetClk@bufferOut:
   718                           	callstack 0
   719                           
   720                           ; 8 bytes @ 0x0
   721  0000C6                     	ds	2
   722  0000C8                     rtcGetAClk@outSize:
   723                           	callstack 0
   724                           
   725                           ; 2 bytes @ 0x2
   726  0000C8                     	ds	2
   727  0000CA                     rtcGetAClk@t:
   728                           	callstack 0
   729                           
   730                           ; 24 bytes @ 0x4
   731  0000CA                     	ds	4
   732  0000CE                     rtcGetClk@t:
   733                           	callstack 0
   734                           
   735                           ; 24 bytes @ 0x8
   736  0000CE                     	ds	24
   737  0000E6                     processRTC@argCount:
   738                           	callstack 0
   739                           
   740                           ; 1 bytes @ 0x20
   741  0000E6                     	ds	1
   742  0000E7                     ??_processRTC:
   743                           
   744                           ; 1 bytes @ 0x21
   745  0000E7                     	ds	2
   746  0000E9                     processRTC@cmd:
   747                           	callstack 0
   748                           
   749                           ; 1 bytes @ 0x23
   750  0000E9                     	ds	1
   751  0000EA                     rtcdrv_poll@x:
   752                           	callstack 0
   753                           
   754                           ; 2 bytes @ 0x24
   755  0000EA                     	ds	2
   756  0000EC                     rtcdrv_poll@x_4253:
   757                           	callstack 0
   758                           
   759                           ; 2 bytes @ 0x26
   760  0000EC                     	ds	2
   761  0000EE                     rtcdrv_poll@d:
   762                           	callstack 0
   763                           
   764                           ; 1 bytes @ 0x28
   765  0000EE                     	ds	1
   766                           
   767                           	psect	cstackCOMRAM
   768  000001                     __pcstackCOMRAM:
   769                           	callstack 0
   770  000001                     DRVA_TMR_ms@n:
   771                           	callstack 0
   772                           
   773                           ; 2 bytes @ 0x0
   774  000001                     	ds	2
   775  000003                     ??_INTERRUPT_InterruptManager:
   776                           
   777                           ; 1 bytes @ 0x2
   778  000003                     	ds	2
   779  000005                     ?_strlen:
   780                           	callstack 0
   781  000005                     ?___simple_search_fl:
   782                           	callstack 0
   783  000005                     ?___expand_heap:
   784                           	callstack 0
   785  000005                     ?___wmul:
   786                           	callstack 0
   787  000005                     ?___awdiv:
   788                           	callstack 0
   789  000005                     ?___awmod:
   790                           	callstack 0
   791  000005                     I2C1_Open@address:
   792                           	callstack 0
   793  000005                     I2C1_Close@returnValue:
   794                           	callstack 0
   795  000005                     I2C1_MasterSendTxData@data:
   796                           	callstack 0
   797  000005                     processDRV@argCount:
   798                           	callstack 0
   799  000005                     I2C1_SetBuffer@buffer:
   800                           	callstack 0
   801  000005                     sendBuffer@buff:
   802                           	callstack 0
   803  000005                     getBuffer@bufferSize:
   804                           	callstack 0
   805  000005                     ___wmul@multiplier:
   806                           	callstack 0
   807  000005                     ___awdiv@dividend:
   808                           	callstack 0
   809  000005                     ___awmod@dividend:
   810                           	callstack 0
   811  000005                     ___simple_search_fl@n:
   812                           	callstack 0
   813  000005                     free@ptr:
   814                           	callstack 0
   815  000005                     ___expand_heap@pn:
   816                           	callstack 0
   817  000005                     strlen@s:
   818                           	callstack 0
   819  000005                     I2C1_SetCallback@cb:
   820                           	callstack 0
   821  000005                     TMR0_SetInterruptHandler@InterruptHandler:
   822                           	callstack 0
   823                           
   824                           ; 3 bytes @ 0x4
   825  000005                     	ds	1
   826  000006                     I2C1_Open@returnValue:
   827                           	callstack 0
   828                           
   829                           ; 1 bytes @ 0x5
   830  000006                     	ds	1
   831  000007                     ??_free:
   832  000007                     ??___simple_search_fl:
   833  000007                     ??___expand_heap:
   834  000007                     I2C1_SetBuffer@bufferSize:
   835                           	callstack 0
   836  000007                     sendBuffer@size:
   837                           	callstack 0
   838  000007                     getBuffer@buffer:
   839                           	callstack 0
   840  000007                     ___wmul@multiplicand:
   841                           	callstack 0
   842  000007                     ___awdiv@divisor:
   843                           	callstack 0
   844  000007                     ___awmod@divisor:
   845                           	callstack 0
   846  000007                     strlen@a:
   847                           	callstack 0
   848                           
   849                           ; 2 bytes @ 0x6
   850  000007                     	ds	1
   851  000008                     I2C1_SetCallback@ptr:
   852                           	callstack 0
   853                           
   854                           ; 2 bytes @ 0x7
   855  000008                     	ds	1
   856  000009                     ___awdiv@counter:
   857                           	callstack 0
   858  000009                     ___awmod@counter:
   859                           	callstack 0
   860  000009                     sendBuffer@i:
   861                           	callstack 0
   862  000009                     getBuffer@i:
   863                           	callstack 0
   864  000009                     ___wmul@product:
   865                           	callstack 0
   866  000009                     ___expand_heap@n:
   867                           	callstack 0
   868                           
   869                           ; 2 bytes @ 0x8
   870  000009                     	ds	1
   871  00000A                     I2C1_SetCallback@idx:
   872                           	callstack 0
   873  00000A                     ___awdiv@sign:
   874                           	callstack 0
   875  00000A                     ___awmod@sign:
   876                           	callstack 0
   877                           
   878                           ; 1 bytes @ 0x9
   879  00000A                     	ds	1
   880  00000B                     sendBuffer@x:
   881                           	callstack 0
   882  00000B                     getBuffer@x:
   883                           	callstack 0
   884  00000B                     ___awdiv@quotient:
   885                           	callstack 0
   886  00000B                     ___simple_search_fl@remaining_size:
   887                           	callstack 0
   888  00000B                     free@cptr:
   889                           	callstack 0
   890  00000B                     ___expand_heap@new_brkp:
   891                           	callstack 0
   892  00000B                     I2C1_SetDataCompleteCallback@cb:
   893                           	callstack 0
   894  00000B                     I2C1_SetAddressNackCallback@cb:
   895                           	callstack 0
   896                           
   897                           ; 3 bytes @ 0xA
   898  00000B                     	ds	2
   899  00000D                     sendBuffer@x_4173:
   900                           	callstack 0
   901  00000D                     getBuffer@x_4194:
   902                           	callstack 0
   903  00000D                     put2d@cp:
   904                           	callstack 0
   905  00000D                     ___simple_search_fl@best_last:
   906                           	callstack 0
   907  00000D                     free@c:
   908                           	callstack 0
   909                           
   910                           ; 2 bytes @ 0xC
   911  00000D                     	ds	1
   912  00000E                     I2C1_SetDataCompleteCallback@ptr:
   913                           	callstack 0
   914  00000E                     I2C1_SetAddressNackCallback@ptr:
   915                           	callstack 0
   916                           
   917                           ; 2 bytes @ 0xD
   918  00000E                     	ds	1
   919  00000F                     put2d@i:
   920                           	callstack 0
   921  00000F                     sendBuffer@x_4182:
   922                           	callstack 0
   923  00000F                     getArgs@argsCount:
   924                           	callstack 0
   925  00000F                     ___simple_search_fl@split:
   926                           	callstack 0
   927                           
   928                           ; 2 bytes @ 0xE
   929  00000F                     	ds	1
   930  000010                     put2d@cl:
   931                           	callstack 0
   932  000010                     rd1RegCompleteHandler@ptr:
   933                           	callstack 0
   934  000010                     rd2RegCompleteHandler@ptr:
   935                           	callstack 0
   936  000010                     wr1RegCompleteHandler@ptr:
   937                           	callstack 0
   938  000010                     wr2RegCompleteHandler@ptr:
   939                           	callstack 0
   940  000010                     rdBlkRegCompleteHandler@ptr:
   941                           	callstack 0
   942  000010                     I2C1_CallbackReturnReset@funPtr:
   943                           	callstack 0
   944                           
   945                           ; 2 bytes @ 0xF
   946  000010                     	ds	1
   947  000011                     put2d@ct:
   948                           	callstack 0
   949  000011                     sendBuffer@x_4183:
   950                           	callstack 0
   951  000011                     getArgs@buffer:
   952                           	callstack 0
   953  000011                     ___simple_search_fl@last:
   954                           	callstack 0
   955                           
   956                           ; 2 bytes @ 0x10
   957  000011                     	ds	1
   958  000012                     ??_I2C1_DO_TX:
   959  000012                     ??_I2C1_DO_RX:
   960  000012                     ??_I2C1_DO_TX_EMPTY:
   961  000012                     ??_I2C1_DO_ADDRESS_NACK:
   962  000012                     ?_asctime:
   963                           	callstack 0
   964  000012                     asctime@tim:
   965                           	callstack 0
   966                           
   967                           ; 2 bytes @ 0x11
   968  000012                     	ds	1
   969  000013                     sendBufferLen@bufferLen:
   970                           	callstack 0
   971  000013                     ___simple_search_fl@next:
   972                           	callstack 0
   973                           
   974                           ; 2 bytes @ 0x12
   975  000013                     	ds	1
   976  000014                     I2C1_MasterOperation@read:
   977                           	callstack 0
   978  000014                     _asctime$5318:
   979                           	callstack 0
   980                           
   981                           ; 1 bytes @ 0x13
   982  000014                     	ds	1
   983  000015                     I2C1_MasterOperation@returnValue:
   984                           	callstack 0
   985  000015                     _asctime$5319:
   986                           	callstack 0
   987  000015                     sendBufferLen@outbuff:
   988                           	callstack 0
   989  000015                     ___simple_search_fl@c:
   990                           	callstack 0
   991                           
   992                           ; 2 bytes @ 0x14
   993  000015                     	ds	1
   994  000016                     I2C1_Read1ByteRegister@reg:
   995                           	callstack 0
   996  000016                     I2C1_Write1ByteRegister@reg:
   997                           	callstack 0
   998  000016                     asctime@s:
   999                           	callstack 0
  1000                           
  1001                           ; 2 bytes @ 0x15
  1002  000016                     	ds	1
  1003  000017                     I2C1_Read1ByteRegister@address:
  1004                           	callstack 0
  1005  000017                     I2C1_Write1ByteRegister@data:
  1006                           	callstack 0
  1007  000017                     ___simple_search_fl@best:
  1008                           	callstack 0
  1009                           
  1010                           ; 2 bytes @ 0x16
  1011  000017                     	ds	1
  1012  000018                     I2C1_Read1ByteRegister@returnValue:
  1013                           	callstack 0
  1014  000018                     I2C1_Write1ByteRegister@address:
  1015                           	callstack 0
  1016  000018                     asctime@cp:
  1017                           	callstack 0
  1018                           
  1019                           ; 2 bytes @ 0x17
  1020  000018                     	ds	1
  1021  000019                     ?_malloc:
  1022                           	callstack 0
  1023  000019                     ?_ReadClock:
  1024                           	callstack 0
  1025  000019                     SetClock@month:
  1026                           	callstack 0
  1027  000019                     malloc@n:
  1028                           	callstack 0
  1029                           
  1030                           ; 2 bytes @ 0x18
  1031  000019                     	ds	1
  1032  00001A                     SetClock@dayOfMonth:
  1033                           	callstack 0
  1034                           
  1035                           ; 1 bytes @ 0x19
  1036  00001A                     	ds	1
  1037  00001B                     ??_malloc:
  1038  00001B                     SetClock@dayOfWeek:
  1039                           	callstack 0
  1040                           
  1041                           ; 1 bytes @ 0x1A
  1042  00001B                     	ds	1
  1043  00001C                     SetClock@hour:
  1044                           	callstack 0
  1045                           
  1046                           ; 1 bytes @ 0x1B
  1047  00001C                     	ds	1
  1048  00001D                     SetClock@minute:
  1049                           	callstack 0
  1050  00001D                     malloc@m:
  1051                           	callstack 0
  1052                           
  1053                           ; 2 bytes @ 0x1C
  1054  00001D                     	ds	1
  1055  00001E                     SetClock@second:
  1056                           	callstack 0
  1057                           
  1058                           ; 1 bytes @ 0x1D
  1059  00001E                     	ds	1
  1060  00001F                     SetClock@secOPlace:
  1061                           	callstack 0
  1062  00001F                     malloc@sz:
  1063                           	callstack 0
  1064                           
  1065                           ; 2 bytes @ 0x1E
  1066  00001F                     	ds	1
  1067  000020                     SetClock@minOPlace:
  1068                           	callstack 0
  1069                           
  1070                           ; 1 bytes @ 0x1F
  1071  000020                     	ds	1
  1072  000021                     SetClock@hourOPlace:
  1073                           	callstack 0
  1074  000021                     malloc@p:
  1075                           	callstack 0
  1076                           
  1077                           ; 2 bytes @ 0x20
  1078  000021                     	ds	1
  1079  000022                     SetClock@dayOMOPlace:
  1080                           	callstack 0
  1081                           
  1082                           ; 1 bytes @ 0x21
  1083  000022                     	ds	1
  1084  000023                     SetClock@monthOPlace:
  1085                           	callstack 0
  1086  000023                     malloc@new:
  1087                           	callstack 0
  1088                           
  1089                           ; 2 bytes @ 0x22
  1090  000023                     	ds	1
  1091  000024                     SetClock@yearOPlace:
  1092                           	callstack 0
  1093                           
  1094                           ; 1 bytes @ 0x23
  1095  000024                     	ds	1
  1096  000025                     SetClock@secToWrite:
  1097                           	callstack 0
  1098                           
  1099                           ; 1 bytes @ 0x24
  1100  000025                     	ds	1
  1101  000026                     SetClock@minToWrite:
  1102                           	callstack 0
  1103                           
  1104                           ; 1 bytes @ 0x25
  1105  000026                     	ds	1
  1106  000027                     SetClock@hourToWrite:
  1107                           	callstack 0
  1108                           
  1109                           ; 1 bytes @ 0x26
  1110  000027                     	ds	1
  1111  000028                     SetClock@dayOfMonthToWrite:
  1112                           	callstack 0
  1113                           
  1114                           ; 1 bytes @ 0x27
  1115  000028                     	ds	1
  1116  000029                     SetClock@monthToWrite:
  1117                           	callstack 0
  1118                           
  1119                           ; 1 bytes @ 0x28
  1120  000029                     	ds	1
  1121  00002A                     SetClock@yearToWrite:
  1122                           	callstack 0
  1123                           
  1124                           ; 1 bytes @ 0x29
  1125  00002A                     	ds	1
  1126  00002B                     SetClock@year:
  1127                           	callstack 0
  1128                           
  1129                           ; 1 bytes @ 0x2A
  1130  00002B                     	ds	1
  1131  00002C                     SetClock@secTPlace:
  1132                           	callstack 0
  1133                           
  1134                           ; 1 bytes @ 0x2B
  1135  00002C                     	ds	1
  1136  00002D                     SetClock@minTPlace:
  1137                           	callstack 0
  1138                           
  1139                           ; 1 bytes @ 0x2C
  1140  00002D                     	ds	1
  1141  00002E                     SetClock@hourTPlace:
  1142                           	callstack 0
  1143                           
  1144                           ; 1 bytes @ 0x2D
  1145  00002E                     	ds	1
  1146  00002F                     SetClock@dayOMTPlace:
  1147                           	callstack 0
  1148                           
  1149                           ; 1 bytes @ 0x2E
  1150  00002F                     	ds	1
  1151  000030                     SetClock@monthTPlace:
  1152                           	callstack 0
  1153                           
  1154                           ; 1 bytes @ 0x2F
  1155  000030                     	ds	1
  1156  000031                     ??_ReadClock:
  1157  000031                     SetClock@yearTPlace:
  1158                           	callstack 0
  1159                           
  1160                           ; 1 bytes @ 0x30
  1161  000031                     	ds	1
  1162  000032                     ??_rtcSetClk:
  1163                           
  1164                           ; 1 bytes @ 0x31
  1165  000032                     	ds	1
  1166  000033                     rtcSetClk@argCount:
  1167                           	callstack 0
  1168                           
  1169                           ; 1 bytes @ 0x32
  1170  000033                     	ds	1
  1171  000034                     rtcSetClk@argBuffer:
  1172                           	callstack 0
  1173                           
  1174                           ; 2 bytes @ 0x33
  1175  000034                     	ds	1
  1176  000035                     ReadClock@weekday:
  1177                           	callstack 0
  1178                           
  1179                           ; 1 bytes @ 0x34
  1180  000035                     	ds	1
  1181  000036                     ReadClock@sec:
  1182                           	callstack 0
  1183  000036                     rtcSetClk@buffer:
  1184                           	callstack 0
  1185                           
  1186                           ; 2 bytes @ 0x35
  1187  000036                     	ds	1
  1188  000037                     ReadClock@min:
  1189                           	callstack 0
  1190                           
  1191                           ; 1 bytes @ 0x36
  1192  000037                     	ds	1
  1193  000038                     ReadClock@hour:
  1194                           	callstack 0
  1195                           
  1196                           ; 1 bytes @ 0x37
  1197  000038                     	ds	1
  1198  000039                     ReadClock@day:
  1199                           	callstack 0
  1200                           
  1201                           ; 1 bytes @ 0x38
  1202  000039                     	ds	1
  1203  00003A                     ReadClock@month:
  1204                           	callstack 0
  1205                           
  1206                           ; 1 bytes @ 0x39
  1207  00003A                     	ds	1
  1208  00003B                     ReadClock@year:
  1209                           	callstack 0
  1210                           
  1211                           ; 1 bytes @ 0x3A
  1212  00003B                     	ds	1
  1213  00003C                     ReadClock@t:
  1214                           	callstack 0
  1215                           
  1216                           ; 24 bytes @ 0x3B
  1217  00003C                     	ds	24
  1218  000054                     ??_rtcGetAClk:
  1219  000054                     
  1220                           ; 1 bytes @ 0x53
  1221  000054                     	ds	2
  1222  000056                     
  1223                           ; 1 bytes @ 0x55
  1224 ;;
  1225 ;;Main: autosize = 0, tempsize = 0, incstack = 0, save=0
  1226 ;;
  1227 ;; *************** function _main *****************
  1228 ;; Defined at:
  1229 ;;		line 34 in file "main.c"
  1230 ;; Parameters:    Size  Location     Type
  1231 ;;		None
  1232 ;; Auto vars:     Size  Location     Type
  1233 ;;		None
  1234 ;; Return value:  Size  Location     Type
  1235 ;;                  1    wreg      void 
  1236 ;; Registers used:
  1237 ;;		wreg, fsr0l, fsr0h, fsr1l, fsr1h, fsr2l, fsr2h, status,2, status,0, pcl, pclath, pclatu, tosl, tblptrl, tblptrh, tbl
      +ptru, prodl, prodh, cstack
  1238 ;; Tracked objects:
  1239 ;;		On entry : 0/0
  1240 ;;		On exit  : 0/0
  1241 ;;		Unchanged: 0/0
  1242 ;; Data sizes:     COMRAM   BANK0   BANK1   BANK2   BANK3   BANK4   BANK5   BANK6   BANK7   BANK8   BANK9  BANK10  BANK1
      +1  BANK12  BANK13  BANK14
  1243 ;;      Params:         0       0       0       0       0       0       0       0       0       0       0       0       
      +0       0       0       0
  1244 ;;      Locals:         0       0       0       0       0       0       0       0       0       0       0       0       
      +0       0       0       0
  1245 ;;      Temps:          0       0       0       0       0       0       0       0       0       0       0       0       
      +0       0       0       0
  1246 ;;      Totals:         0       0       0       0       0       0       0       0       0       0       0       0       
      +0       0       0       0
  1247 ;;Total ram usage:        0 bytes
  1248 ;; Hardware stack levels required when called: 17
  1249 ;; This function calls:
  1250 ;;		_SYSTEM_Initialize
  1251 ;;		_TMR0_SetInterruptHandler
  1252 ;;		_TMR0_StartTimer
  1253 ;;		_rtcdrv_poll
  1254 ;; This function is called by:
  1255 ;;		Startup code after reset
  1256 ;; This function uses a non-reentrant model
  1257 ;;
  1258                           
  1259                           	psect	text0
  1260  0119A0                     __ptext0:
  1261                           	callstack 0
  1262  0119A0                     _main:
  1263                           	callstack 14
  1264  0119A0                     
  1265                           ;main.c: 39:     SYSTEM_Initialize();
  1266  0119A0  EC62  F08D         	call	_SYSTEM_Initialize	;wreg free
  1267                           
  1268                           ;main.c: 41:     TMR0_SetInterruptHandler(DRVA_TMR_ms);
  1269  0119A4  0E72               	movlw	low _DRVA_TMR_ms
  1270  0119A6  6E05               	movwf	TMR0_SetInterruptHandler@InterruptHandler^0,c
  1271  0119A8  0E17               	movlw	high _DRVA_TMR_ms
  1272  0119AA  6E06               	movwf	(TMR0_SetInterruptHandler@InterruptHandler+1)^0,c
  1273  0119AC  0E01               	movlw	low (_DRVA_TMR_ms shr (0+16))
  1274  0119AE  6E07               	movwf	(TMR0_SetInterruptHandler@InterruptHandler+2)^0,c
  1275  0119B0  ECE1  F08D         	call	_TMR0_SetInterruptHandler	;wreg free
  1276  0119B4                     
  1277                           ;main.c: 42:     (INTCONbits.GIE = 1);
  1278  0119B4  8EF2               	bsf	242,7,c	;volatile
  1279  0119B6                     
  1280                           ;main.c: 43:     (INTCONbits.PEIE = 1);
  1281  0119B6  8CF2               	bsf	242,6,c	;volatile
  1282  0119B8                     
  1283                           ;main.c: 44:     TMR0_StartTimer();
  1284  0119B8  EC49  F08E         	call	_TMR0_StartTimer	;wreg free
  1285  0119BC                     l13464:
  1286                           
  1287                           ;main.c: 47:         rtcdrv_poll();
  1288  0119BC  ECA5  F087         	call	_rtcdrv_poll	;wreg free
  1289  0119C0  EFDE  F08C         	goto	l13464
  1290  0119C4  EF32  F000         	goto	start
  1291  0119C8                     __end_of_main:
  1292                           	callstack 0
  1293                           
  1294 ;; *************** function _rtcdrv_poll *****************
  1295 ;; Defined at:
  1296 ;;		line 87 in file "rtcdrv.c"
  1297 ;; Parameters:    Size  Location     Type
  1298 ;;		None
  1299 ;; Auto vars:     Size  Location     Type
  1300 ;;  x               2   38[BANK0 ] int 
  1301 ;;  x               2   36[BANK0 ] int 
  1302 ;;  d               1   40[BANK0 ] struct RTCDRV_DATA_
  1303 ;; Return value:  Size  Location     Type
  1304 ;;                  1    wreg      void 
  1305 ;; Registers used:
  1306 ;;		wreg, fsr0l, fsr0h, fsr1l, fsr1h, fsr2l, fsr2h, status,2, status,0, pcl, pclath, pclatu, tosl, tblptrl, tblptrh, tbl
      +ptru, prodl, prodh, cstack
  1307 ;; Tracked objects:
  1308 ;;		On entry : 0/0
  1309 ;;		On exit  : 0/0
  1310 ;;		Unchanged: 0/0
  1311 ;; Data sizes:     COMRAM   BANK0   BANK1   BANK2   BANK3   BANK4   BANK5   BANK6   BANK7   BANK8   BANK9  BANK10  BANK1
      +1  BANK12  BANK13  BANK14
  1312 ;;      Params:         0       0       0       0       0       0       0       0       0       0       0       0       
      +0       0       0       0
  1313 ;;      Locals:         0       5       0       0       0       0       0       0       0       0       0       0       
      +0       0       0       0
  1314 ;;      Temps:          0       0       0       0       0       0       0       0       0       0       0       0       
      +0       0       0       0
  1315 ;;      Totals:         0       5       0       0       0       0       0       0       0       0       0       0       
      +0       0       0       0
  1316 ;;Total ram usage:        5 bytes
  1317 ;; Hardware stack levels used: 1
  1318 ;; Hardware stack levels required when called: 16
  1319 ;; This function calls:
  1320 ;;		_processDRV
  1321 ;;		_processRTC
  1322 ;; This function is called by:
  1323 ;;		_main
  1324 ;; This function uses a non-reentrant model
  1325 ;;
  1326                           
  1327                           	psect	text1
  1328  010F4A                     __ptext1:
  1329                           	callstack 0
  1330  010F4A                     _rtcdrv_poll:
  1331                           	callstack 14
  1332  010F4A                     
  1333                           ;rtcdrv.c: 88:     if (!PORTCbits.RC1) {
  1334  010F4A  B28F               	btfsc	143,1,c	;volatile
  1335  010F4C  EFAA  F087         	goto	u15591
  1336  010F50  EFAC  F087         	goto	u15590
  1337  010F54                     u15591:
  1338  010F54  EFF9  F087         	goto	l1993
  1339  010F58                     u15590:
  1340  010F58                     
  1341                           ;rtcdrv.c: 90:         RTCDRV_DATA d;;rtcdrv.c: 91:         d.data = PORTA;
  1342  010F58  CF8D F0EE          	movff	3981,rtcdrv_poll@d	;volatile
  1343  010F5C                     
  1344                           ;rtcdrv.c: 92:         for (int x = 0; x < 500; ++x) __nop();;do { LATCbits.LATC0 = 0; }
      +                           while(0);for (int x = 0; x < 500; ++x) __nop();;do { LATCbits.LATC0 = 1; } while(0);;
  1345  010F5C  0E00               	movlw	0
  1346  010F5E  0100               	movlb	0	; () banked
  1347  010F60  6FEB               	movwf	(rtcdrv_poll@x+1)& (0+255),b
  1348  010F62  0E00               	movlw	0
  1349  010F64  6FEA               	movwf	rtcdrv_poll@x& (0+255),b
  1350  010F66                     l1983:
  1351                           
  1352                           ; BSR set to: 0
  1353  010F66  F000               	nop	
  1354  010F68  0100               	movlb	0	; () banked
  1355  010F6A  4BEA               	infsnz	rtcdrv_poll@x& (0+255),f,b
  1356  010F6C  2BEB               	incf	(rtcdrv_poll@x+1)& (0+255),f,b
  1357  010F6E                     
  1358                           ; BSR set to: 0
  1359  010F6E  BFEB               	btfsc	(rtcdrv_poll@x+1)& (0+255),7,b
  1360  010F70  EFC3  F087         	goto	u15601
  1361  010F74  0EF4               	movlw	244
  1362  010F76  5DEA               	subwf	rtcdrv_poll@x& (0+255),w,b
  1363  010F78  0E01               	movlw	1
  1364  010F7A  59EB               	subwfb	(rtcdrv_poll@x+1)& (0+255),w,b
  1365  010F7C  A0D8               	btfss	status,0,c
  1366  010F7E  EFC3  F087         	goto	u15601
  1367  010F82  EFC5  F087         	goto	u15600
  1368  010F86                     u15601:
  1369  010F86  EFB3  F087         	goto	l1983
  1370  010F8A                     u15600:
  1371  010F8A                     
  1372                           ; BSR set to: 0
  1373  010F8A  9085               	bcf	133,0,c	;volatile
  1374  010F8C                     
  1375                           ; BSR set to: 0
  1376  010F8C  0E00               	movlw	0
  1377  010F8E  6FED               	movwf	(rtcdrv_poll@x_4253+1)& (0+255),b
  1378  010F90  0E00               	movlw	0
  1379  010F92  6FEC               	movwf	rtcdrv_poll@x_4253& (0+255),b
  1380  010F94                     l1987:
  1381                           
  1382                           ; BSR set to: 0
  1383  010F94  F000               	nop	
  1384  010F96  0100               	movlb	0	; () banked
  1385  010F98  4BEC               	infsnz	rtcdrv_poll@x_4253& (0+255),f,b
  1386  010F9A  2BED               	incf	(rtcdrv_poll@x_4253+1)& (0+255),f,b
  1387  010F9C                     
  1388                           ; BSR set to: 0
  1389  010F9C  BFED               	btfsc	(rtcdrv_poll@x_4253+1)& (0+255),7,b
  1390  010F9E  EFDA  F087         	goto	u15611
  1391  010FA2  0EF4               	movlw	244
  1392  010FA4  5DEC               	subwf	rtcdrv_poll@x_4253& (0+255),w,b
  1393  010FA6  0E01               	movlw	1
  1394  010FA8  59ED               	subwfb	(rtcdrv_poll@x_4253+1)& (0+255),w,b
  1395  010FAA  A0D8               	btfss	status,0,c
  1396  010FAC  EFDA  F087         	goto	u15611
  1397  010FB0  EFDC  F087         	goto	u15610
  1398  010FB4                     u15611:
  1399  010FB4  EFCA  F087         	goto	l1987
  1400  010FB8                     u15610:
  1401  010FB8                     
  1402                           ; BSR set to: 0
  1403  010FB8  8085               	bsf	133,0,c	;volatile
  1404  010FBA                     
  1405                           ; BSR set to: 0
  1406                           ;rtcdrv.c: 94:         if (d.data_part.rtc) {
  1407  010FBA  AFEE               	btfss	rtcdrv_poll@d& (0+255),7,b
  1408  010FBC  EFE2  F087         	goto	u15621
  1409  010FC0  EFE4  F087         	goto	u15620
  1410  010FC4                     u15621:
  1411  010FC4  EFEF  F087         	goto	l13232
  1412  010FC8                     u15620:
  1413  010FC8                     
  1414                           ; BSR set to: 0
  1415                           ;rtcdrv.c: 96:             processRTC(d.data_part.cmd, d.data_part.argCount);
  1416  010FC8  51EE               	movf	rtcdrv_poll@d& (0+255),w,b
  1417  010FCA  0B07               	andlw	7
  1418  010FCC  6FE6               	movwf	processRTC@argCount& (0+255),b
  1419  010FCE  31EE               	rrcf	rtcdrv_poll@d& (0+255),w,b
  1420  010FD0  32E8               	rrcf	wreg,f,c
  1421  010FD2  32E8               	rrcf	wreg,f,c
  1422  010FD4  0B0F               	andlw	15
  1423  010FD6  EC63  F08B         	call	_processRTC
  1424                           
  1425                           ;rtcdrv.c: 97:         } else {
  1426  010FDA  EFF8  F087         	goto	l13234
  1427  010FDE                     l13232:
  1428                           
  1429                           ; BSR set to: 0
  1430                           ;rtcdrv.c: 99:             processDRV(d.data_part.cmd, d.data_part.argCount);
  1431  010FDE  51EE               	movf	rtcdrv_poll@d& (0+255),w,b
  1432  010FE0  0B07               	andlw	7
  1433  010FE2  6E05               	movwf	processDRV@argCount^0,c
  1434  010FE4  31EE               	rrcf	rtcdrv_poll@d& (0+255),w,b
  1435  010FE6  32E8               	rrcf	wreg,f,c
  1436  010FE8  32E8               	rrcf	wreg,f,c
  1437  010FEA  0B0F               	andlw	15
  1438  010FEC  EC4D  F08E         	call	_processDRV
  1439  010FF0                     l13234:
  1440                           
  1441                           ;rtcdrv.c: 101:         TRISA = 0xFF;
  1442  010FF0  6888               	setf	136,c	;volatile
  1443  010FF2                     l1993:
  1444  010FF2  0012               	return		;funcret
  1445  010FF4                     __end_of_rtcdrv_poll:
  1446                           	callstack 0
  1447                           
  1448 ;; *************** function _processRTC *****************
  1449 ;; Defined at:
  1450 ;;		line 69 in file "rtcdrv.c"
  1451 ;; Parameters:    Size  Location     Type
  1452 ;;  cmd             1    wreg     unsigned char 
  1453 ;;  argCount        1   32[BANK0 ] unsigned char 
  1454 ;; Auto vars:     Size  Location     Type
  1455 ;;  cmd             1   35[BANK0 ] unsigned char 
  1456 ;; Return value:  Size  Location     Type
  1457 ;;                  1    wreg      void 
  1458 ;; Registers used:
  1459 ;;		wreg, fsr0l, fsr0h, fsr1l, fsr1h, fsr2l, fsr2h, status,2, status,0, pcl, pclath, pclatu, tosl, tblptrl, tblptrh, tbl
      +ptru, prodl, prodh, cstack
  1460 ;; Tracked objects:
  1461 ;;		On entry : 0/0
  1462 ;;		On exit  : 0/0
  1463 ;;		Unchanged: 0/0
  1464 ;; Data sizes:     COMRAM   BANK0   BANK1   BANK2   BANK3   BANK4   BANK5   BANK6   BANK7   BANK8   BANK9  BANK10  BANK1
      +1  BANK12  BANK13  BANK14
  1465 ;;      Params:         0       1       0       0       0       0       0       0       0       0       0       0       
      +0       0       0       0
  1466 ;;      Locals:         0       1       0       0       0       0       0       0       0       0       0       0       
      +0       0       0       0
  1467 ;;      Temps:          0       2       0       0       0       0       0       0       0       0       0       0       
      +0       0       0       0
  1468 ;;      Totals:         0       4       0       0       0       0       0       0       0       0       0       0       
      +0       0       0       0
  1469 ;;Total ram usage:        4 bytes
  1470 ;; Hardware stack levels used: 1
  1471 ;; Hardware stack levels required when called: 15
  1472 ;; This function calls:
  1473 ;;		_rtcGetAClk
  1474 ;;		_rtcGetClk
  1475 ;;		_rtcSetClk
  1476 ;; This function is called by:
  1477 ;;		_rtcdrv_poll
  1478 ;; This function uses a non-reentrant model
  1479 ;;
  1480                           
  1481                           	psect	text2
  1482  0116C6                     __ptext2:
  1483                           	callstack 0
  1484  0116C6                     _processRTC:
  1485                           	callstack 14
  1486                           
  1487                           ;incstack = 0
  1488                           ;processRTC@cmd stored from wreg
  1489  0116C6  0100               	movlb	0	; () banked
  1490  0116C8  6FE9               	movwf	processRTC@cmd& (0+255),b
  1491  0116CA                     
  1492                           ;rtcdrv.c: 70:     switch(cmd) {
  1493  0116CA  EF74  F08B         	goto	l13038
  1494  0116CE                     l13030:
  1495                           
  1496                           ; BSR set to: 0
  1497                           ;rtcdrv.c: 72:             rtcGetAClk();
  1498  0116CE  EC3E  F089         	call	_rtcGetAClk	;wreg free
  1499                           
  1500                           ;rtcdrv.c: 73:         break;
  1501  0116D2  EF8E  F08B         	goto	l1976
  1502  0116D6                     l13032:
  1503                           
  1504                           ; BSR set to: 0
  1505                           ;rtcdrv.c: 75:             rtcGetClk();
  1506  0116D6  ECEF  F088         	call	_rtcGetClk	;wreg free
  1507                           
  1508                           ;rtcdrv.c: 76:         break;
  1509  0116DA  EF8E  F08B         	goto	l1976
  1510  0116DE                     l13034:
  1511                           
  1512                           ; BSR set to: 0
  1513                           ;rtcdrv.c: 78:             rtcSetClk(argCount);
  1514  0116DE  51E6               	movf	processRTC@argCount& (0+255),w,b
  1515  0116E0  EC32  F085         	call	_rtcSetClk
  1516                           
  1517                           ;rtcdrv.c: 79:             break;
  1518  0116E4  EF8E  F08B         	goto	l1976
  1519  0116E8                     l13038:
  1520  0116E8  0100               	movlb	0	; () banked
  1521  0116EA  51E9               	movf	processRTC@cmd& (0+255),w,b
  1522  0116EC  6FE7               	movwf	??_processRTC& (0+255),b
  1523  0116EE  6BE8               	clrf	(??_processRTC+1)& (0+255),b
  1524                           
  1525                           ; Switch on 2 bytes has been partitioned into a top level switch of size 1, and 1 sub-sw
      +                          itches
  1526                           ; Switch size 1, requested type "simple"
  1527                           ; Number of cases is 1, Range of values is 0 to 0
  1528                           ; switch strategies available:
  1529                           ; Name         Instructions Cycles
  1530                           ; simple_byte            4     3 (average)
  1531                           ;	Chosen strategy is simple_byte
  1532  0116F0  51E8               	movf	(??_processRTC+1)& (0+255),w,b
  1533  0116F2  0A00               	xorlw	0	; case 0
  1534  0116F4  B4D8               	btfsc	status,2,c
  1535  0116F6  EF7F  F08B         	goto	l13566
  1536  0116FA  EF8E  F08B         	goto	l1976
  1537  0116FE                     l13566:
  1538                           
  1539                           ; BSR set to: 0
  1540                           ; Switch size 1, requested type "simple"
  1541                           ; Number of cases is 3, Range of values is 0 to 8
  1542                           ; switch strategies available:
  1543                           ; Name         Instructions Cycles
  1544                           ; simple_byte           10     6 (average)
  1545                           ;	Chosen strategy is simple_byte
  1546  0116FE  51E7               	movf	??_processRTC& (0+255),w,b
  1547  011700  0A00               	xorlw	0	; case 0
  1548  011702  B4D8               	btfsc	status,2,c
  1549  011704  EF67  F08B         	goto	l13030
  1550  011708  0A01               	xorlw	1	; case 1
  1551  01170A  B4D8               	btfsc	status,2,c
  1552  01170C  EF6B  F08B         	goto	l13032
  1553  011710  0A09               	xorlw	9	; case 8
  1554  011712  B4D8               	btfsc	status,2,c
  1555  011714  EF6F  F08B         	goto	l13034
  1556  011718  EF8E  F08B         	goto	l1976
  1557  01171C                     l1976:
  1558  01171C  0012               	return		;funcret
  1559  01171E                     __end_of_processRTC:
  1560                           	callstack 0
  1561                           
  1562 ;; *************** function _rtcSetClk *****************
  1563 ;; Defined at:
  1564 ;;		line 59 in file "rtcdrv.c"
  1565 ;; Parameters:    Size  Location     Type
  1566 ;;  argCount        1    wreg     unsigned char 
  1567 ;; Auto vars:     Size  Location     Type
  1568 ;;  argCount        1   50[COMRAM] unsigned char 
  1569 ;;  buffer          2   53[COMRAM] PTR unsigned char 
  1570 ;;		 -> __heap_hi..(3), __heap_hi(0), RAM(3719), NULL(0), 
  1571 ;;  argBuffer       2   51[COMRAM] PTR unsigned char 
  1572 ;;		 -> __heap_hi..(3), __heap_hi(0), RAM(3719), NULL(0), 
  1573 ;; Return value:  Size  Location     Type
  1574 ;;                  1    wreg      void 
  1575 ;; Registers used:
  1576 ;;		wreg, fsr1l, fsr1h, fsr2l, fsr2h, status,2, status,0, pcl, pclath, pclatu, tosl, tblptrl, tblptrh, tblptru, prodl, p
      +rodh, cstack
  1577 ;; Tracked objects:
  1578 ;;		On entry : 0/0
  1579 ;;		On exit  : 0/0
  1580 ;;		Unchanged: 0/0
  1581 ;; Data sizes:     COMRAM   BANK0   BANK1   BANK2   BANK3   BANK4   BANK5   BANK6   BANK7   BANK8   BANK9  BANK10  BANK1
      +1  BANK12  BANK13  BANK14
  1582 ;;      Params:         0       0       0       0       0       0       0       0       0       0       0       0       
      +0       0       0       0
  1583 ;;      Locals:         5       0       0       0       0       0       0       0       0       0       0       0       
      +0       0       0       0
  1584 ;;      Temps:          1       0       0       0       0       0       0       0       0       0       0       0       
      +0       0       0       0
  1585 ;;      Totals:         6       0       0       0       0       0       0       0       0       0       0       0       
      +0       0       0       0
  1586 ;;Total ram usage:        6 bytes
  1587 ;; Hardware stack levels used: 1
  1588 ;; Hardware stack levels required when called: 14
  1589 ;; This function calls:
  1590 ;;		_SetClock
  1591 ;;		_free
  1592 ;;		_getArgs
  1593 ;;		_getBuffer
  1594 ;;		_malloc
  1595 ;; This function is called by:
  1596 ;;		_processRTC
  1597 ;; This function uses a non-reentrant model
  1598 ;;
  1599                           
  1600                           	psect	text3
  1601  010A64                     __ptext3:
  1602                           	callstack 0
  1603  010A64                     _rtcSetClk:
  1604                           	callstack 14
  1605                           
  1606                           ;incstack = 0
  1607                           ;rtcSetClk@argCount stored from wreg
  1608  010A64  6E33               	movwf	rtcSetClk@argCount^0,c
  1609  010A66                     
  1610                           ;rtcdrv.c: 60:     BYTE * argBuffer = (BYTE *)malloc(argCount);
  1611  010A66  C033  F019         	movff	rtcSetClk@argCount,malloc@n
  1612  010A6A  6A1A               	clrf	(malloc@n+1)^0,c
  1613  010A6C  EC8E  F084         	call	_malloc	;wreg free
  1614  010A70  C019  F034         	movff	?_malloc,rtcSetClk@argBuffer
  1615  010A74  C01A  F035         	movff	?_malloc+1,rtcSetClk@argBuffer+1
  1616  010A78                     
  1617                           ;rtcdrv.c: 61:     getArgs(argCount,argBuffer);
  1618  010A78  C033  F00F         	movff	rtcSetClk@argCount,getArgs@argsCount
  1619  010A7C  6A10               	clrf	(getArgs@argsCount+1)^0,c
  1620  010A7E  C034  F011         	movff	rtcSetClk@argBuffer,getArgs@buffer
  1621  010A82  C035  F012         	movff	rtcSetClk@argBuffer+1,getArgs@buffer+1
  1622  010A86  ECB3  F08D         	call	_getArgs	;wreg free
  1623  010A8A                     
  1624                           ;rtcdrv.c: 62:     BYTE * buffer = (BYTE *)malloc(argBuffer[0]);
  1625  010A8A  C034  FFD9         	movff	rtcSetClk@argBuffer,fsr2l
  1626  010A8E  C035  FFDA         	movff	rtcSetClk@argBuffer+1,fsr2h
  1627  010A92  50DF               	movf	indf2,w,c
  1628  010A94  6E32               	movwf	??_rtcSetClk^0,c
  1629  010A96  5032               	movf	??_rtcSetClk^0,w,c
  1630  010A98  6E19               	movwf	malloc@n^0,c
  1631  010A9A  6A1A               	clrf	(malloc@n+1)^0,c
  1632  010A9C  EC8E  F084         	call	_malloc	;wreg free
  1633  010AA0  C019  F036         	movff	?_malloc,rtcSetClk@buffer
  1634  010AA4  C01A  F037         	movff	?_malloc+1,rtcSetClk@buffer+1
  1635                           
  1636                           ;rtcdrv.c: 63:     getBuffer(argBuffer[0],buffer);
  1637  010AA8  C034  FFD9         	movff	rtcSetClk@argBuffer,fsr2l
  1638  010AAC  C035  FFDA         	movff	rtcSetClk@argBuffer+1,fsr2h
  1639  010AB0  50DF               	movf	indf2,w,c
  1640  010AB2  6E32               	movwf	??_rtcSetClk^0,c
  1641  010AB4  5032               	movf	??_rtcSetClk^0,w,c
  1642  010AB6  6E05               	movwf	getBuffer@bufferSize^0,c
  1643  010AB8  6A06               	clrf	(getBuffer@bufferSize+1)^0,c
  1644  010ABA  C036  F007         	movff	rtcSetClk@buffer,getBuffer@buffer
  1645  010ABE  C037  F008         	movff	rtcSetClk@buffer+1,getBuffer@buffer+1
  1646  010AC2  EC9F  F088         	call	_getBuffer	;wreg free
  1647  010AC6                     
  1648                           ;rtcdrv.c: 64:     SetClock((size_t)(((size_t)buffer[0]*100)+buffer[1]),buffer[2],buffer
      +                          [3],buffer[4],buffer[5],buffer[6],buffer[7]);
  1649  010AC6  EE20 F002          	lfsr	2,2
  1650  010ACA  5036               	movf	rtcSetClk@buffer^0,w,c
  1651  010ACC  26D9               	addwf	fsr2l,f,c
  1652  010ACE  5037               	movf	(rtcSetClk@buffer+1)^0,w,c
  1653  010AD0  22DA               	addwfc	fsr2h,f,c
  1654  010AD2  50DF               	movf	indf2,w,c
  1655  010AD4  6E19               	movwf	SetClock@month^0,c
  1656  010AD6  EE20 F003          	lfsr	2,3
  1657  010ADA  5036               	movf	rtcSetClk@buffer^0,w,c
  1658  010ADC  26D9               	addwf	fsr2l,f,c
  1659  010ADE  5037               	movf	(rtcSetClk@buffer+1)^0,w,c
  1660  010AE0  22DA               	addwfc	fsr2h,f,c
  1661  010AE2  50DF               	movf	indf2,w,c
  1662  010AE4  6E1A               	movwf	SetClock@dayOfMonth^0,c
  1663  010AE6  EE20 F004          	lfsr	2,4
  1664  010AEA  5036               	movf	rtcSetClk@buffer^0,w,c
  1665  010AEC  26D9               	addwf	fsr2l,f,c
  1666  010AEE  5037               	movf	(rtcSetClk@buffer+1)^0,w,c
  1667  010AF0  22DA               	addwfc	fsr2h,f,c
  1668  010AF2  50DF               	movf	indf2,w,c
  1669  010AF4  6E1B               	movwf	SetClock@dayOfWeek^0,c
  1670  010AF6  EE20 F005          	lfsr	2,5
  1671  010AFA  5036               	movf	rtcSetClk@buffer^0,w,c
  1672  010AFC  26D9               	addwf	fsr2l,f,c
  1673  010AFE  5037               	movf	(rtcSetClk@buffer+1)^0,w,c
  1674  010B00  22DA               	addwfc	fsr2h,f,c
  1675  010B02  50DF               	movf	indf2,w,c
  1676  010B04  6E1C               	movwf	SetClock@hour^0,c
  1677  010B06  EE20 F006          	lfsr	2,6
  1678  010B0A  5036               	movf	rtcSetClk@buffer^0,w,c
  1679  010B0C  26D9               	addwf	fsr2l,f,c
  1680  010B0E  5037               	movf	(rtcSetClk@buffer+1)^0,w,c
  1681  010B10  22DA               	addwfc	fsr2h,f,c
  1682  010B12  50DF               	movf	indf2,w,c
  1683  010B14  6E1D               	movwf	SetClock@minute^0,c
  1684  010B16  EE20 F007          	lfsr	2,7
  1685  010B1A  5036               	movf	rtcSetClk@buffer^0,w,c
  1686  010B1C  26D9               	addwf	fsr2l,f,c
  1687  010B1E  5037               	movf	(rtcSetClk@buffer+1)^0,w,c
  1688  010B20  22DA               	addwfc	fsr2h,f,c
  1689  010B22  50DF               	movf	indf2,w,c
  1690  010B24  6E1E               	movwf	SetClock@second^0,c
  1691  010B26  EE20 F001          	lfsr	2,1
  1692  010B2A  5036               	movf	rtcSetClk@buffer^0,w,c
  1693  010B2C  26D9               	addwf	fsr2l,f,c
  1694  010B2E  5037               	movf	(rtcSetClk@buffer+1)^0,w,c
  1695  010B30  22DA               	addwfc	fsr2h,f,c
  1696  010B32  50DF               	movf	indf2,w,c
  1697  010B34  6E32               	movwf	??_rtcSetClk^0,c
  1698  010B36  C036  FFD9         	movff	rtcSetClk@buffer,fsr2l
  1699  010B3A  C037  FFDA         	movff	rtcSetClk@buffer+1,fsr2h
  1700  010B3E  50DF               	movf	indf2,w,c
  1701  010B40  0D64               	mullw	100
  1702  010B42  50F3               	movf	243,w,c
  1703  010B44  2432               	addwf	??_rtcSetClk^0,w,c
  1704  010B46  ECE3  F083         	call	_SetClock
  1705  010B4A                     
  1706                           ;rtcdrv.c: 65:     free(argBuffer);
  1707  010B4A  C034  F005         	movff	rtcSetClk@argBuffer,free@ptr
  1708  010B4E  C035  F006         	movff	rtcSetClk@argBuffer+1,free@ptr+1
  1709  010B52  EC30  F083         	call	_free	;wreg free
  1710  010B56                     
  1711                           ;rtcdrv.c: 66:     free(buffer);
  1712  010B56  C036  F005         	movff	rtcSetClk@buffer,free@ptr
  1713  010B5A  C037  F006         	movff	rtcSetClk@buffer+1,free@ptr+1
  1714  010B5E  EC30  F083         	call	_free	;wreg free
  1715  010B62  0012               	return		;funcret
  1716  010B64                     __end_of_rtcSetClk:
  1717                           	callstack 0
  1718                           
  1719 ;; *************** function _malloc *****************
  1720 ;; Defined at:
  1721 ;;		line 16 in file "C:\Program Files\Microchip\xc8\v2.36\pic\sources\c99\common\lite_malloc.c"
  1722 ;; Parameters:    Size  Location     Type
  1723 ;;  n               2   24[COMRAM] unsigned int 
  1724 ;; Auto vars:     Size  Location     Type
  1725 ;;  sz              2   30[COMRAM] PTR unsigned int 
  1726 ;;		 -> __heap_hi..(3), __heap_hi(0), RAM(3719), NULL(0), 
  1727 ;;  new             2   34[COMRAM] PTR unsigned char 
  1728 ;;		 -> __heap_hi(0), RAM(3719), NULL(0), 
  1729 ;;  m               2   28[COMRAM] unsigned int 
  1730 ;;  p               2   32[COMRAM] PTR void 
  1731 ;;		 -> __heap_hi..(3), __heap_hi(0), RAM(3719), NULL(0), 
  1732 ;;  size            2    0        unsigned int 
  1733 ;; Return value:  Size  Location     Type
  1734 ;;                  2   24[COMRAM] PTR void 
  1735 ;; Registers used:
  1736 ;;		wreg, fsr1l, fsr1h, fsr2l, fsr2h, status,2, status,0, cstack
  1737 ;; Tracked objects:
  1738 ;;		On entry : 0/0
  1739 ;;		On exit  : 0/0
  1740 ;;		Unchanged: 0/0
  1741 ;; Data sizes:     COMRAM   BANK0   BANK1   BANK2   BANK3   BANK4   BANK5   BANK6   BANK7   BANK8   BANK9  BANK10  BANK1
      +1  BANK12  BANK13  BANK14
  1742 ;;      Params:         2       0       0       0       0       0       0       0       0       0       0       0       
      +0       0       0       0
  1743 ;;      Locals:         8       0       0       0       0       0       0       0       0       0       0       0       
      +0       0       0       0
  1744 ;;      Temps:          2       0       0       0       0       0       0       0       0       0       0       0       
      +0       0       0       0
  1745 ;;      Totals:        12       0       0       0       0       0       0       0       0       0       0       0       
      +0       0       0       0
  1746 ;;Total ram usage:       12 bytes
  1747 ;; Hardware stack levels used: 1
  1748 ;; Hardware stack levels required when called: 5
  1749 ;; This function calls:
  1750 ;;		___expand_heap
  1751 ;;		___simple_search_fl
  1752 ;; This function is called by:
  1753 ;;		_rtcSetClk
  1754 ;; This function uses a non-reentrant model
  1755 ;;
  1756                           
  1757                           	psect	text4
  1758  01091C                     __ptext4:
  1759                           	callstack 0
  1760  01091C                     _malloc:
  1761                           	callstack 22
  1762  01091C  5019               	movf	malloc@n^0,w,c
  1763  01091E  101A               	iorwf	(malloc@n+1)^0,w,c
  1764  010920  A4D8               	btfss	status,2,c
  1765  010922  EF95  F084         	goto	u15061
  1766  010926  EF97  F084         	goto	u15060
  1767  01092A                     u15061:
  1768  01092A  EF99  F084         	goto	l12868
  1769  01092E                     u15060:
  1770  01092E  4A19               	infsnz	malloc@n^0,f,c
  1771  010930  2A1A               	incf	(malloc@n+1)^0,f,c
  1772  010932                     l12868:
  1773  010932  C09C  F09C         	movff	malloc@cur,malloc@cur
  1774  010936  C09D  F09D         	movff	malloc@cur+1,malloc@cur+1
  1775  01093A  501A               	movf	(malloc@n+1)^0,w,c
  1776  01093C  E107               	bnz	u15071
  1777  01093E  0E04               	movlw	4
  1778  010940  5C19               	subwf	malloc@n^0,w,c
  1779  010942  B0D8               	btfsc	status,0,c
  1780  010944  EFA6  F084         	goto	u15071
  1781  010948  EFA8  F084         	goto	u15070
  1782  01094C                     u15071:
  1783  01094C  EFAC  F084         	goto	l12876
  1784  010950                     u15070:
  1785  010950  0E00               	movlw	0
  1786  010952  6E1A               	movwf	(malloc@n+1)^0,c
  1787  010954  0E04               	movlw	4
  1788  010956  6E19               	movwf	malloc@n^0,c
  1789  010958                     l12876:
  1790  010958  C019  F005         	movff	malloc@n,___simple_search_fl@n
  1791  01095C  C01A  F006         	movff	malloc@n+1,___simple_search_fl@n+1
  1792  010960  EC00  F080         	call	___simple_search_fl	;wreg free
  1793  010964  C005  F021         	movff	?___simple_search_fl,malloc@p
  1794  010968  C006  F022         	movff	?___simple_search_fl+1,malloc@p+1
  1795  01096C  5021               	movf	malloc@p^0,w,c
  1796  01096E  1022               	iorwf	(malloc@p+1)^0,w,c
  1797  010970  A4D8               	btfss	status,2,c
  1798  010972  EFBD  F084         	goto	u15081
  1799  010976  EFBF  F084         	goto	u15080
  1800  01097A                     u15081:
  1801  01097A  EF2D  F085         	goto	l12906
  1802  01097E                     u15080:
  1803  01097E  0100               	movlb	0	; () banked
  1804  010980  519C               	movf	malloc@cur& (0+255),w,b
  1805  010982  5D9A               	subwf	malloc@end& (0+255),w,b
  1806  010984  6E1B               	movwf	??_malloc^0,c
  1807  010986  519D               	movf	(malloc@cur+1)& (0+255),w,b
  1808  010988  599B               	subwfb	(malloc@end+1)& (0+255),w,b
  1809  01098A  6E1C               	movwf	(??_malloc+1)^0,c
  1810  01098C  5019               	movf	malloc@n^0,w,c
  1811  01098E  5C1B               	subwf	??_malloc^0,w,c
  1812  010990  501A               	movf	(malloc@n+1)^0,w,c
  1813  010992  581C               	subwfb	(??_malloc+1)^0,w,c
  1814  010994  B0D8               	btfsc	status,0,c
  1815  010996  EFCF  F084         	goto	u15091
  1816  01099A  EFD1  F084         	goto	u15090
  1817  01099E                     u15091:
  1818  01099E  EF0B  F085         	goto	l2724
  1819  0109A2                     u15090:
  1820  0109A2                     
  1821                           ; BSR set to: 0
  1822  0109A2  0E02               	movlw	2
  1823  0109A4  2419               	addwf	malloc@n^0,w,c
  1824  0109A6  6E1D               	movwf	malloc@m^0,c
  1825  0109A8  0E00               	movlw	0
  1826  0109AA  201A               	addwfc	(malloc@n+1)^0,w,c
  1827  0109AC  6E1E               	movwf	(malloc@m+1)^0,c
  1828  0109AE                     
  1829                           ; BSR set to: 0
  1830  0109AE  0E1D               	movlw	low malloc@m
  1831  0109B0  6E05               	movwf	___expand_heap@pn^0,c
  1832  0109B2  0E00               	movlw	high malloc@m
  1833  0109B4  6E06               	movwf	(___expand_heap@pn+1)^0,c
  1834  0109B6  ECF5  F086         	call	___expand_heap	;wreg free
  1835  0109BA  C005  F023         	movff	?___expand_heap,malloc@new
  1836  0109BE  C006  F024         	movff	?___expand_heap+1,malloc@new+1
  1837  0109C2  5023               	movf	malloc@new^0,w,c
  1838  0109C4  1024               	iorwf	(malloc@new+1)^0,w,c
  1839  0109C6  A4D8               	btfss	status,2,c
  1840  0109C8  EFE8  F084         	goto	u15101
  1841  0109CC  EFEA  F084         	goto	u15100
  1842  0109D0                     u15101:
  1843  0109D0  EFF0  F084         	goto	l12892
  1844  0109D4                     u15100:
  1845  0109D4  0E00               	movlw	0
  1846  0109D6  6E19               	movwf	?_malloc^0,c
  1847  0109D8  0E00               	movlw	0
  1848  0109DA  6E1A               	movwf	(?_malloc+1)^0,c
  1849  0109DC  EF31  F085         	goto	l2726
  1850  0109E0                     l12892:
  1851  0109E0  C023  F023         	movff	malloc@new,malloc@new
  1852  0109E4  C024  F024         	movff	malloc@new+1,malloc@new+1
  1853  0109E8  0100               	movlb	0	; () banked
  1854  0109EA  519A               	movf	malloc@end& (0+255),w,b
  1855  0109EC  1823               	xorwf	malloc@new^0,w,c
  1856  0109EE  E109               	bnz	u15110
  1857  0109F0  519B               	movf	(malloc@end+1)& (0+255),w,b
  1858  0109F2  1824               	xorwf	(malloc@new+1)^0,w,c
  1859  0109F4  B4D8               	btfsc	status,2,c
  1860  0109F6  EFFF  F084         	goto	u15111
  1861  0109FA  EF01  F085         	goto	u15110
  1862  0109FE                     u15111:
  1863  0109FE  EF05  F085         	goto	l2727
  1864  010A02                     u15110:
  1865  010A02                     
  1866                           ; BSR set to: 0
  1867  010A02  C023  F09C         	movff	malloc@new,malloc@cur
  1868  010A06  C024  F09D         	movff	malloc@new+1,malloc@cur+1
  1869  010A0A                     l2727:
  1870                           
  1871                           ; BSR set to: 0
  1872  010A0A  501D               	movf	malloc@m^0,w,c
  1873  010A0C  2423               	addwf	malloc@new^0,w,c
  1874  010A0E  6F9A               	movwf	malloc@end& (0+255),b
  1875  010A10  501E               	movf	(malloc@m+1)^0,w,c
  1876  010A12  2024               	addwfc	(malloc@new+1)^0,w,c
  1877  010A14  6F9B               	movwf	(malloc@end+1)& (0+255),b
  1878  010A16                     l2724:
  1879                           
  1880                           ; BSR set to: 0
  1881  010A16  C09C  F021         	movff	malloc@cur,malloc@p
  1882  010A1A  C09D  F022         	movff	malloc@cur+1,malloc@p+1
  1883  010A1E                     
  1884                           ; BSR set to: 0
  1885  010A1E  C021  F01F         	movff	malloc@p,malloc@sz
  1886  010A22  C022  F020         	movff	malloc@p+1,malloc@sz+1
  1887  010A26                     
  1888                           ; BSR set to: 0
  1889  010A26  C01F  FFD9         	movff	malloc@sz,fsr2l
  1890  010A2A  C020  FFDA         	movff	malloc@sz+1,fsr2h
  1891  010A2E  C019  FFDE         	movff	malloc@n,postinc2
  1892  010A32  C01A  FFDD         	movff	malloc@n+1,postdec2
  1893  010A36                     
  1894                           ; BSR set to: 0
  1895  010A36  0E02               	movlw	2
  1896  010A38  261F               	addwf	malloc@sz^0,f,c
  1897  010A3A  0E00               	movlw	0
  1898  010A3C  2220               	addwfc	(malloc@sz+1)^0,f,c
  1899  010A3E                     
  1900                           ; BSR set to: 0
  1901  010A3E  C01F  F021         	movff	malloc@sz,malloc@p
  1902  010A42  C020  F022         	movff	malloc@sz+1,malloc@p+1
  1903  010A46                     
  1904                           ; BSR set to: 0
  1905  010A46  0E02               	movlw	2
  1906  010A48  2419               	addwf	malloc@n^0,w,c
  1907  010A4A  6E1B               	movwf	??_malloc^0,c
  1908  010A4C  0E00               	movlw	0
  1909  010A4E  201A               	addwfc	(malloc@n+1)^0,w,c
  1910  010A50  6E1C               	movwf	(??_malloc+1)^0,c
  1911  010A52  501B               	movf	??_malloc^0,w,c
  1912  010A54  279C               	addwf	malloc@cur& (0+255),f,b
  1913  010A56  501C               	movf	(??_malloc+1)^0,w,c
  1914  010A58  239D               	addwfc	(malloc@cur+1)& (0+255),f,b
  1915  010A5A                     l12906:
  1916  010A5A  C021  F019         	movff	malloc@p,?_malloc
  1917  010A5E  C022  F01A         	movff	malloc@p+1,?_malloc+1
  1918  010A62                     l2726:
  1919  010A62  0012               	return		;funcret
  1920  010A64                     __end_of_malloc:
  1921                           	callstack 0
  1922                           
  1923 ;; *************** function ___simple_search_fl *****************
  1924 ;; Defined at:
  1925 ;;		line 19 in file "C:\Program Files\Microchip\xc8\v2.36\pic\sources\c99\common\lite_free.c"
  1926 ;; Parameters:    Size  Location     Type
  1927 ;;  n               2    4[COMRAM] unsigned int 
  1928 ;; Auto vars:     Size  Location     Type
  1929 ;;  split           2   14[COMRAM] PTR struct chunk
  1930 ;;		 -> __heap_hi..(3), __heap_hi(0), RAM(3719), NULL(0), 
  1931 ;;  remaining_si    2   10[COMRAM] unsigned int 
  1932 ;;  next            2   18[COMRAM] PTR struct chunk
  1933 ;;		 -> __heap_hi..(3), __heap_hi(0), RAM(3719), NULL(0), 
  1934 ;;  best            2   22[COMRAM] PTR struct chunk
  1935 ;;		 -> __heap_hi..(3), __heap_hi(0), RAM(3719), NULL(0), 
  1936 ;;  c               2   20[COMRAM] PTR struct chunk
  1937 ;;		 -> __heap_hi..(3), __heap_hi(0), RAM(3719), NULL(0), 
  1938 ;;  last            2   16[COMRAM] PTR struct chunk
  1939 ;;		 -> __heap_hi..(3), __heap_hi(0), RAM(3719), NULL(0), 
  1940 ;;  best_last       2   12[COMRAM] PTR struct chunk
  1941 ;;		 -> __heap_hi..(3), __heap_hi(0), RAM(3719), NULL(0), 
  1942 ;; Return value:  Size  Location     Type
  1943 ;;                  2    4[COMRAM] PTR void 
  1944 ;; Registers used:
  1945 ;;		wreg, fsr1l, fsr1h, fsr2l, fsr2h, status,2, status,0
  1946 ;; Tracked objects:
  1947 ;;		On entry : 0/0
  1948 ;;		On exit  : 0/0
  1949 ;;		Unchanged: 0/0
  1950 ;; Data sizes:     COMRAM   BANK0   BANK1   BANK2   BANK3   BANK4   BANK5   BANK6   BANK7   BANK8   BANK9  BANK10  BANK1
      +1  BANK12  BANK13  BANK14
  1951 ;;      Params:         2       0       0       0       0       0       0       0       0       0       0       0       
      +0       0       0       0
  1952 ;;      Locals:        14       0       0       0       0       0       0       0       0       0       0       0       
      +0       0       0       0
  1953 ;;      Temps:          4       0       0       0       0       0       0       0       0       0       0       0       
      +0       0       0       0
  1954 ;;      Totals:        20       0       0       0       0       0       0       0       0       0       0       0       
      +0       0       0       0
  1955 ;;Total ram usage:       20 bytes
  1956 ;; Hardware stack levels used: 1
  1957 ;; Hardware stack levels required when called: 4
  1958 ;; This function calls:
  1959 ;;		Nothing
  1960 ;; This function is called by:
  1961 ;;		_malloc
  1962 ;; This function uses a non-reentrant model
  1963 ;;
  1964                           
  1965                           	psect	text5
  1966  010000                     __ptext5:
  1967                           	callstack 0
  1968  010000                     ___simple_search_fl:
  1969                           	callstack 22
  1970  010000  0E00               	movlw	0
  1971  010002  6E17               	movwf	___simple_search_fl@best^0,c
  1972  010004  0E00               	movlw	0
  1973  010006  6E18               	movwf	(___simple_search_fl@best+1)^0,c
  1974  010008  0E00               	movlw	0
  1975  01000A  6E0D               	movwf	___simple_search_fl@best_last^0,c
  1976  01000C  0E00               	movlw	0
  1977  01000E  6E0E               	movwf	(___simple_search_fl@best_last+1)^0,c
  1978  010010  0E00               	movlw	0
  1979  010012  6E11               	movwf	___simple_search_fl@last^0,c
  1980  010014  0E00               	movlw	0
  1981  010016  6E12               	movwf	(___simple_search_fl@last+1)^0,c
  1982  010018  5056               	movf	___freelist^0,w,c
  1983  01001A  1057               	iorwf	(___freelist+1)^0,w,c
  1984  01001C  A4D8               	btfss	status,2,c
  1985  01001E  EF13  F080         	goto	u14901
  1986  010022  EF15  F080         	goto	u14900
  1987  010026                     u14901:
  1988  010026  EF1B  F080         	goto	l12638
  1989  01002A                     u14900:
  1990  01002A                     l12634:
  1991  01002A  0E00               	movlw	0
  1992  01002C  6E05               	movwf	?___simple_search_fl^0,c
  1993  01002E  0E00               	movlw	0
  1994  010030  6E06               	movwf	(?___simple_search_fl+1)^0,c
  1995  010032  EF3C  F081         	goto	l2683
  1996  010036                     l12638:
  1997  010036  C056  F015         	movff	___freelist,___simple_search_fl@c
  1998  01003A  C057  F016         	movff	___freelist+1,___simple_search_fl@c+1
  1999  01003E  EFA1  F080         	goto	l12664
  2000  010042                     l12640:
  2001  010042  C015  FFD9         	movff	___simple_search_fl@c,fsr2l
  2002  010046  C016  FFDA         	movff	___simple_search_fl@c+1,fsr2h
  2003  01004A  5005               	movf	___simple_search_fl@n^0,w,c
  2004  01004C  18DE               	xorwf	postinc2,w,c
  2005  01004E  E107               	bnz	u14911
  2006  010050  5006               	movf	(___simple_search_fl@n+1)^0,w,c
  2007  010052  18DE               	xorwf	postinc2,w,c
  2008  010054  A4D8               	btfss	status,2,c
  2009  010056  EF2F  F080         	goto	u14911
  2010  01005A  EF31  F080         	goto	u14910
  2011  01005E                     u14911:
  2012  01005E  EF5E  F080         	goto	l12652
  2013  010062                     u14910:
  2014  010062  5011               	movf	___simple_search_fl@last^0,w,c
  2015  010064  1012               	iorwf	(___simple_search_fl@last+1)^0,w,c
  2016  010066  B4D8               	btfsc	status,2,c
  2017  010068  EF38  F080         	goto	u14921
  2018  01006C  EF3A  F080         	goto	u14920
  2019  010070                     u14921:
  2020  010070  EF4C  F080         	goto	l12646
  2021  010074                     u14920:
  2022  010074  EE20 F002          	lfsr	2,2
  2023  010078  5015               	movf	___simple_search_fl@c^0,w,c
  2024  01007A  26D9               	addwf	fsr2l,f,c
  2025  01007C  5016               	movf	(___simple_search_fl@c+1)^0,w,c
  2026  01007E  22DA               	addwfc	fsr2h,f,c
  2027  010080  EE10 F002          	lfsr	1,2
  2028  010084  5011               	movf	___simple_search_fl@last^0,w,c
  2029  010086  26E1               	addwf	fsr1l,f,c
  2030  010088  5012               	movf	(___simple_search_fl@last+1)^0,w,c
  2031  01008A  22E2               	addwfc	fsr1h,f,c
  2032  01008C  CFDE FFE6          	movff	postinc2,postinc1
  2033  010090  CFDD FFE5          	movff	postdec2,postdec1
  2034  010094  EF56  F080         	goto	l12648
  2035  010098                     l12646:
  2036  010098  EE20 F002          	lfsr	2,2
  2037  01009C  5015               	movf	___simple_search_fl@c^0,w,c
  2038  01009E  26D9               	addwf	fsr2l,f,c
  2039  0100A0  5016               	movf	(___simple_search_fl@c+1)^0,w,c
  2040  0100A2  22DA               	addwfc	fsr2h,f,c
  2041  0100A4  CFDE F056          	movff	postinc2,___freelist
  2042  0100A8  CFDD F057          	movff	postdec2,___freelist+1
  2043  0100AC                     l12648:
  2044  0100AC  0E02               	movlw	2
  2045  0100AE  2415               	addwf	___simple_search_fl@c^0,w,c
  2046  0100B0  6E05               	movwf	?___simple_search_fl^0,c
  2047  0100B2  0E00               	movlw	0
  2048  0100B4  2016               	addwfc	(___simple_search_fl@c+1)^0,w,c
  2049  0100B6  6E06               	movwf	(?___simple_search_fl+1)^0,c
  2050  0100B8  EF3C  F081         	goto	l2683
  2051  0100BC                     l12652:
  2052  0100BC  C015  FFD9         	movff	___simple_search_fl@c,fsr2l
  2053  0100C0  C016  FFDA         	movff	___simple_search_fl@c+1,fsr2h
  2054  0100C4  50DE               	movf	postinc2,w,c
  2055  0100C6  5C05               	subwf	___simple_search_fl@n^0,w,c
  2056  0100C8  50DE               	movf	postinc2,w,c
  2057  0100CA  5806               	subwfb	(___simple_search_fl@n+1)^0,w,c
  2058  0100CC  B0D8               	btfsc	status,0,c
  2059  0100CE  EF6B  F080         	goto	u14931
  2060  0100D2  EF6D  F080         	goto	u14930
  2061  0100D6                     u14931:
  2062  0100D6  EF93  F080         	goto	l2691
  2063  0100DA                     u14930:
  2064  0100DA  5017               	movf	___simple_search_fl@best^0,w,c
  2065  0100DC  1018               	iorwf	(___simple_search_fl@best+1)^0,w,c
  2066  0100DE  B4D8               	btfsc	status,2,c
  2067  0100E0  EF74  F080         	goto	u14941
  2068  0100E4  EF76  F080         	goto	u14940
  2069  0100E8                     u14941:
  2070  0100E8  EF8B  F080         	goto	l12660
  2071  0100EC                     u14940:
  2072  0100EC  C017  FFD9         	movff	___simple_search_fl@best,fsr2l
  2073  0100F0  C018  FFDA         	movff	___simple_search_fl@best+1,fsr2h
  2074  0100F4  C015  FFE1         	movff	___simple_search_fl@c,fsr1l
  2075  0100F8  C016  FFE2         	movff	___simple_search_fl@c+1,fsr1h
  2076  0100FC  50DE               	movf	postinc2,w,c
  2077  0100FE  5CE6               	subwf	postinc1,w,c
  2078  010100  50DE               	movf	postinc2,w,c
  2079  010102  58E6               	subwfb	postinc1,w,c
  2080  010104  A0D8               	btfss	status,0,c
  2081  010106  EF87  F080         	goto	u14951
  2082  01010A  EF89  F080         	goto	u14950
  2083  01010E                     u14951:
  2084  01010E  EF8B  F080         	goto	l12660
  2085  010112                     u14950:
  2086  010112  EF93  F080         	goto	l2691
  2087  010116                     l12660:
  2088  010116  C015  F017         	movff	___simple_search_fl@c,___simple_search_fl@best
  2089  01011A  C016  F018         	movff	___simple_search_fl@c+1,___simple_search_fl@best+1
  2090  01011E  C011  F00D         	movff	___simple_search_fl@last,___simple_search_fl@best_last
  2091  010122  C012  F00E         	movff	___simple_search_fl@last+1,___simple_search_fl@best_last+1
  2092  010126                     l2691:
  2093  010126  C015  F011         	movff	___simple_search_fl@c,___simple_search_fl@last
  2094  01012A  C016  F012         	movff	___simple_search_fl@c+1,___simple_search_fl@last+1
  2095  01012E  EE20 F002          	lfsr	2,2
  2096  010132  5015               	movf	___simple_search_fl@c^0,w,c
  2097  010134  26D9               	addwf	fsr2l,f,c
  2098  010136  5016               	movf	(___simple_search_fl@c+1)^0,w,c
  2099  010138  22DA               	addwfc	fsr2h,f,c
  2100  01013A  CFDE F015          	movff	postinc2,___simple_search_fl@c
  2101  01013E  CFDD F016          	movff	postdec2,___simple_search_fl@c+1
  2102  010142                     l12664:
  2103  010142  5015               	movf	___simple_search_fl@c^0,w,c
  2104  010144  1016               	iorwf	(___simple_search_fl@c+1)^0,w,c
  2105  010146  A4D8               	btfss	status,2,c
  2106  010148  EFA8  F080         	goto	u14961
  2107  01014C  EFAA  F080         	goto	u14960
  2108  010150                     u14961:
  2109  010150  EF21  F080         	goto	l12640
  2110  010154                     u14960:
  2111  010154  5017               	movf	___simple_search_fl@best^0,w,c
  2112  010156  1018               	iorwf	(___simple_search_fl@best+1)^0,w,c
  2113  010158  B4D8               	btfsc	status,2,c
  2114  01015A  EFB1  F080         	goto	u14971
  2115  01015E  EFB3  F080         	goto	u14970
  2116  010162                     u14971:
  2117  010162  EF15  F080         	goto	l12634
  2118  010166                     u14970:
  2119  010166  EE20 F002          	lfsr	2,2
  2120  01016A  5017               	movf	___simple_search_fl@best^0,w,c
  2121  01016C  26D9               	addwf	fsr2l,f,c
  2122  01016E  5018               	movf	(___simple_search_fl@best+1)^0,w,c
  2123  010170  22DA               	addwfc	fsr2h,f,c
  2124  010172  CFDE F013          	movff	postinc2,___simple_search_fl@next
  2125  010176  CFDD F014          	movff	postdec2,___simple_search_fl@next+1
  2126  01017A  C017  FFD9         	movff	___simple_search_fl@best,fsr2l
  2127  01017E  C018  FFDA         	movff	___simple_search_fl@best+1,fsr2h
  2128  010182  CFDE F007          	movff	postinc2,??___simple_search_fl
  2129  010186  CFDD F008          	movff	postdec2,??___simple_search_fl+1
  2130  01018A  5005               	movf	___simple_search_fl@n^0,w,c
  2131  01018C  5E07               	subwf	??___simple_search_fl^0,f,c
  2132  01018E  5006               	movf	(___simple_search_fl@n+1)^0,w,c
  2133  010190  5A08               	subwfb	(??___simple_search_fl+1)^0,f,c
  2134  010192  5008               	movf	(??___simple_search_fl+1)^0,w,c
  2135  010194  E109               	bnz	u14980
  2136  010196  0E05               	movlw	5
  2137  010198  5C07               	subwf	??___simple_search_fl^0,w,c
  2138  01019A  A0D8               	btfss	status,0,c
  2139  01019C  EFD2  F080         	goto	u14981
  2140  0101A0  EFD4  F080         	goto	u14980
  2141  0101A4                     u14981:
  2142  0101A4  EF1A  F081         	goto	l2694
  2143  0101A8                     u14980:
  2144  0101A8  C017  FFD9         	movff	___simple_search_fl@best,fsr2l
  2145  0101AC  C018  FFDA         	movff	___simple_search_fl@best+1,fsr2h
  2146  0101B0  CFDE F007          	movff	postinc2,??___simple_search_fl
  2147  0101B4  CFDD F008          	movff	postdec2,??___simple_search_fl+1
  2148  0101B8  5005               	movf	___simple_search_fl@n^0,w,c
  2149  0101BA  5E07               	subwf	??___simple_search_fl^0,f,c
  2150  0101BC  5006               	movf	(___simple_search_fl@n+1)^0,w,c
  2151  0101BE  5A08               	subwfb	(??___simple_search_fl+1)^0,f,c
  2152  0101C0  0EFE               	movlw	254
  2153  0101C2  2407               	addwf	??___simple_search_fl^0,w,c
  2154  0101C4  6E0B               	movwf	___simple_search_fl@remaining_size^0,c
  2155  0101C6  0EFF               	movlw	255
  2156  0101C8  2008               	addwfc	(??___simple_search_fl+1)^0,w,c
  2157  0101CA  6E0C               	movwf	(___simple_search_fl@remaining_size+1)^0,c
  2158  0101CC  C017  FFD9         	movff	___simple_search_fl@best,fsr2l
  2159  0101D0  C018  FFDA         	movff	___simple_search_fl@best+1,fsr2h
  2160  0101D4  C005  FFDE         	movff	___simple_search_fl@n,postinc2
  2161  0101D8  C006  FFDD         	movff	___simple_search_fl@n+1,postdec2
  2162  0101DC  C017  FFD9         	movff	___simple_search_fl@best,fsr2l
  2163  0101E0  C018  FFDA         	movff	___simple_search_fl@best+1,fsr2h
  2164  0101E4  CFDE F007          	movff	postinc2,??___simple_search_fl
  2165  0101E8  CFDD F008          	movff	postdec2,??___simple_search_fl+1
  2166  0101EC  C017  F009         	movff	___simple_search_fl@best,??___simple_search_fl+2
  2167  0101F0  C018  F00A         	movff	___simple_search_fl@best+1,??___simple_search_fl+3
  2168  0101F4  5007               	movf	??___simple_search_fl^0,w,c
  2169  0101F6  2609               	addwf	(??___simple_search_fl+2)^0,f,c
  2170  0101F8  5008               	movf	(??___simple_search_fl+1)^0,w,c
  2171  0101FA  220A               	addwfc	(??___simple_search_fl+3)^0,f,c
  2172  0101FC  0E02               	movlw	2
  2173  0101FE  2409               	addwf	(??___simple_search_fl+2)^0,w,c
  2174  010200  6E0F               	movwf	___simple_search_fl@split^0,c
  2175  010202  0E00               	movlw	0
  2176  010204  200A               	addwfc	(??___simple_search_fl+3)^0,w,c
  2177  010206  6E10               	movwf	(___simple_search_fl@split+1)^0,c
  2178  010208  C00F  FFD9         	movff	___simple_search_fl@split,fsr2l
  2179  01020C  C010  FFDA         	movff	___simple_search_fl@split+1,fsr2h
  2180  010210  C00B  FFDE         	movff	___simple_search_fl@remaining_size,postinc2
  2181  010214  C00C  FFDD         	movff	___simple_search_fl@remaining_size+1,postdec2
  2182  010218  EE20 F002          	lfsr	2,2
  2183  01021C  500F               	movf	___simple_search_fl@split^0,w,c
  2184  01021E  26D9               	addwf	fsr2l,f,c
  2185  010220  5010               	movf	(___simple_search_fl@split+1)^0,w,c
  2186  010222  22DA               	addwfc	fsr2h,f,c
  2187  010224  C013  FFDE         	movff	___simple_search_fl@next,postinc2
  2188  010228  C014  FFDD         	movff	___simple_search_fl@next+1,postdec2
  2189  01022C  C00F  F013         	movff	___simple_search_fl@split,___simple_search_fl@next
  2190  010230  C010  F014         	movff	___simple_search_fl@split+1,___simple_search_fl@next+1
  2191  010234                     l2694:
  2192  010234  5017               	movf	___simple_search_fl@best^0,w,c
  2193  010236  1856               	xorwf	___freelist^0,w,c
  2194  010238  E107               	bnz	u14991
  2195  01023A  5018               	movf	(___simple_search_fl@best+1)^0,w,c
  2196  01023C  1857               	xorwf	(___freelist+1)^0,w,c
  2197  01023E  A4D8               	btfss	status,2,c
  2198  010240  EF24  F081         	goto	u14991
  2199  010244  EF26  F081         	goto	u14990
  2200  010248                     u14991:
  2201  010248  EF2C  F081         	goto	l12680
  2202  01024C                     u14990:
  2203  01024C  C013  F056         	movff	___simple_search_fl@next,___freelist
  2204  010250  C014  F057         	movff	___simple_search_fl@next+1,___freelist+1
  2205  010254  EF36  F081         	goto	l12682
  2206  010258                     l12680:
  2207  010258  EE20 F002          	lfsr	2,2
  2208  01025C  500D               	movf	___simple_search_fl@best_last^0,w,c
  2209  01025E  26D9               	addwf	fsr2l,f,c
  2210  010260  500E               	movf	(___simple_search_fl@best_last+1)^0,w,c
  2211  010262  22DA               	addwfc	fsr2h,f,c
  2212  010264  C013  FFDE         	movff	___simple_search_fl@next,postinc2
  2213  010268  C014  FFDD         	movff	___simple_search_fl@next+1,postdec2
  2214  01026C                     l12682:
  2215  01026C  0E02               	movlw	2
  2216  01026E  2417               	addwf	___simple_search_fl@best^0,w,c
  2217  010270  6E05               	movwf	?___simple_search_fl^0,c
  2218  010272  0E00               	movlw	0
  2219  010274  2018               	addwfc	(___simple_search_fl@best+1)^0,w,c
  2220  010276  6E06               	movwf	(?___simple_search_fl+1)^0,c
  2221  010278                     l2683:
  2222  010278  0012               	return		;funcret
  2223  01027A                     __end_of___simple_search_fl:
  2224                           	callstack 0
  2225                           
  2226 ;; *************** function ___expand_heap *****************
  2227 ;; Defined at:
  2228 ;;		line 14 in file "C:\Program Files\Microchip\xc8\v2.36\pic\sources\c99\common\expand_heap.c"
  2229 ;; Parameters:    Size  Location     Type
  2230 ;;  pn              2    4[COMRAM] PTR unsigned int 
  2231 ;;		 -> malloc@m(2), 
  2232 ;; Auto vars:     Size  Location     Type
  2233 ;;  new_brkp        2   10[COMRAM] PTR unsigned char 
  2234 ;;		 -> __heap_hi(0), NULL(0), 
  2235 ;;  n               2    8[COMRAM] unsigned int 
  2236 ;; Return value:  Size  Location     Type
  2237 ;;                  2    4[COMRAM] PTR void 
  2238 ;; Registers used:
  2239 ;;		wreg, fsr2l, fsr2h, status,2, status,0
  2240 ;; Tracked objects:
  2241 ;;		On entry : 0/0
  2242 ;;		On exit  : 0/0
  2243 ;;		Unchanged: 0/0
  2244 ;; Data sizes:     COMRAM   BANK0   BANK1   BANK2   BANK3   BANK4   BANK5   BANK6   BANK7   BANK8   BANK9  BANK10  BANK1
      +1  BANK12  BANK13  BANK14
  2245 ;;      Params:         2       0       0       0       0       0       0       0       0       0       0       0       
      +0       0       0       0
  2246 ;;      Locals:         4       0       0       0       0       0       0       0       0       0       0       0       
      +0       0       0       0
  2247 ;;      Temps:          2       0       0       0       0       0       0       0       0       0       0       0       
      +0       0       0       0
  2248 ;;      Totals:         8       0       0       0       0       0       0       0       0       0       0       0       
      +0       0       0       0
  2249 ;;Total ram usage:        8 bytes
  2250 ;; Hardware stack levels used: 1
  2251 ;; Hardware stack levels required when called: 4
  2252 ;; This function calls:
  2253 ;;		Nothing
  2254 ;; This function is called by:
  2255 ;;		_malloc
  2256 ;; This function uses a non-reentrant model
  2257 ;;
  2258                           
  2259                           	psect	text6
  2260  010DEA                     __ptext6:
  2261                           	callstack 0
  2262  010DEA                     ___expand_heap:
  2263                           	callstack 22
  2264  010DEA  C005  FFD9         	movff	___expand_heap@pn,fsr2l
  2265  010DEE  C006  FFDA         	movff	___expand_heap@pn+1,fsr2h
  2266  010DF2  CFDE F009          	movff	postinc2,___expand_heap@n
  2267  010DF6  CFDD F00A          	movff	postdec2,___expand_heap@n+1
  2268  010DFA  0100               	movlb	0	; () banked
  2269  010DFC  5196               	movf	_brkp& (0+255),w,b
  2270  010DFE  1197               	iorwf	(_brkp+1)& (0+255),w,b
  2271  010E00  A4D8               	btfss	status,2,c
  2272  010E02  EF05  F087         	goto	u15001
  2273  010E06  EF07  F087         	goto	u15000
  2274  010E0A                     u15001:
  2275  010E0A  EF0B  F087         	goto	l2739
  2276  010E0E                     u15000:
  2277  010E0E                     
  2278                           ; BSR set to: 0
  2279  010E0E  0E88               	movlw	low ___heap_hi
  2280  010E10  6F96               	movwf	_brkp& (0+255),b
  2281  010E12  0E0E               	movlw	high ___heap_hi
  2282  010E14  6F97               	movwf	(_brkp+1)& (0+255),b
  2283  010E16                     l2739:
  2284                           
  2285                           ; BSR set to: 0
  2286  010E16  500A               	movf	(___expand_heap@n+1)^0,w,c
  2287  010E18  E107               	bnz	u15011
  2288  010E1A  0E06               	movlw	6
  2289  010E1C  5C09               	subwf	___expand_heap@n^0,w,c
  2290  010E1E  B0D8               	btfsc	status,0,c
  2291  010E20  EF14  F087         	goto	u15011
  2292  010E24  EF16  F087         	goto	u15010
  2293  010E28                     u15011:
  2294  010E28  EF1A  F087         	goto	l12698
  2295  010E2C                     u15010:
  2296  010E2C                     
  2297                           ; BSR set to: 0
  2298  010E2C  0E00               	movlw	0
  2299  010E2E  6E0A               	movwf	(___expand_heap@n+1)^0,c
  2300  010E30  0E06               	movlw	6
  2301  010E32  6E09               	movwf	___expand_heap@n^0,c
  2302  010E34                     l12698:
  2303                           
  2304                           ; BSR set to: 0
  2305  010E34  5009               	movf	___expand_heap@n^0,w,c
  2306  010E36  5D96               	subwf	_brkp& (0+255),w,b
  2307  010E38  6E0B               	movwf	___expand_heap@new_brkp^0,c
  2308  010E3A  500A               	movf	(___expand_heap@n+1)^0,w,c
  2309  010E3C  5997               	subwfb	(_brkp+1)& (0+255),w,b
  2310  010E3E  6E0C               	movwf	(___expand_heap@new_brkp+1)^0,c
  2311  010E40                     
  2312                           ; BSR set to: 0
  2313  010E40  0E54               	movlw	low ___heap_lo
  2314  010E42  6E07               	movwf	??___expand_heap^0,c
  2315  010E44  0E05               	movlw	high ___heap_lo
  2316  010E46  6E08               	movwf	(??___expand_heap+1)^0,c
  2317  010E48  5007               	movf	??___expand_heap^0,w,c
  2318  010E4A  5C0B               	subwf	___expand_heap@new_brkp^0,w,c
  2319  010E4C  5008               	movf	(??___expand_heap+1)^0,w,c
  2320  010E4E  580C               	subwfb	(___expand_heap@new_brkp+1)^0,w,c
  2321  010E50  A0D8               	btfss	status,0,c
  2322  010E52  EF2D  F087         	goto	u15021
  2323  010E56  EF2F  F087         	goto	u15020
  2324  010E5A                     u15021:
  2325  010E5A  EF3A  F087         	goto	l12704
  2326  010E5E                     u15020:
  2327  010E5E                     
  2328                           ; BSR set to: 0
  2329  010E5E  5196               	movf	_brkp& (0+255),w,b
  2330  010E60  5C0B               	subwf	___expand_heap@new_brkp^0,w,c
  2331  010E62  5197               	movf	(_brkp+1)& (0+255),w,b
  2332  010E64  580C               	subwfb	(___expand_heap@new_brkp+1)^0,w,c
  2333  010E66  A0D8               	btfss	status,0,c
  2334  010E68  EF38  F087         	goto	u15031
  2335  010E6C  EF3A  F087         	goto	u15030
  2336  010E70                     u15031:
  2337  010E70  EF44  F087         	goto	l12710
  2338  010E74                     u15030:
  2339  010E74                     l12704:
  2340                           
  2341                           ; BSR set to: 0
  2342  010E74  0E00               	movlw	0
  2343  010E76  6F99               	movwf	(_errno+1)& (0+255),b
  2344  010E78  0E0C               	movlw	12
  2345  010E7A  6F98               	movwf	_errno& (0+255),b
  2346  010E7C                     
  2347                           ; BSR set to: 0
  2348  010E7C  0E00               	movlw	0
  2349  010E7E  6E05               	movwf	?___expand_heap^0,c
  2350  010E80  0E00               	movlw	0
  2351  010E82  6E06               	movwf	(?___expand_heap+1)^0,c
  2352  010E84  EF4C  F087         	goto	l2744
  2353  010E88                     l12710:
  2354                           
  2355                           ; BSR set to: 0
  2356  010E88  C00B  F096         	movff	___expand_heap@new_brkp,_brkp
  2357  010E8C  C00C  F097         	movff	___expand_heap@new_brkp+1,_brkp+1
  2358  010E90  C096  F005         	movff	_brkp,?___expand_heap
  2359  010E94  C097  F006         	movff	_brkp+1,?___expand_heap+1
  2360  010E98                     l2744:
  2361                           
  2362                           ; BSR set to: 0
  2363  010E98  0012               	return		;funcret
  2364  010E9A                     __end_of___expand_heap:
  2365                           	callstack 0
  2366                           
  2367 ;; *************** function _getArgs *****************
  2368 ;; Defined at:
  2369 ;;		line 39 in file "rtcdrv.c"
  2370 ;; Parameters:    Size  Location     Type
  2371 ;;  argsCount       2   14[COMRAM] unsigned int 
  2372 ;;  buffer          2   16[COMRAM] PTR unsigned char 
  2373 ;;		 -> __heap_hi..(3), __heap_hi(0), RAM(3719), NULL(0), 
  2374 ;; Auto vars:     Size  Location     Type
  2375 ;;		None
  2376 ;; Return value:  Size  Location     Type
  2377 ;;                  1    wreg      void 
  2378 ;; Registers used:
  2379 ;;		wreg, fsr2l, fsr2h, status,2, status,0, cstack
  2380 ;; Tracked objects:
  2381 ;;		On entry : 0/0
  2382 ;;		On exit  : 0/0
  2383 ;;		Unchanged: 0/0
  2384 ;; Data sizes:     COMRAM   BANK0   BANK1   BANK2   BANK3   BANK4   BANK5   BANK6   BANK7   BANK8   BANK9  BANK10  BANK1
      +1  BANK12  BANK13  BANK14
  2385 ;;      Params:         4       0       0       0       0       0       0       0       0       0       0       0       
      +0       0       0       0
  2386 ;;      Locals:         0       0       0       0       0       0       0       0       0       0       0       0       
      +0       0       0       0
  2387 ;;      Temps:          0       0       0       0       0       0       0       0       0       0       0       0       
      +0       0       0       0
  2388 ;;      Totals:         4       0       0       0       0       0       0       0       0       0       0       0       
      +0       0       0       0
  2389 ;;Total ram usage:        4 bytes
  2390 ;; Hardware stack levels used: 1
  2391 ;; Hardware stack levels required when called: 5
  2392 ;; This function calls:
  2393 ;;		_getBuffer
  2394 ;; This function is called by:
  2395 ;;		_rtcSetClk
  2396 ;; This function uses a non-reentrant model
  2397 ;;
  2398                           
  2399                           	psect	text7
  2400  011B66                     __ptext7:
  2401                           	callstack 0
  2402  011B66                     _getArgs:
  2403                           	callstack 22
  2404  011B66                     
  2405                           ;rtcdrv.c: 40:     return getBuffer(argsCount, buffer);;	Return value of _getArgs is nev
      +                          er used
  2406  011B66  C00F  F005         	movff	getArgs@argsCount,getBuffer@bufferSize
  2407  011B6A  C010  F006         	movff	getArgs@argsCount+1,getBuffer@bufferSize+1
  2408  011B6E  C011  F007         	movff	getArgs@buffer,getBuffer@buffer
  2409  011B72  C012  F008         	movff	getArgs@buffer+1,getBuffer@buffer+1
  2410  011B76  EC9F  F088         	call	_getBuffer	;wreg free
  2411  011B7A  0012               	return		;funcret
  2412  011B7C                     __end_of_getArgs:
  2413                           	callstack 0
  2414                           
  2415 ;; *************** function _getBuffer *****************
  2416 ;; Defined at:
  2417 ;;		line 29 in file "rtcdrv.c"
  2418 ;; Parameters:    Size  Location     Type
  2419 ;;  bufferSize      2    4[COMRAM] unsigned int 
  2420 ;;  buffer          2    6[COMRAM] PTR unsigned char 
  2421 ;;		 -> __heap_hi..(3), __heap_hi(0), RAM(3719), NULL(0), 
  2422 ;; Auto vars:     Size  Location     Type
  2423 ;;  x               2   12[COMRAM] int 
  2424 ;;  x               2   10[COMRAM] int 
  2425 ;;  i               2    8[COMRAM] int 
  2426 ;; Return value:  Size  Location     Type
  2427 ;;                  1    wreg      void 
  2428 ;; Registers used:
  2429 ;;		wreg, fsr2l, fsr2h, status,2, status,0
  2430 ;; Tracked objects:
  2431 ;;		On entry : 0/0
  2432 ;;		On exit  : 0/0
  2433 ;;		Unchanged: 0/0
  2434 ;; Data sizes:     COMRAM   BANK0   BANK1   BANK2   BANK3   BANK4   BANK5   BANK6   BANK7   BANK8   BANK9  BANK10  BANK1
      +1  BANK12  BANK13  BANK14
  2435 ;;      Params:         4       0       0       0       0       0       0       0       0       0       0       0       
      +0       0       0       0
  2436 ;;      Locals:         6       0       0       0       0       0       0       0       0       0       0       0       
      +0       0       0       0
  2437 ;;      Temps:          0       0       0       0       0       0       0       0       0       0       0       0       
      +0       0       0       0
  2438 ;;      Totals:        10       0       0       0       0       0       0       0       0       0       0       0       
      +0       0       0       0
  2439 ;;Total ram usage:       10 bytes
  2440 ;; Hardware stack levels used: 1
  2441 ;; Hardware stack levels required when called: 4
  2442 ;; This function calls:
  2443 ;;		Nothing
  2444 ;; This function is called by:
  2445 ;;		_getArgs
  2446 ;;		_rtcSetClk
  2447 ;; This function uses a non-reentrant model
  2448 ;;
  2449                           
  2450                           	psect	text8
  2451  01113E                     __ptext8:
  2452                           	callstack 0
  2453  01113E                     _getBuffer:
  2454                           	callstack 23
  2455  01113E                     
  2456                           ;rtcdrv.c: 30:     TRISA = 0xFF;
  2457  01113E  6888               	setf	136,c	;volatile
  2458  011140                     
  2459                           ;rtcdrv.c: 31:     int i = 0;
  2460  011140  0E00               	movlw	0
  2461  011142  6E0A               	movwf	(getBuffer@i+1)^0,c
  2462  011144  0E00               	movlw	0
  2463  011146  6E09               	movwf	getBuffer@i^0,c
  2464                           
  2465                           ;rtcdrv.c: 32:     while (i < bufferSize) {
  2466  011148  EFE3  F088         	goto	l12616
  2467  01114C                     l1942:
  2468  01114C  B28F               	btfsc	143,1,c	;volatile
  2469  01114E  EFAB  F088         	goto	u14851
  2470  011152  EFAD  F088         	goto	u14850
  2471  011156                     u14851:
  2472  011156  EFA6  F088         	goto	l1942
  2473  01115A                     u14850:
  2474  01115A                     
  2475                           ;rtcdrv.c: 34:         buffer[i++] = PORTA;
  2476  01115A  5009               	movf	getBuffer@i^0,w,c
  2477  01115C  2407               	addwf	getBuffer@buffer^0,w,c
  2478  01115E  6ED9               	movwf	fsr2l,c
  2479  011160  500A               	movf	(getBuffer@i+1)^0,w,c
  2480  011162  2008               	addwfc	(getBuffer@buffer+1)^0,w,c
  2481  011164  6EDA               	movwf	fsr2h,c
  2482  011166  CF8D FFDF          	movff	3981,indf2	;volatile
  2483  01116A  4A09               	infsnz	getBuffer@i^0,f,c
  2484  01116C  2A0A               	incf	(getBuffer@i+1)^0,f,c
  2485  01116E                     
  2486                           ;rtcdrv.c: 35:         for (int x = 0; x < 500; ++x) __nop();;do { LATCbits.LATC0 = 0; }
      +                           while(0);for (int x = 0; x < 500; ++x) __nop();;do { LATCbits.LATC0 = 1; } while(0);;
  2487  01116E  0E00               	movlw	0
  2488  011170  6E0C               	movwf	(getBuffer@x+1)^0,c
  2489  011172  0E00               	movlw	0
  2490  011174  6E0B               	movwf	getBuffer@x^0,c
  2491  011176                     l1945:
  2492  011176  F000               	nop	
  2493  011178  4A0B               	infsnz	getBuffer@x^0,f,c
  2494  01117A  2A0C               	incf	(getBuffer@x+1)^0,f,c
  2495  01117C  BE0C               	btfsc	(getBuffer@x+1)^0,7,c
  2496  01117E  EFCA  F088         	goto	u14861
  2497  011182  0EF4               	movlw	244
  2498  011184  5C0B               	subwf	getBuffer@x^0,w,c
  2499  011186  0E01               	movlw	1
  2500  011188  580C               	subwfb	(getBuffer@x+1)^0,w,c
  2501  01118A  A0D8               	btfss	status,0,c
  2502  01118C  EFCA  F088         	goto	u14861
  2503  011190  EFCC  F088         	goto	u14860
  2504  011194                     u14861:
  2505  011194  EFBB  F088         	goto	l1945
  2506  011198                     u14860:
  2507  011198  9085               	bcf	133,0,c	;volatile
  2508  01119A  0E00               	movlw	0
  2509  01119C  6E0E               	movwf	(getBuffer@x_4194+1)^0,c
  2510  01119E  0E00               	movlw	0
  2511  0111A0  6E0D               	movwf	getBuffer@x_4194^0,c
  2512  0111A2                     l1949:
  2513  0111A2  F000               	nop	
  2514  0111A4  4A0D               	infsnz	getBuffer@x_4194^0,f,c
  2515  0111A6  2A0E               	incf	(getBuffer@x_4194+1)^0,f,c
  2516  0111A8  BE0E               	btfsc	(getBuffer@x_4194+1)^0,7,c
  2517  0111AA  EFE0  F088         	goto	u14871
  2518  0111AE  0EF4               	movlw	244
  2519  0111B0  5C0D               	subwf	getBuffer@x_4194^0,w,c
  2520  0111B2  0E01               	movlw	1
  2521  0111B4  580E               	subwfb	(getBuffer@x_4194+1)^0,w,c
  2522  0111B6  A0D8               	btfss	status,0,c
  2523  0111B8  EFE0  F088         	goto	u14871
  2524  0111BC  EFE2  F088         	goto	u14870
  2525  0111C0                     u14871:
  2526  0111C0  EFD1  F088         	goto	l1949
  2527  0111C4                     u14870:
  2528  0111C4  8085               	bsf	133,0,c	;volatile
  2529  0111C6                     l12616:
  2530                           
  2531                           ;rtcdrv.c: 32:     while (i < bufferSize) {
  2532  0111C6  5005               	movf	getBuffer@bufferSize^0,w,c
  2533  0111C8  5C09               	subwf	getBuffer@i^0,w,c
  2534  0111CA  5006               	movf	(getBuffer@bufferSize+1)^0,w,c
  2535  0111CC  580A               	subwfb	(getBuffer@i+1)^0,w,c
  2536  0111CE  A0D8               	btfss	status,0,c
  2537  0111D0  EFEC  F088         	goto	u14881
  2538  0111D4  EFEE  F088         	goto	u14880
  2539  0111D8                     u14881:
  2540  0111D8  EFA6  F088         	goto	l1942
  2541  0111DC                     u14880:
  2542  0111DC  0012               	return		;funcret
  2543  0111DE                     __end_of_getBuffer:
  2544                           	callstack 0
  2545                           
  2546 ;; *************** function _free *****************
  2547 ;; Defined at:
  2548 ;;		line 67 in file "C:\Program Files\Microchip\xc8\v2.36\pic\sources\c99\common\lite_free.c"
  2549 ;; Parameters:    Size  Location     Type
  2550 ;;  ptr             2    4[COMRAM] PTR void 
  2551 ;;		 -> __heap_hi..(3), __heap_hi(0), RAM(3719), NULL(0), 
  2552 ;; Auto vars:     Size  Location     Type
  2553 ;;  c               2   12[COMRAM] PTR struct chunk
  2554 ;;		 -> __heap_hi..(3), __heap_hi(0), RAM(3719), NULL(0), 
  2555 ;;  cptr            2   10[COMRAM] PTR unsigned char 
  2556 ;;		 -> __heap_hi..(3), __heap_hi(0), RAM(3719), NULL(0), 
  2557 ;; Return value:  Size  Location     Type
  2558 ;;                  1    wreg      void 
  2559 ;; Registers used:
  2560 ;;		wreg, fsr1l, fsr1h, fsr2l, fsr2h, status,2, status,0
  2561 ;; Tracked objects:
  2562 ;;		On entry : 0/0
  2563 ;;		On exit  : 0/0
  2564 ;;		Unchanged: 0/0
  2565 ;; Data sizes:     COMRAM   BANK0   BANK1   BANK2   BANK3   BANK4   BANK5   BANK6   BANK7   BANK8   BANK9  BANK10  BANK1
      +1  BANK12  BANK13  BANK14
  2566 ;;      Params:         2       0       0       0       0       0       0       0       0       0       0       0       
      +0       0       0       0
  2567 ;;      Locals:         4       0       0       0       0       0       0       0       0       0       0       0       
      +0       0       0       0
  2568 ;;      Temps:          4       0       0       0       0       0       0       0       0       0       0       0       
      +0       0       0       0
  2569 ;;      Totals:        10       0       0       0       0       0       0       0       0       0       0       0       
      +0       0       0       0
  2570 ;;Total ram usage:       10 bytes
  2571 ;; Hardware stack levels used: 1
  2572 ;; Hardware stack levels required when called: 4
  2573 ;; This function calls:
  2574 ;;		Nothing
  2575 ;; This function is called by:
  2576 ;;		_rtcSetClk
  2577 ;; This function uses a non-reentrant model
  2578 ;;
  2579                           
  2580                           	psect	text9
  2581  010660                     __ptext9:
  2582                           	callstack 0
  2583  010660                     _free:
  2584                           	callstack 23
  2585  010660  C005  F00B         	movff	free@ptr,free@cptr
  2586  010664  C006  F00C         	movff	free@ptr+1,free@cptr+1
  2587  010668  5005               	movf	free@ptr^0,w,c
  2588  01066A  1006               	iorwf	(free@ptr+1)^0,w,c
  2589  01066C  A4D8               	btfss	status,2,c
  2590  01066E  EF3B  F083         	goto	u15121
  2591  010672  EF3D  F083         	goto	u15120
  2592  010676                     u15121:
  2593  010676  EF3F  F083         	goto	l12914
  2594  01067A                     u15120:
  2595  01067A  EFE2  F083         	goto	l2700
  2596  01067E                     l12914:
  2597  01067E  0EFE               	movlw	254
  2598  010680  240B               	addwf	free@cptr^0,w,c
  2599  010682  6E0D               	movwf	free@c^0,c
  2600  010684  0EFF               	movlw	255
  2601  010686  200C               	addwfc	(free@cptr+1)^0,w,c
  2602  010688  6E0E               	movwf	(free@c+1)^0,c
  2603  01068A  5056               	movf	___freelist^0,w,c
  2604  01068C  1057               	iorwf	(___freelist+1)^0,w,c
  2605  01068E  B4D8               	btfsc	status,2,c
  2606  010690  EF4C  F083         	goto	u15131
  2607  010694  EF4E  F083         	goto	u15130
  2608  010698                     u15131:
  2609  010698  EFD6  F083         	goto	l12936
  2610  01069C                     u15130:
  2611  01069C  C00D  FFD9         	movff	free@c,fsr2l
  2612  0106A0  C00E  FFDA         	movff	free@c+1,fsr2h
  2613  0106A4  CFDE F007          	movff	postinc2,??_free
  2614  0106A8  CFDD F008          	movff	postdec2,??_free+1
  2615  0106AC  C00B  F009         	movff	free@cptr,??_free+2
  2616  0106B0  C00C  F00A         	movff	free@cptr+1,??_free+3
  2617  0106B4  5007               	movf	??_free^0,w,c
  2618  0106B6  2609               	addwf	(??_free+2)^0,f,c
  2619  0106B8  5008               	movf	(??_free+1)^0,w,c
  2620  0106BA  220A               	addwfc	(??_free+3)^0,f,c
  2621  0106BC  5056               	movf	___freelist^0,w,c
  2622  0106BE  1809               	xorwf	(??_free+2)^0,w,c
  2623  0106C0  E107               	bnz	u15141
  2624  0106C2  5057               	movf	(___freelist+1)^0,w,c
  2625  0106C4  180A               	xorwf	(??_free+3)^0,w,c
  2626  0106C6  A4D8               	btfss	status,2,c
  2627  0106C8  EF68  F083         	goto	u15141
  2628  0106CC  EF6A  F083         	goto	u15140
  2629  0106D0                     u15141:
  2630  0106D0  EF94  F083         	goto	l12928
  2631  0106D4                     u15140:
  2632  0106D4  EE20 F002          	lfsr	2,2
  2633  0106D8  5056               	movf	___freelist^0,w,c
  2634  0106DA  26D9               	addwf	fsr2l,f,c
  2635  0106DC  5057               	movf	(___freelist+1)^0,w,c
  2636  0106DE  22DA               	addwfc	fsr2h,f,c
  2637  0106E0  EE10 F002          	lfsr	1,2
  2638  0106E4  500D               	movf	free@c^0,w,c
  2639  0106E6  26E1               	addwf	fsr1l,f,c
  2640  0106E8  500E               	movf	(free@c+1)^0,w,c
  2641  0106EA  22E2               	addwfc	fsr1h,f,c
  2642  0106EC  CFDE FFE6          	movff	postinc2,postinc1
  2643  0106F0  CFDD FFE5          	movff	postdec2,postdec1
  2644  0106F4  C056  FFD9         	movff	___freelist,fsr2l
  2645  0106F8  C057  FFDA         	movff	___freelist+1,fsr2h
  2646  0106FC  CFDE F007          	movff	postinc2,??_free
  2647  010700  CFDD F008          	movff	postdec2,??_free+1
  2648  010704  0E02               	movlw	2
  2649  010706  2607               	addwf	??_free^0,f,c
  2650  010708  0E00               	movlw	0
  2651  01070A  2208               	addwfc	(??_free+1)^0,f,c
  2652  01070C  C00D  FFD9         	movff	free@c,fsr2l
  2653  010710  C00E  FFDA         	movff	free@c+1,fsr2h
  2654  010714  5007               	movf	??_free^0,w,c
  2655  010716  26DE               	addwf	postinc2,f,c
  2656  010718  5008               	movf	(??_free+1)^0,w,c
  2657  01071A  22DD               	addwfc	postdec2,f,c
  2658  01071C                     l12922:
  2659  01071C  C00D  F056         	movff	free@c,___freelist
  2660  010720  C00E  F057         	movff	free@c+1,___freelist+1
  2661  010724  EFE2  F083         	goto	l2700
  2662  010728                     l12928:
  2663  010728  C056  FFD9         	movff	___freelist,fsr2l
  2664  01072C  C057  FFDA         	movff	___freelist+1,fsr2h
  2665  010730  CFDE F007          	movff	postinc2,??_free
  2666  010734  CFDD F008          	movff	postdec2,??_free+1
  2667  010738  C056  F009         	movff	___freelist,??_free+2
  2668  01073C  C057  F00A         	movff	___freelist+1,??_free+3
  2669  010740  5007               	movf	??_free^0,w,c
  2670  010742  2609               	addwf	(??_free+2)^0,f,c
  2671  010744  5008               	movf	(??_free+1)^0,w,c
  2672  010746  220A               	addwfc	(??_free+3)^0,f,c
  2673  010748  0E02               	movlw	2
  2674  01074A  2609               	addwf	(??_free+2)^0,f,c
  2675  01074C  0E00               	movlw	0
  2676  01074E  220A               	addwfc	(??_free+3)^0,f,c
  2677  010750  500D               	movf	free@c^0,w,c
  2678  010752  1809               	xorwf	(??_free+2)^0,w,c
  2679  010754  E107               	bnz	u15151
  2680  010756  500E               	movf	(free@c+1)^0,w,c
  2681  010758  180A               	xorwf	(??_free+3)^0,w,c
  2682  01075A  A4D8               	btfss	status,2,c
  2683  01075C  EFB2  F083         	goto	u15151
  2684  010760  EFB4  F083         	goto	u15150
  2685  010764                     u15151:
  2686  010764  EFCA  F083         	goto	l12934
  2687  010768                     u15150:
  2688  010768  C00D  FFD9         	movff	free@c,fsr2l
  2689  01076C  C00E  FFDA         	movff	free@c+1,fsr2h
  2690  010770  CFDE F007          	movff	postinc2,??_free
  2691  010774  CFDD F008          	movff	postdec2,??_free+1
  2692  010778  0E02               	movlw	2
  2693  01077A  2607               	addwf	??_free^0,f,c
  2694  01077C  0E00               	movlw	0
  2695  01077E  2208               	addwfc	(??_free+1)^0,f,c
  2696  010780  C056  FFD9         	movff	___freelist,fsr2l
  2697  010784  C057  FFDA         	movff	___freelist+1,fsr2h
  2698  010788  5007               	movf	??_free^0,w,c
  2699  01078A  26DE               	addwf	postinc2,f,c
  2700  01078C  5008               	movf	(??_free+1)^0,w,c
  2701  01078E  22DD               	addwfc	postdec2,f,c
  2702  010790  EFE2  F083         	goto	l2700
  2703  010794                     l12934:
  2704  010794  EE20 F002          	lfsr	2,2
  2705  010798  500D               	movf	free@c^0,w,c
  2706  01079A  26D9               	addwf	fsr2l,f,c
  2707  01079C  500E               	movf	(free@c+1)^0,w,c
  2708  01079E  22DA               	addwfc	fsr2h,f,c
  2709  0107A0  C056  FFDE         	movff	___freelist,postinc2
  2710  0107A4  C057  FFDD         	movff	___freelist+1,postdec2
  2711  0107A8  EF8E  F083         	goto	l12922
  2712  0107AC                     l12936:
  2713  0107AC  EE20 F002          	lfsr	2,2
  2714  0107B0  500D               	movf	free@c^0,w,c
  2715  0107B2  26D9               	addwf	fsr2l,f,c
  2716  0107B4  500E               	movf	(free@c+1)^0,w,c
  2717  0107B6  22DA               	addwfc	fsr2h,f,c
  2718  0107B8  0E00               	movlw	0
  2719  0107BA  6EDE               	movwf	postinc2,c
  2720  0107BC  0E00               	movlw	0
  2721  0107BE  6EDD               	movwf	postdec2,c
  2722  0107C0  EF8E  F083         	goto	l12922
  2723  0107C4                     l2700:
  2724  0107C4  0012               	return		;funcret
  2725  0107C6                     __end_of_free:
  2726                           	callstack 0
  2727                           
  2728 ;; *************** function _SetClock *****************
  2729 ;; Defined at:
  2730 ;;		line 4 in file "rtc.c"
  2731 ;; Parameters:    Size  Location     Type
  2732 ;;  year            1    wreg     unsigned char 
  2733 ;;  month           1   24[COMRAM] unsigned char 
  2734 ;;  dayOfMonth      1   25[COMRAM] unsigned char 
  2735 ;;  dayOfWeek       1   26[COMRAM] unsigned char 
  2736 ;;  hour            1   27[COMRAM] unsigned char 
  2737 ;;  minute          1   28[COMRAM] unsigned char 
  2738 ;;  second          1   29[COMRAM] unsigned char 
  2739 ;; Auto vars:     Size  Location     Type
  2740 ;;  year            1   42[COMRAM] unsigned char 
  2741 ;;  yearTPlace      1   48[COMRAM] unsigned char 
  2742 ;;  monthTPlace     1   47[COMRAM] unsigned char 
  2743 ;;  dayOMTPlace     1   46[COMRAM] unsigned char 
  2744 ;;  hourTPlace      1   45[COMRAM] unsigned char 
  2745 ;;  minTPlace       1   44[COMRAM] unsigned char 
  2746 ;;  secTPlace       1   43[COMRAM] unsigned char 
  2747 ;;  yearToWrite     1   41[COMRAM] unsigned char 
  2748 ;;  monthToWrite    1   40[COMRAM] unsigned char 
  2749 ;;  dayOfMonthTo    1   39[COMRAM] unsigned char 
  2750 ;;  hourToWrite     1   38[COMRAM] unsigned char 
  2751 ;;  minToWrite      1   37[COMRAM] unsigned char 
  2752 ;;  secToWrite      1   36[COMRAM] unsigned char 
  2753 ;;  yearOPlace      1   35[COMRAM] unsigned char 
  2754 ;;  monthOPlace     1   34[COMRAM] unsigned char 
  2755 ;;  dayOMOPlace     1   33[COMRAM] unsigned char 
  2756 ;;  hourOPlace      1   32[COMRAM] unsigned char 
  2757 ;;  minOPlace       1   31[COMRAM] unsigned char 
  2758 ;;  secOPlace       1   30[COMRAM] unsigned char 
  2759 ;; Return value:  Size  Location     Type
  2760 ;;                  1    wreg      void 
  2761 ;; Registers used:
  2762 ;;		wreg, fsr2l, fsr2h, status,2, status,0, pcl, pclath, pclatu, tosl, tblptrl, tblptrh, tblptru, prodl, prodh, cstack
  2763 ;; Tracked objects:
  2764 ;;		On entry : 0/0
  2765 ;;		On exit  : 0/0
  2766 ;;		Unchanged: 0/0
  2767 ;; Data sizes:     COMRAM   BANK0   BANK1   BANK2   BANK3   BANK4   BANK5   BANK6   BANK7   BANK8   BANK9  BANK10  BANK1
      +1  BANK12  BANK13  BANK14
  2768 ;;      Params:         6       0       0       0       0       0       0       0       0       0       0       0       
      +0       0       0       0
  2769 ;;      Locals:        19       0       0       0       0       0       0       0       0       0       0       0       
      +0       0       0       0
  2770 ;;      Temps:          0       0       0       0       0       0       0       0       0       0       0       0       
      +0       0       0       0
  2771 ;;      Totals:        25       0       0       0       0       0       0       0       0       0       0       0       
      +0       0       0       0
  2772 ;;Total ram usage:       25 bytes
  2773 ;; Hardware stack levels used: 1
  2774 ;; Hardware stack levels required when called: 13
  2775 ;; This function calls:
  2776 ;;		_I2C1_Write1ByteRegister
  2777 ;;		___awdiv
  2778 ;; This function is called by:
  2779 ;;		_rtcSetClk
  2780 ;; This function uses a non-reentrant model
  2781 ;;
  2782                           
  2783                           	psect	text10
  2784  0107C6                     __ptext10:
  2785                           	callstack 0
  2786  0107C6                     _SetClock:
  2787                           	callstack 14
  2788                           
  2789                           ;incstack = 0
  2790                           ;SetClock@year stored from wreg
  2791  0107C6  6E2B               	movwf	SetClock@year^0,c
  2792  0107C8                     
  2793                           ;rtc.c: 5:     uint8_t secTPlace = (second / 10);
  2794  0107C8  C01E  F005         	movff	SetClock@second,___awdiv@dividend
  2795  0107CC  6A06               	clrf	(___awdiv@dividend+1)^0,c
  2796  0107CE  0E00               	movlw	0
  2797  0107D0  6E08               	movwf	(___awdiv@divisor+1)^0,c
  2798  0107D2  0E0A               	movlw	10
  2799  0107D4  6E07               	movwf	___awdiv@divisor^0,c
  2800  0107D6  EC93  F086         	call	___awdiv	;wreg free
  2801  0107DA  5005               	movf	?___awdiv^0,w,c
  2802  0107DC  6E2C               	movwf	SetClock@secTPlace^0,c
  2803  0107DE                     
  2804                           ;rtc.c: 6:     uint8_t secOPlace = second - (secTPlace * 10);
  2805  0107DE  502C               	movf	SetClock@secTPlace^0,w,c
  2806  0107E0  0DF6               	mullw	246
  2807  0107E2  50F3               	movf	243,w,c
  2808  0107E4  241E               	addwf	SetClock@second^0,w,c
  2809  0107E6  6E1F               	movwf	SetClock@secOPlace^0,c
  2810  0107E8                     
  2811                           ;rtc.c: 7:     uint8_t minTPlace = (minute / 10);
  2812  0107E8  C01D  F005         	movff	SetClock@minute,___awdiv@dividend
  2813  0107EC  6A06               	clrf	(___awdiv@dividend+1)^0,c
  2814  0107EE  0E00               	movlw	0
  2815  0107F0  6E08               	movwf	(___awdiv@divisor+1)^0,c
  2816  0107F2  0E0A               	movlw	10
  2817  0107F4  6E07               	movwf	___awdiv@divisor^0,c
  2818  0107F6  EC93  F086         	call	___awdiv	;wreg free
  2819  0107FA  5005               	movf	?___awdiv^0,w,c
  2820  0107FC  6E2D               	movwf	SetClock@minTPlace^0,c
  2821                           
  2822                           ;rtc.c: 8:     uint8_t minOPlace = minute - (minTPlace * 10);
  2823  0107FE  502D               	movf	SetClock@minTPlace^0,w,c
  2824  010800  0DF6               	mullw	246
  2825  010802  50F3               	movf	243,w,c
  2826  010804  241D               	addwf	SetClock@minute^0,w,c
  2827  010806  6E20               	movwf	SetClock@minOPlace^0,c
  2828  010808                     
  2829                           ;rtc.c: 9:     uint8_t hourTPlace = (hour / 10);
  2830  010808  C01C  F005         	movff	SetClock@hour,___awdiv@dividend
  2831  01080C  6A06               	clrf	(___awdiv@dividend+1)^0,c
  2832  01080E  0E00               	movlw	0
  2833  010810  6E08               	movwf	(___awdiv@divisor+1)^0,c
  2834  010812  0E0A               	movlw	10
  2835  010814  6E07               	movwf	___awdiv@divisor^0,c
  2836  010816  EC93  F086         	call	___awdiv	;wreg free
  2837  01081A  5005               	movf	?___awdiv^0,w,c
  2838  01081C  6E2E               	movwf	SetClock@hourTPlace^0,c
  2839  01081E                     
  2840                           ;rtc.c: 10:     uint8_t hourOPlace = hour - (hourTPlace * 10);
  2841  01081E  502E               	movf	SetClock@hourTPlace^0,w,c
  2842  010820  0DF6               	mullw	246
  2843  010822  50F3               	movf	243,w,c
  2844  010824  241C               	addwf	SetClock@hour^0,w,c
  2845  010826  6E21               	movwf	SetClock@hourOPlace^0,c
  2846                           
  2847                           ;rtc.c: 11:     uint8_t dayOMTPlace = (dayOfMonth / 10);
  2848  010828  C01A  F005         	movff	SetClock@dayOfMonth,___awdiv@dividend
  2849  01082C  6A06               	clrf	(___awdiv@dividend+1)^0,c
  2850  01082E  0E00               	movlw	0
  2851  010830  6E08               	movwf	(___awdiv@divisor+1)^0,c
  2852  010832  0E0A               	movlw	10
  2853  010834  6E07               	movwf	___awdiv@divisor^0,c
  2854  010836  EC93  F086         	call	___awdiv	;wreg free
  2855  01083A  5005               	movf	?___awdiv^0,w,c
  2856  01083C  6E2F               	movwf	SetClock@dayOMTPlace^0,c
  2857  01083E                     
  2858                           ;rtc.c: 12:     uint8_t dayOMOPlace = dayOfMonth - (dayOMTPlace * 10);
  2859  01083E  502F               	movf	SetClock@dayOMTPlace^0,w,c
  2860  010840  0DF6               	mullw	246
  2861  010842  50F3               	movf	243,w,c
  2862  010844  241A               	addwf	SetClock@dayOfMonth^0,w,c
  2863  010846  6E22               	movwf	SetClock@dayOMOPlace^0,c
  2864  010848                     
  2865                           ;rtc.c: 13:     uint8_t monthTPlace = (month / 10);
  2866  010848  C019  F005         	movff	SetClock@month,___awdiv@dividend
  2867  01084C  6A06               	clrf	(___awdiv@dividend+1)^0,c
  2868  01084E  0E00               	movlw	0
  2869  010850  6E08               	movwf	(___awdiv@divisor+1)^0,c
  2870  010852  0E0A               	movlw	10
  2871  010854  6E07               	movwf	___awdiv@divisor^0,c
  2872  010856  EC93  F086         	call	___awdiv	;wreg free
  2873  01085A  5005               	movf	?___awdiv^0,w,c
  2874  01085C  6E30               	movwf	SetClock@monthTPlace^0,c
  2875                           
  2876                           ;rtc.c: 14:     uint8_t monthOPlace = month - (monthTPlace * 10);
  2877  01085E  5030               	movf	SetClock@monthTPlace^0,w,c
  2878  010860  0DF6               	mullw	246
  2879  010862  50F3               	movf	243,w,c
  2880  010864  2419               	addwf	SetClock@month^0,w,c
  2881  010866  6E23               	movwf	SetClock@monthOPlace^0,c
  2882  010868                     
  2883                           ;rtc.c: 15:     uint8_t yearTPlace = (year / 10);
  2884  010868  C02B  F005         	movff	SetClock@year,___awdiv@dividend
  2885  01086C  6A06               	clrf	(___awdiv@dividend+1)^0,c
  2886  01086E  0E00               	movlw	0
  2887  010870  6E08               	movwf	(___awdiv@divisor+1)^0,c
  2888  010872  0E0A               	movlw	10
  2889  010874  6E07               	movwf	___awdiv@divisor^0,c
  2890  010876  EC93  F086         	call	___awdiv	;wreg free
  2891  01087A  5005               	movf	?___awdiv^0,w,c
  2892  01087C  6E31               	movwf	SetClock@yearTPlace^0,c
  2893  01087E                     
  2894                           ;rtc.c: 16:     uint8_t yearOPlace = year - (yearTPlace * 10);
  2895  01087E  5031               	movf	SetClock@yearTPlace^0,w,c
  2896  010880  0DF6               	mullw	246
  2897  010882  50F3               	movf	243,w,c
  2898  010884  242B               	addwf	SetClock@year^0,w,c
  2899  010886  6E24               	movwf	SetClock@yearOPlace^0,c
  2900  010888                     
  2901                           ;rtc.c: 18:     uint8_t secToWrite = (secTPlace << 4) | secOPlace;
  2902  010888  382C               	swapf	SetClock@secTPlace^0,w,c
  2903  01088A  0BF0               	andlw	240
  2904  01088C  101F               	iorwf	SetClock@secOPlace^0,w,c
  2905  01088E  6E25               	movwf	SetClock@secToWrite^0,c
  2906  010890                     
  2907                           ;rtc.c: 19:     uint8_t minToWrite = (minTPlace << 4) | minOPlace;
  2908  010890  382D               	swapf	SetClock@minTPlace^0,w,c
  2909  010892  0BF0               	andlw	240
  2910  010894  1020               	iorwf	SetClock@minOPlace^0,w,c
  2911  010896  6E26               	movwf	SetClock@minToWrite^0,c
  2912  010898                     
  2913                           ;rtc.c: 20:     uint8_t hourToWrite = (hourTPlace << 4) | hourOPlace;
  2914  010898  382E               	swapf	SetClock@hourTPlace^0,w,c
  2915  01089A  0BF0               	andlw	240
  2916  01089C  1021               	iorwf	SetClock@hourOPlace^0,w,c
  2917  01089E  6E27               	movwf	SetClock@hourToWrite^0,c
  2918  0108A0                     
  2919                           ;rtc.c: 21:     uint8_t dayOfMonthToWrite = (dayOMTPlace << 4) | dayOMOPlace;
  2920  0108A0  382F               	swapf	SetClock@dayOMTPlace^0,w,c
  2921  0108A2  0BF0               	andlw	240
  2922  0108A4  1022               	iorwf	SetClock@dayOMOPlace^0,w,c
  2923  0108A6  6E28               	movwf	SetClock@dayOfMonthToWrite^0,c
  2924  0108A8                     
  2925                           ;rtc.c: 22:     uint8_t monthToWrite = (monthTPlace << 4) | monthOPlace;
  2926  0108A8  3830               	swapf	SetClock@monthTPlace^0,w,c
  2927  0108AA  0BF0               	andlw	240
  2928  0108AC  1023               	iorwf	SetClock@monthOPlace^0,w,c
  2929  0108AE  6E29               	movwf	SetClock@monthToWrite^0,c
  2930  0108B0                     
  2931                           ;rtc.c: 23:     uint8_t yearToWrite = (yearTPlace << 4) | yearOPlace;
  2932  0108B0  3831               	swapf	SetClock@yearTPlace^0,w,c
  2933  0108B2  0BF0               	andlw	240
  2934  0108B4  1024               	iorwf	SetClock@yearOPlace^0,w,c
  2935  0108B6  6E2A               	movwf	SetClock@yearToWrite^0,c
  2936  0108B8                     
  2937                           ;rtc.c: 24:     I2C1_Write1ByteRegister(0b1101000,0x00, secToWrite);
  2938  0108B8  0E00               	movlw	0
  2939  0108BA  6E16               	movwf	I2C1_Write1ByteRegister@reg^0,c
  2940  0108BC  C025  F017         	movff	SetClock@secToWrite,I2C1_Write1ByteRegister@data
  2941  0108C0  0E68               	movlw	104
  2942  0108C2  EC81  F08A         	call	_I2C1_Write1ByteRegister
  2943  0108C6                     
  2944                           ;rtc.c: 25:     I2C1_Write1ByteRegister(0b1101000,0x01, minToWrite);
  2945  0108C6  0E01               	movlw	1
  2946  0108C8  6E16               	movwf	I2C1_Write1ByteRegister@reg^0,c
  2947  0108CA  C026  F017         	movff	SetClock@minToWrite,I2C1_Write1ByteRegister@data
  2948  0108CE  0E68               	movlw	104
  2949  0108D0  EC81  F08A         	call	_I2C1_Write1ByteRegister
  2950  0108D4                     
  2951                           ;rtc.c: 26:     I2C1_Write1ByteRegister(0b1101000,0x02, hourToWrite);
  2952  0108D4  0E02               	movlw	2
  2953  0108D6  6E16               	movwf	I2C1_Write1ByteRegister@reg^0,c
  2954  0108D8  C027  F017         	movff	SetClock@hourToWrite,I2C1_Write1ByteRegister@data
  2955  0108DC  0E68               	movlw	104
  2956  0108DE  EC81  F08A         	call	_I2C1_Write1ByteRegister
  2957  0108E2                     
  2958                           ;rtc.c: 27:     I2C1_Write1ByteRegister(0b1101000,0x03, dayOfWeek);
  2959  0108E2  0E03               	movlw	3
  2960  0108E4  6E16               	movwf	I2C1_Write1ByteRegister@reg^0,c
  2961  0108E6  C01B  F017         	movff	SetClock@dayOfWeek,I2C1_Write1ByteRegister@data
  2962  0108EA  0E68               	movlw	104
  2963  0108EC  EC81  F08A         	call	_I2C1_Write1ByteRegister
  2964  0108F0                     
  2965                           ;rtc.c: 28:     I2C1_Write1ByteRegister(0b1101000,0x04, dayOfMonthToWrite);
  2966  0108F0  0E04               	movlw	4
  2967  0108F2  6E16               	movwf	I2C1_Write1ByteRegister@reg^0,c
  2968  0108F4  C028  F017         	movff	SetClock@dayOfMonthToWrite,I2C1_Write1ByteRegister@data
  2969  0108F8  0E68               	movlw	104
  2970  0108FA  EC81  F08A         	call	_I2C1_Write1ByteRegister
  2971  0108FE                     
  2972                           ;rtc.c: 29:     I2C1_Write1ByteRegister(0b1101000,0x05, monthToWrite);
  2973  0108FE  0E05               	movlw	5
  2974  010900  6E16               	movwf	I2C1_Write1ByteRegister@reg^0,c
  2975  010902  C029  F017         	movff	SetClock@monthToWrite,I2C1_Write1ByteRegister@data
  2976  010906  0E68               	movlw	104
  2977  010908  EC81  F08A         	call	_I2C1_Write1ByteRegister
  2978  01090C                     
  2979                           ;rtc.c: 30:     I2C1_Write1ByteRegister(0b1101000,0x06, yearToWrite);
  2980  01090C  0E06               	movlw	6
  2981  01090E  6E16               	movwf	I2C1_Write1ByteRegister@reg^0,c
  2982  010910  C02A  F017         	movff	SetClock@yearToWrite,I2C1_Write1ByteRegister@data
  2983  010914  0E68               	movlw	104
  2984  010916  EC81  F08A         	call	_I2C1_Write1ByteRegister
  2985  01091A  0012               	return		;funcret
  2986  01091C                     __end_of_SetClock:
  2987                           	callstack 0
  2988                           
  2989 ;; *************** function _I2C1_Write1ByteRegister *****************
  2990 ;; Defined at:
  2991 ;;		line 91 in file "mcc_generated_files/examples/i2c1_master_example.c"
  2992 ;; Parameters:    Size  Location     Type
  2993 ;;  address         1    wreg     unsigned char 
  2994 ;;  reg             1   21[COMRAM] unsigned char 
  2995 ;;  data            1   22[COMRAM] unsigned char 
  2996 ;; Auto vars:     Size  Location     Type
  2997 ;;  address         1   23[COMRAM] unsigned char 
  2998 ;; Return value:  Size  Location     Type
  2999 ;;                  1    wreg      void 
  3000 ;; Registers used:
  3001 ;;		wreg, fsr2l, fsr2h, status,2, status,0, pcl, pclath, pclatu, tosl, tblptrl, tblptrh, tblptru, prodl, prodh, cstack
  3002 ;; Tracked objects:
  3003 ;;		On entry : 0/0
  3004 ;;		On exit  : 0/0
  3005 ;;		Unchanged: 0/0
  3006 ;; Data sizes:     COMRAM   BANK0   BANK1   BANK2   BANK3   BANK4   BANK5   BANK6   BANK7   BANK8   BANK9  BANK10  BANK1
      +1  BANK12  BANK13  BANK14
  3007 ;;      Params:         2       0       0       0       0       0       0       0       0       0       0       0       
      +0       0       0       0
  3008 ;;      Locals:         1       0       0       0       0       0       0       0       0       0       0       0       
      +0       0       0       0
  3009 ;;      Temps:          0       0       0       0       0       0       0       0       0       0       0       0       
      +0       0       0       0
  3010 ;;      Totals:         3       0       0       0       0       0       0       0       0       0       0       0       
      +0       0       0       0
  3011 ;;Total ram usage:        3 bytes
  3012 ;; Hardware stack levels used: 1
  3013 ;; Hardware stack levels required when called: 12
  3014 ;; This function calls:
  3015 ;;		_I2C1_Close
  3016 ;;		_I2C1_MasterWrite
  3017 ;;		_I2C1_Open
  3018 ;;		_I2C1_SetAddressNackCallback
  3019 ;;		_I2C1_SetBuffer
  3020 ;;		_I2C1_SetDataCompleteCallback
  3021 ;; This function is called by:
  3022 ;;		_SetClock
  3023 ;; This function uses a non-reentrant model
  3024 ;;
  3025                           
  3026                           	psect	text11
  3027  011502                     __ptext11:
  3028                           	callstack 0
  3029  011502                     _I2C1_Write1ByteRegister:
  3030                           	callstack 14
  3031                           
  3032                           ;incstack = 0
  3033                           ;I2C1_Write1ByteRegister@address stored from wreg
  3034  011502  6E18               	movwf	I2C1_Write1ByteRegister@address^0,c
  3035  011504                     l12528:
  3036  011504  5018               	movf	I2C1_Write1ByteRegister@address^0,w,c
  3037  011506  EC4E  F088         	call	_I2C1_Open
  3038  01150A  0900               	iorlw	0
  3039  01150C  B4D8               	btfsc	status,2,c
  3040  01150E  EF8B  F08A         	goto	u14771
  3041  011512  EF8D  F08A         	goto	u14770
  3042  011516                     u14771:
  3043  011516  EF82  F08A         	goto	l12528
  3044  01151A                     u14770:
  3045  01151A                     
  3046                           ;mcc_generated_files/examples/i2c1_master_example.c: 94:     I2C1_SetDataCompleteCallbac
      +                          k(wr1RegCompleteHandler,&data);
  3047  01151A  0EB4               	movlw	low _wr1RegCompleteHandler
  3048  01151C  6E0B               	movwf	I2C1_SetDataCompleteCallback@cb^0,c
  3049  01151E  0E18               	movlw	high _wr1RegCompleteHandler
  3050  011520  6E0C               	movwf	(I2C1_SetDataCompleteCallback@cb+1)^0,c
  3051  011522  0E01               	movlw	low (_wr1RegCompleteHandler shr (0+16))
  3052  011524  6E0D               	movwf	(I2C1_SetDataCompleteCallback@cb+2)^0,c
  3053  011526  0E17               	movlw	low I2C1_Write1ByteRegister@data
  3054  011528  6E0E               	movwf	I2C1_SetDataCompleteCallback@ptr^0,c
  3055  01152A  0E00               	movlw	high I2C1_Write1ByteRegister@data
  3056  01152C  6E0F               	movwf	(I2C1_SetDataCompleteCallback@ptr+1)^0,c
  3057  01152E  EC7F  F08D         	call	_I2C1_SetDataCompleteCallback	;wreg free
  3058  011532                     
  3059                           ;mcc_generated_files/examples/i2c1_master_example.c: 95:     I2C1_SetBuffer(&reg,1);
  3060  011532  0E16               	movlw	low I2C1_Write1ByteRegister@reg
  3061  011534  6E05               	movwf	I2C1_SetBuffer@buffer^0,c
  3062  011536  0E00               	movlw	high I2C1_Write1ByteRegister@reg
  3063  011538  6E06               	movwf	(I2C1_SetBuffer@buffer+1)^0,c
  3064  01153A  0E00               	movlw	0
  3065  01153C  6E08               	movwf	(I2C1_SetBuffer@bufferSize+1)^0,c
  3066  01153E  0E01               	movlw	1
  3067  011540  6E07               	movwf	I2C1_SetBuffer@bufferSize^0,c
  3068  011542  EC1E  F08D         	call	_I2C1_SetBuffer	;wreg free
  3069  011546                     
  3070                           ;mcc_generated_files/examples/i2c1_master_example.c: 96:     I2C1_SetAddressNackCallback
      +                          (((void*)0),((void*)0));
  3071  011546  0E00               	movlw	0
  3072  011548  6E0B               	movwf	I2C1_SetAddressNackCallback@cb^0,c
  3073  01154A  0E00               	movlw	0
  3074  01154C  6E0C               	movwf	(I2C1_SetAddressNackCallback@cb+1)^0,c
  3075  01154E  0E00               	movlw	0
  3076  011550  6E0D               	movwf	(I2C1_SetAddressNackCallback@cb+2)^0,c
  3077  011552  0E00               	movlw	0
  3078  011554  6E0E               	movwf	I2C1_SetAddressNackCallback@ptr^0,c
  3079  011556  0E00               	movlw	0
  3080  011558  6E0F               	movwf	(I2C1_SetAddressNackCallback@ptr+1)^0,c
  3081  01155A  EC71  F08D         	call	_I2C1_SetAddressNackCallback	;wreg free
  3082  01155E                     
  3083                           ;mcc_generated_files/examples/i2c1_master_example.c: 97:     I2C1_MasterWrite();
  3084  01155E  EC06  F08E         	call	_I2C1_MasterWrite	;wreg free
  3085  011562                     l12538:
  3086  011562  ECBA  F08C         	call	_I2C1_Close	;wreg free
  3087  011566  06E8               	decf	wreg,f,c
  3088  011568  B4D8               	btfsc	status,2,c
  3089  01156A  EFB9  F08A         	goto	u14781
  3090  01156E  EFBB  F08A         	goto	u14780
  3091  011572                     u14781:
  3092  011572  EFB1  F08A         	goto	l12538
  3093  011576                     u14780:
  3094  011576  0012               	return		;funcret
  3095  011578                     __end_of_I2C1_Write1ByteRegister:
  3096                           	callstack 0
  3097                           
  3098 ;; *************** function _rtcGetClk *****************
  3099 ;; Defined at:
  3100 ;;		line 52 in file "rtcdrv.c"
  3101 ;; Parameters:    Size  Location     Type
  3102 ;;		None
  3103 ;; Auto vars:     Size  Location     Type
  3104 ;;  t              24    8[BANK0 ] struct tm
  3105 ;;  bufferOut       8    0[BANK0 ] unsigned char [8]
  3106 ;; Return value:  Size  Location     Type
  3107 ;;                  1    wreg      void 
  3108 ;; Registers used:
  3109 ;;		wreg, fsr0l, fsr0h, fsr2l, fsr2h, status,2, status,0, pcl, pclath, pclatu, tosl, tblptrl, tblptrh, tblptru, prodl, p
      +rodh, cstack
  3110 ;; Tracked objects:
  3111 ;;		On entry : 0/0
  3112 ;;		On exit  : 0/0
  3113 ;;		Unchanged: 0/0
  3114 ;; Data sizes:     COMRAM   BANK0   BANK1   BANK2   BANK3   BANK4   BANK5   BANK6   BANK7   BANK8   BANK9  BANK10  BANK1
      +1  BANK12  BANK13  BANK14
  3115 ;;      Params:         0       0       0       0       0       0       0       0       0       0       0       0       
      +0       0       0       0
  3116 ;;      Locals:         0      32       0       0       0       0       0       0       0       0       0       0       
      +0       0       0       0
  3117 ;;      Temps:          0       0       0       0       0       0       0       0       0       0       0       0       
      +0       0       0       0
  3118 ;;      Totals:         0      32       0       0       0       0       0       0       0       0       0       0       
      +0       0       0       0
  3119 ;;Total ram usage:       32 bytes
  3120 ;; Hardware stack levels used: 1
  3121 ;; Hardware stack levels required when called: 14
  3122 ;; This function calls:
  3123 ;;		_ReadClock
  3124 ;;		___awdiv
  3125 ;;		_sendBuffer
  3126 ;;		_sendBufferLen
  3127 ;; This function is called by:
  3128 ;;		_processRTC
  3129 ;; This function uses a non-reentrant model
  3130 ;;
  3131                           
  3132                           	psect	text12
  3133  0111DE                     __ptext12:
  3134                           	callstack 0
  3135  0111DE                     _rtcGetClk:
  3136                           	callstack 14
  3137  0111DE                     
  3138                           ;rtcdrv.c: 53:     struct tm t = ReadClock();
  3139  0111DE  EC60  F082         	call	_ReadClock	;wreg free
  3140  0111E2  EE20  F0CE         	lfsr	2,rtcGetClk@t
  3141  0111E6  0E17               	movlw	23
  3142  0111E8                     u15171:
  3143  0111E8  CFEB FFDB          	movff	plusw0,plusw2
  3144  0111EC  06E8               	decf	wreg,f,c
  3145  0111EE  E2FC               	bc	u15171
  3146  0111F0                     
  3147                           ;rtcdrv.c: 54:     BYTE bufferOut[8] = {(t.tm_year+1900)/100, (t.tm_year+1900) - (((t.tm
      +                          _year+1900) / 1000) * 1000), t.tm_mon+1, t.tm_mday, t.tm_wday+1, t.tm_hour, t.tm_min, t.
      +                          tm_sec};
  3148  0111F0  EE20  F0C6         	lfsr	2,rtcGetClk@bufferOut
  3149  0111F4  0E07               	movlw	7
  3150  0111F6                     u15181:
  3151  0111F6  6ADE               	clrf	postinc2,c
  3152  0111F8  06E8               	decf	wreg,f,c
  3153  0111FA  E2FD               	bc	u15181
  3154  0111FC  0E6C               	movlw	108
  3155  0111FE  0100               	movlb	0	; () banked
  3156  011200  25D8               	addwf	(rtcGetClk@t+10)& (0+255),w,b
  3157  011202  6E05               	movwf	___awdiv@dividend^0,c
  3158  011204  0E07               	movlw	7
  3159  011206  21D9               	addwfc	(rtcGetClk@t+11)& (0+255),w,b
  3160  011208  6E06               	movwf	(___awdiv@dividend+1)^0,c
  3161  01120A  0E00               	movlw	0
  3162  01120C  6E08               	movwf	(___awdiv@divisor+1)^0,c
  3163  01120E  0E64               	movlw	100
  3164  011210  6E07               	movwf	___awdiv@divisor^0,c
  3165  011212  EC93  F086         	call	___awdiv	;wreg free
  3166  011216  5005               	movf	?___awdiv^0,w,c
  3167  011218  0100               	movlb	0	; () banked
  3168  01121A  6FC6               	movwf	rtcGetClk@bufferOut& (0+255),b
  3169  01121C                     
  3170                           ; BSR set to: 0
  3171  01121C  0E6C               	movlw	108
  3172  01121E  25D8               	addwf	(rtcGetClk@t+10)& (0+255),w,b
  3173  011220  6E05               	movwf	___awdiv@dividend^0,c
  3174  011222  0E07               	movlw	7
  3175  011224  21D9               	addwfc	(rtcGetClk@t+11)& (0+255),w,b
  3176  011226  6E06               	movwf	(___awdiv@dividend+1)^0,c
  3177  011228  0E03               	movlw	3
  3178  01122A  6E08               	movwf	(___awdiv@divisor+1)^0,c
  3179  01122C  0EE8               	movlw	232
  3180  01122E  6E07               	movwf	___awdiv@divisor^0,c
  3181  011230  EC93  F086         	call	___awdiv	;wreg free
  3182  011234  5005               	movf	?___awdiv^0,w,c
  3183  011236  0D18               	mullw	24
  3184  011238  50F3               	movf	243,w,c
  3185  01123A  0100               	movlb	0	; () banked
  3186  01123C  25D8               	addwf	(rtcGetClk@t+10)& (0+255),w,b
  3187  01123E  0F6C               	addlw	108
  3188  011240  6FC7               	movwf	(rtcGetClk@bufferOut+1)& (0+255),b
  3189  011242                     
  3190                           ; BSR set to: 0
  3191  011242  29D6               	incf	(rtcGetClk@t+8)& (0+255),w,b
  3192  011244  6FC8               	movwf	(rtcGetClk@bufferOut+2)& (0+255),b
  3193  011246                     
  3194                           ; BSR set to: 0
  3195  011246  C0D4  F0C9         	movff	rtcGetClk@t+6,rtcGetClk@bufferOut+3
  3196  01124A                     
  3197                           ; BSR set to: 0
  3198  01124A  29DA               	incf	(rtcGetClk@t+12)& (0+255),w,b
  3199  01124C  6FCA               	movwf	(rtcGetClk@bufferOut+4)& (0+255),b
  3200  01124E                     
  3201                           ; BSR set to: 0
  3202  01124E  C0D2  F0CB         	movff	rtcGetClk@t+4,rtcGetClk@bufferOut+5
  3203  011252                     
  3204                           ; BSR set to: 0
  3205  011252  C0D0  F0CC         	movff	rtcGetClk@t+2,rtcGetClk@bufferOut+6
  3206  011256                     
  3207                           ; BSR set to: 0
  3208  011256  C0CE  F0CD         	movff	rtcGetClk@t,rtcGetClk@bufferOut+7
  3209  01125A                     
  3210                           ; BSR set to: 0
  3211                           ;rtcdrv.c: 55:     sendBufferLen(8);
  3212  01125A  0E00               	movlw	0
  3213  01125C  6E14               	movwf	(sendBufferLen@bufferLen+1)^0,c
  3214  01125E  0E08               	movlw	8
  3215  011260  6E13               	movwf	sendBufferLen@bufferLen^0,c
  3216  011262  ECF8  F08C         	call	_sendBufferLen	;wreg free
  3217  011266                     
  3218                           ;rtcdrv.c: 56:     sendBuffer(bufferOut,8);
  3219  011266  0EC6               	movlw	low rtcGetClk@bufferOut
  3220  011268  6E05               	movwf	sendBuffer@buff^0,c
  3221  01126A  0E00               	movlw	high rtcGetClk@bufferOut
  3222  01126C  6E06               	movwf	(sendBuffer@buff+1)^0,c
  3223  01126E  0E00               	movlw	0
  3224  011270  6E08               	movwf	(sendBuffer@size+1)^0,c
  3225  011272  0E08               	movlw	8
  3226  011274  6E07               	movwf	sendBuffer@size^0,c
  3227  011276  ECB2  F085         	call	_sendBuffer	;wreg free
  3228  01127A  0012               	return		;funcret
  3229  01127C                     __end_of_rtcGetClk:
  3230                           	callstack 0
  3231                           
  3232 ;; *************** function _rtcGetAClk *****************
  3233 ;; Defined at:
  3234 ;;		line 43 in file "rtcdrv.c"
  3235 ;; Parameters:    Size  Location     Type
  3236 ;;		None
  3237 ;; Auto vars:     Size  Location     Type
  3238 ;;  t              24    4[BANK0 ] struct tm
  3239 ;;  outSize         2    2[BANK0 ] unsigned int 
  3240 ;;  bufferOut       2    0[BANK0 ] PTR unsigned char 
  3241 ;;		 -> asctime@buf(27), 
  3242 ;; Return value:  Size  Location     Type
  3243 ;;                  1    wreg      void 
  3244 ;; Registers used:
  3245 ;;		wreg, fsr0l, fsr0h, fsr2l, fsr2h, status,2, status,0, pcl, pclath, pclatu, tosl, tblptrl, tblptrh, tblptru, prodl, p
      +rodh, cstack
  3246 ;; Tracked objects:
  3247 ;;		On entry : 0/0
  3248 ;;		On exit  : 0/0
  3249 ;;		Unchanged: 0/0
  3250 ;; Data sizes:     COMRAM   BANK0   BANK1   BANK2   BANK3   BANK4   BANK5   BANK6   BANK7   BANK8   BANK9  BANK10  BANK1
      +1  BANK12  BANK13  BANK14
  3251 ;;      Params:         0       0       0       0       0       0       0       0       0       0       0       0       
      +0       0       0       0
  3252 ;;      Locals:         0      28       0       0       0       0       0       0       0       0       0       0       
      +0       0       0       0
  3253 ;;      Temps:          2       0       0       0       0       0       0       0       0       0       0       0       
      +0       0       0       0
  3254 ;;      Totals:         2      28       0       0       0       0       0       0       0       0       0       0       
      +0       0       0       0
  3255 ;;Total ram usage:       30 bytes
  3256 ;; Hardware stack levels used: 1
  3257 ;; Hardware stack levels required when called: 14
  3258 ;; This function calls:
  3259 ;;		_ReadClock
  3260 ;;		_asctime
  3261 ;;		_sendBuffer
  3262 ;;		_sendBufferLen
  3263 ;;		_strlen
  3264 ;; This function is called by:
  3265 ;;		_processRTC
  3266 ;; This function uses a non-reentrant model
  3267 ;;
  3268                           
  3269                           	psect	text13
  3270  01127C                     __ptext13:
  3271                           	callstack 0
  3272  01127C                     _rtcGetAClk:
  3273                           	callstack 14
  3274  01127C                     
  3275                           ;rtcdrv.c: 44:     struct tm t = ReadClock();
  3276  01127C  EC60  F082         	call	_ReadClock	;wreg free
  3277  011280  EE20  F0CA         	lfsr	2,rtcGetAClk@t
  3278  011284  0E17               	movlw	23
  3279  011286                     u15161:
  3280  011286  CFEB FFDB          	movff	plusw0,plusw2
  3281  01128A  06E8               	decf	wreg,f,c
  3282  01128C  E2FC               	bc	u15161
  3283  01128E                     
  3284                           ;rtcdrv.c: 45:     char * bufferOut = asctime(&t);
  3285  01128E  0ECA               	movlw	low rtcGetAClk@t
  3286  011290  6E12               	movwf	asctime@tim^0,c
  3287  011292  0E00               	movlw	high rtcGetAClk@t
  3288  011294  6E13               	movwf	(asctime@tim+1)^0,c
  3289  011296  EC3D  F081         	call	_asctime	;wreg free
  3290  01129A  C012  F0C6         	movff	?_asctime,rtcGetAClk@bufferOut
  3291  01129E  C013  F0C7         	movff	?_asctime+1,rtcGetAClk@bufferOut+1
  3292  0112A2                     
  3293                           ;rtcdrv.c: 46:     size_t outSize = strlen(bufferOut)+1;
  3294  0112A2  C0C6  F005         	movff	rtcGetAClk@bufferOut,strlen@s
  3295  0112A6  C0C7  F006         	movff	rtcGetAClk@bufferOut+1,strlen@s+1
  3296  0112AA  EC26  F08C         	call	_strlen	;wreg free
  3297  0112AE  0E01               	movlw	1
  3298  0112B0  2405               	addwf	?_strlen^0,w,c
  3299  0112B2  0100               	movlb	0	; () banked
  3300  0112B4  6FC8               	movwf	rtcGetAClk@outSize& (0+255),b
  3301  0112B6  0E00               	movlw	0
  3302  0112B8  2006               	addwfc	(?_strlen+1)^0,w,c
  3303  0112BA  6FC9               	movwf	(rtcGetAClk@outSize+1)& (0+255),b
  3304  0112BC                     
  3305                           ; BSR set to: 0
  3306                           ;rtcdrv.c: 47:     bufferOut[(--outSize)-1] = 0;
  3307  0112BC  07C8               	decf	rtcGetAClk@outSize& (0+255),f,b
  3308  0112BE  A0D8               	btfss	status,0,c
  3309  0112C0  07C9               	decf	(rtcGetAClk@outSize+1)& (0+255),f,b
  3310  0112C2  51C8               	movf	rtcGetAClk@outSize& (0+255),w,b
  3311  0112C4  25C6               	addwf	rtcGetAClk@bufferOut& (0+255),w,b
  3312  0112C6  6E54               	movwf	??_rtcGetAClk^0,c
  3313  0112C8  51C9               	movf	(rtcGetAClk@outSize+1)& (0+255),w,b
  3314  0112CA  21C7               	addwfc	(rtcGetAClk@bufferOut+1)& (0+255),w,b
  3315  0112CC  6E55               	movwf	(??_rtcGetAClk+1)^0,c
  3316  0112CE  0EFF               	movlw	255
  3317  0112D0  2454               	addwf	??_rtcGetAClk^0,w,c
  3318  0112D2  6ED9               	movwf	fsr2l,c
  3319  0112D4  0EFF               	movlw	255
  3320  0112D6  2055               	addwfc	(??_rtcGetAClk+1)^0,w,c
  3321  0112D8  6EDA               	movwf	fsr2h,c
  3322  0112DA  0E00               	movlw	0
  3323  0112DC  6EDF               	movwf	indf2,c
  3324  0112DE                     
  3325                           ; BSR set to: 0
  3326                           ;rtcdrv.c: 48:     sendBufferLen(outSize);
  3327  0112DE  C0C8  F013         	movff	rtcGetAClk@outSize,sendBufferLen@bufferLen
  3328  0112E2  C0C9  F014         	movff	rtcGetAClk@outSize+1,sendBufferLen@bufferLen+1
  3329  0112E6  ECF8  F08C         	call	_sendBufferLen	;wreg free
  3330  0112EA                     
  3331                           ;rtcdrv.c: 49:     sendBuffer(bufferOut, outSize);
  3332  0112EA  C0C6  F005         	movff	rtcGetAClk@bufferOut,sendBuffer@buff
  3333  0112EE  C0C7  F006         	movff	rtcGetAClk@bufferOut+1,sendBuffer@buff+1
  3334  0112F2  C0C8  F007         	movff	rtcGetAClk@outSize,sendBuffer@size
  3335  0112F6  C0C9  F008         	movff	rtcGetAClk@outSize+1,sendBuffer@size+1
  3336  0112FA  ECB2  F085         	call	_sendBuffer	;wreg free
  3337  0112FE  0012               	return		;funcret
  3338  011300                     __end_of_rtcGetAClk:
  3339                           	callstack 0
  3340                           
  3341 ;; *************** function _strlen *****************
  3342 ;; Defined at:
  3343 ;;		line 5 in file "C:\Program Files\Microchip\xc8\v2.36\pic\sources\c99\common\strlen.c"
  3344 ;; Parameters:    Size  Location     Type
  3345 ;;  s               2    4[COMRAM] PTR const unsigned char 
  3346 ;;		 -> asctime@buf(27), 
  3347 ;; Auto vars:     Size  Location     Type
  3348 ;;  a               2    6[COMRAM] PTR const unsigned char 
  3349 ;;		 -> asctime@buf(27), 
  3350 ;; Return value:  Size  Location     Type
  3351 ;;                  2    4[COMRAM] unsigned int 
  3352 ;; Registers used:
  3353 ;;		wreg, fsr2l, fsr2h, status,2, status,0
  3354 ;; Tracked objects:
  3355 ;;		On entry : 0/0
  3356 ;;		On exit  : 0/0
  3357 ;;		Unchanged: 0/0
  3358 ;; Data sizes:     COMRAM   BANK0   BANK1   BANK2   BANK3   BANK4   BANK5   BANK6   BANK7   BANK8   BANK9  BANK10  BANK1
      +1  BANK12  BANK13  BANK14
  3359 ;;      Params:         2       0       0       0       0       0       0       0       0       0       0       0       
      +0       0       0       0
  3360 ;;      Locals:         2       0       0       0       0       0       0       0       0       0       0       0       
      +0       0       0       0
  3361 ;;      Temps:          0       0       0       0       0       0       0       0       0       0       0       0       
      +0       0       0       0
  3362 ;;      Totals:         4       0       0       0       0       0       0       0       0       0       0       0       
      +0       0       0       0
  3363 ;;Total ram usage:        4 bytes
  3364 ;; Hardware stack levels used: 1
  3365 ;; Hardware stack levels required when called: 4
  3366 ;; This function calls:
  3367 ;;		Nothing
  3368 ;; This function is called by:
  3369 ;;		_rtcGetAClk
  3370 ;; This function uses a non-reentrant model
  3371 ;;
  3372                           
  3373                           	psect	text14
  3374  01184C                     __ptext14:
  3375                           	callstack 0
  3376  01184C                     _strlen:
  3377                           	callstack 23
  3378  01184C  C005  F007         	movff	strlen@s,strlen@a
  3379  011850  C006  F008         	movff	strlen@s+1,strlen@a+1
  3380  011854  EF2E  F08C         	goto	l12854
  3381  011858                     l12852:
  3382  011858  4A05               	infsnz	strlen@s^0,f,c
  3383  01185A  2A06               	incf	(strlen@s+1)^0,f,c
  3384  01185C                     l12854:
  3385  01185C  C005  FFD9         	movff	strlen@s,fsr2l
  3386  011860  C006  FFDA         	movff	strlen@s+1,fsr2h
  3387  011864  50DF               	movf	indf2,w,c
  3388  011866  A4D8               	btfss	status,2,c
  3389  011868  EF38  F08C         	goto	u15051
  3390  01186C  EF3A  F08C         	goto	u15050
  3391  011870                     u15051:
  3392  011870  EF2C  F08C         	goto	l12852
  3393  011874                     u15050:
  3394  011874  5007               	movf	strlen@a^0,w,c
  3395  011876  5C05               	subwf	strlen@s^0,w,c
  3396  011878  6E05               	movwf	?_strlen^0,c
  3397  01187A  5008               	movf	(strlen@a+1)^0,w,c
  3398  01187C  5806               	subwfb	(strlen@s+1)^0,w,c
  3399  01187E  6E06               	movwf	(?_strlen+1)^0,c
  3400  011880  0012               	return		;funcret
  3401  011882                     __end_of_strlen:
  3402                           	callstack 0
  3403                           
  3404 ;; *************** function _sendBufferLen *****************
  3405 ;; Defined at:
  3406 ;;		line 24 in file "rtcdrv.c"
  3407 ;; Parameters:    Size  Location     Type
  3408 ;;  bufferLen       2   18[COMRAM] unsigned int 
  3409 ;; Auto vars:     Size  Location     Type
  3410 ;;  outbuff         2   20[COMRAM] unsigned char [2]
  3411 ;; Return value:  Size  Location     Type
  3412 ;;                  1    wreg      void 
  3413 ;; Registers used:
  3414 ;;		wreg, fsr2l, fsr2h, status,2, status,0, cstack
  3415 ;; Tracked objects:
  3416 ;;		On entry : 0/0
  3417 ;;		On exit  : 0/0
  3418 ;;		Unchanged: 0/0
  3419 ;; Data sizes:     COMRAM   BANK0   BANK1   BANK2   BANK3   BANK4   BANK5   BANK6   BANK7   BANK8   BANK9  BANK10  BANK1
      +1  BANK12  BANK13  BANK14
  3420 ;;      Params:         2       0       0       0       0       0       0       0       0       0       0       0       
      +0       0       0       0
  3421 ;;      Locals:         2       0       0       0       0       0       0       0       0       0       0       0       
      +0       0       0       0
  3422 ;;      Temps:          0       0       0       0       0       0       0       0       0       0       0       0       
      +0       0       0       0
  3423 ;;      Totals:         4       0       0       0       0       0       0       0       0       0       0       0       
      +0       0       0       0
  3424 ;;Total ram usage:        4 bytes
  3425 ;; Hardware stack levels used: 1
  3426 ;; Hardware stack levels required when called: 5
  3427 ;; This function calls:
  3428 ;;		_sendBuffer
  3429 ;; This function is called by:
  3430 ;;		_rtcGetAClk
  3431 ;;		_rtcGetClk
  3432 ;; This function uses a non-reentrant model
  3433 ;;
  3434                           
  3435                           	psect	text15
  3436  0119F0                     __ptext15:
  3437                           	callstack 0
  3438  0119F0                     _sendBufferLen:
  3439                           	callstack 22
  3440  0119F0                     
  3441                           ;rtcdrv.c: 25:     char outbuff[2] = {bufferLen, bufferLen >> 8};
  3442  0119F0  0E00               	movlw	0
  3443  0119F2  6E16               	movwf	(sendBufferLen@outbuff+1)^0,c
  3444  0119F4  0E00               	movlw	0
  3445  0119F6  6E15               	movwf	sendBufferLen@outbuff^0,c
  3446  0119F8  C013  F015         	movff	sendBufferLen@bufferLen,sendBufferLen@outbuff
  3447  0119FC  5014               	movf	(sendBufferLen@bufferLen+1)^0,w,c
  3448  0119FE  6E16               	movwf	(sendBufferLen@outbuff+1)^0,c
  3449  011A00                     
  3450                           ;rtcdrv.c: 26:     sendBuffer(outbuff, 2);
  3451  011A00  0E15               	movlw	low sendBufferLen@outbuff
  3452  011A02  6E05               	movwf	sendBuffer@buff^0,c
  3453  011A04  0E00               	movlw	high sendBufferLen@outbuff
  3454  011A06  6E06               	movwf	(sendBuffer@buff+1)^0,c
  3455  011A08  0E00               	movlw	0
  3456  011A0A  6E08               	movwf	(sendBuffer@size+1)^0,c
  3457  011A0C  0E02               	movlw	2
  3458  011A0E  6E07               	movwf	sendBuffer@size^0,c
  3459  011A10  ECB2  F085         	call	_sendBuffer	;wreg free
  3460  011A14  0012               	return		;funcret
  3461  011A16                     __end_of_sendBufferLen:
  3462                           	callstack 0
  3463                           
  3464 ;; *************** function _sendBuffer *****************
  3465 ;; Defined at:
  3466 ;;		line 13 in file "rtcdrv.c"
  3467 ;; Parameters:    Size  Location     Type
  3468 ;;  buff            2    4[COMRAM] PTR unsigned char 
  3469 ;;		 -> asctime@buf(27), rtcGetClk@bufferOut(8), sendBufferLen@outbuff(2), 
  3470 ;;  size            2    6[COMRAM] unsigned int 
  3471 ;; Auto vars:     Size  Location     Type
  3472 ;;  x               2   12[COMRAM] int 
  3473 ;;  x               2   10[COMRAM] int 
  3474 ;;  x               2   16[COMRAM] int 
  3475 ;;  x               2   14[COMRAM] int 
  3476 ;;  i               2    8[COMRAM] int 
  3477 ;; Return value:  Size  Location     Type
  3478 ;;                  1    wreg      void 
  3479 ;; Registers used:
  3480 ;;		wreg, fsr2l, fsr2h, status,2, status,0
  3481 ;; Tracked objects:
  3482 ;;		On entry : 0/0
  3483 ;;		On exit  : 0/0
  3484 ;;		Unchanged: 0/0
  3485 ;; Data sizes:     COMRAM   BANK0   BANK1   BANK2   BANK3   BANK4   BANK5   BANK6   BANK7   BANK8   BANK9  BANK10  BANK1
      +1  BANK12  BANK13  BANK14
  3486 ;;      Params:         4       0       0       0       0       0       0       0       0       0       0       0       
      +0       0       0       0
  3487 ;;      Locals:        10       0       0       0       0       0       0       0       0       0       0       0       
      +0       0       0       0
  3488 ;;      Temps:          0       0       0       0       0       0       0       0       0       0       0       0       
      +0       0       0       0
  3489 ;;      Totals:        14       0       0       0       0       0       0       0       0       0       0       0       
      +0       0       0       0
  3490 ;;Total ram usage:       14 bytes
  3491 ;; Hardware stack levels used: 1
  3492 ;; Hardware stack levels required when called: 4
  3493 ;; This function calls:
  3494 ;;		Nothing
  3495 ;; This function is called by:
  3496 ;;		_sendBufferLen
  3497 ;;		_rtcGetAClk
  3498 ;;		_rtcGetClk
  3499 ;; This function uses a non-reentrant model
  3500 ;;
  3501                           
  3502                           	psect	text16
  3503  010B64                     __ptext16:
  3504                           	callstack 0
  3505  010B64                     _sendBuffer:
  3506                           	callstack 22
  3507  010B64                     
  3508                           ;rtcdrv.c: 14:     TRISA = 0x00;
  3509  010B64  0E00               	movlw	0
  3510  010B66  6E88               	movwf	136,c	;volatile
  3511                           
  3512                           ;rtcdrv.c: 15:     int i = 0;
  3513  010B68  0E00               	movlw	0
  3514  010B6A  6E0A               	movwf	(sendBuffer@i+1)^0,c
  3515  010B6C  0E00               	movlw	0
  3516  010B6E  6E09               	movwf	sendBuffer@i^0,c
  3517                           
  3518                           ;rtcdrv.c: 16:     while (i < size) {
  3519  010B70  EFF7  F085         	goto	l12566
  3520  010B74                     l12542:
  3521                           
  3522                           ;rtcdrv.c: 17:         PORTA = buff[i++];
  3523  010B74  5009               	movf	sendBuffer@i^0,w,c
  3524  010B76  2405               	addwf	sendBuffer@buff^0,w,c
  3525  010B78  6ED9               	movwf	fsr2l,c
  3526  010B7A  500A               	movf	(sendBuffer@i+1)^0,w,c
  3527  010B7C  2006               	addwfc	(sendBuffer@buff+1)^0,w,c
  3528  010B7E  6EDA               	movwf	fsr2h,c
  3529  010B80  50DF               	movf	indf2,w,c
  3530  010B82  6E8D               	movwf	141,c	;volatile
  3531  010B84  4A09               	infsnz	sendBuffer@i^0,f,c
  3532  010B86  2A0A               	incf	(sendBuffer@i+1)^0,f,c
  3533  010B88                     
  3534                           ;rtcdrv.c: 18:         for (int x = 0; x < 500; ++x) __nop();;do { LATCbits.LATC0 = 0; }
      +                           while(0);for (int x = 0; x < 500; ++x) __nop();;do { LATCbits.LATC0 = 1; } while(0);;
  3535  010B88  0E00               	movlw	0
  3536  010B8A  6E0C               	movwf	(sendBuffer@x+1)^0,c
  3537  010B8C  0E00               	movlw	0
  3538  010B8E  6E0B               	movwf	sendBuffer@x^0,c
  3539  010B90                     l1912:
  3540  010B90  F000               	nop	
  3541  010B92  4A0B               	infsnz	sendBuffer@x^0,f,c
  3542  010B94  2A0C               	incf	(sendBuffer@x+1)^0,f,c
  3543  010B96  BE0C               	btfsc	(sendBuffer@x+1)^0,7,c
  3544  010B98  EFD7  F085         	goto	u14791
  3545  010B9C  0EF4               	movlw	244
  3546  010B9E  5C0B               	subwf	sendBuffer@x^0,w,c
  3547  010BA0  0E01               	movlw	1
  3548  010BA2  580C               	subwfb	(sendBuffer@x+1)^0,w,c
  3549  010BA4  A0D8               	btfss	status,0,c
  3550  010BA6  EFD7  F085         	goto	u14791
  3551  010BAA  EFD9  F085         	goto	u14790
  3552  010BAE                     u14791:
  3553  010BAE  EFC8  F085         	goto	l1912
  3554  010BB2                     u14790:
  3555  010BB2  9085               	bcf	133,0,c	;volatile
  3556  010BB4  0E00               	movlw	0
  3557  010BB6  6E0E               	movwf	(sendBuffer@x_4173+1)^0,c
  3558  010BB8  0E00               	movlw	0
  3559  010BBA  6E0D               	movwf	sendBuffer@x_4173^0,c
  3560  010BBC                     l1916:
  3561  010BBC  F000               	nop	
  3562  010BBE  4A0D               	infsnz	sendBuffer@x_4173^0,f,c
  3563  010BC0  2A0E               	incf	(sendBuffer@x_4173+1)^0,f,c
  3564  010BC2  BE0E               	btfsc	(sendBuffer@x_4173+1)^0,7,c
  3565  010BC4  EFED  F085         	goto	u14801
  3566  010BC8  0EF4               	movlw	244
  3567  010BCA  5C0D               	subwf	sendBuffer@x_4173^0,w,c
  3568  010BCC  0E01               	movlw	1
  3569  010BCE  580E               	subwfb	(sendBuffer@x_4173+1)^0,w,c
  3570  010BD0  A0D8               	btfss	status,0,c
  3571  010BD2  EFED  F085         	goto	u14801
  3572  010BD6  EFEF  F085         	goto	u14800
  3573  010BDA                     u14801:
  3574  010BDA  EFDE  F085         	goto	l1916
  3575  010BDE                     u14800:
  3576  010BDE  8085               	bsf	133,0,c	;volatile
  3577  010BE0                     l1920:
  3578  010BE0  B28F               	btfsc	143,1,c	;volatile
  3579  010BE2  EFF5  F085         	goto	u14811
  3580  010BE6  EFF7  F085         	goto	u14810
  3581  010BEA                     u14811:
  3582  010BEA  EFF0  F085         	goto	l1920
  3583  010BEE                     u14810:
  3584  010BEE                     l12566:
  3585                           
  3586                           ;rtcdrv.c: 16:     while (i < size) {
  3587  010BEE  5007               	movf	sendBuffer@size^0,w,c
  3588  010BF0  5C09               	subwf	sendBuffer@i^0,w,c
  3589  010BF2  5008               	movf	(sendBuffer@size+1)^0,w,c
  3590  010BF4  580A               	subwfb	(sendBuffer@i+1)^0,w,c
  3591  010BF6  A0D8               	btfss	status,0,c
  3592  010BF8  EF00  F086         	goto	u14821
  3593  010BFC  EF02  F086         	goto	u14820
  3594  010C00                     u14821:
  3595  010C00  EFBA  F085         	goto	l12542
  3596  010C04                     u14820:
  3597  010C04                     
  3598                           ;rtcdrv.c: 21:     for (int x = 0; x < 500; ++x) __nop();;do { LATCbits.LATC0 = 0; } whi
      +                          le(0);for (int x = 0; x < 500; ++x) __nop();;do { LATCbits.LATC0 = 1; } while(0);;
  3599  010C04  0E00               	movlw	0
  3600  010C06  6E10               	movwf	(sendBuffer@x_4182+1)^0,c
  3601  010C08  0E00               	movlw	0
  3602  010C0A  6E0F               	movwf	sendBuffer@x_4182^0,c
  3603  010C0C                     l1924:
  3604  010C0C  F000               	nop	
  3605  010C0E  4A0F               	infsnz	sendBuffer@x_4182^0,f,c
  3606  010C10  2A10               	incf	(sendBuffer@x_4182+1)^0,f,c
  3607  010C12  BE10               	btfsc	(sendBuffer@x_4182+1)^0,7,c
  3608  010C14  EF15  F086         	goto	u14831
  3609  010C18  0EF4               	movlw	244
  3610  010C1A  5C0F               	subwf	sendBuffer@x_4182^0,w,c
  3611  010C1C  0E01               	movlw	1
  3612  010C1E  5810               	subwfb	(sendBuffer@x_4182+1)^0,w,c
  3613  010C20  A0D8               	btfss	status,0,c
  3614  010C22  EF15  F086         	goto	u14831
  3615  010C26  EF17  F086         	goto	u14830
  3616  010C2A                     u14831:
  3617  010C2A  EF06  F086         	goto	l1924
  3618  010C2E                     u14830:
  3619  010C2E  9085               	bcf	133,0,c	;volatile
  3620  010C30  0E00               	movlw	0
  3621  010C32  6E12               	movwf	(sendBuffer@x_4183+1)^0,c
  3622  010C34  0E00               	movlw	0
  3623  010C36  6E11               	movwf	sendBuffer@x_4183^0,c
  3624  010C38                     l1928:
  3625  010C38  F000               	nop	
  3626  010C3A  4A11               	infsnz	sendBuffer@x_4183^0,f,c
  3627  010C3C  2A12               	incf	(sendBuffer@x_4183+1)^0,f,c
  3628  010C3E  BE12               	btfsc	(sendBuffer@x_4183+1)^0,7,c
  3629  010C40  EF2B  F086         	goto	u14841
  3630  010C44  0EF4               	movlw	244
  3631  010C46  5C11               	subwf	sendBuffer@x_4183^0,w,c
  3632  010C48  0E01               	movlw	1
  3633  010C4A  5812               	subwfb	(sendBuffer@x_4183+1)^0,w,c
  3634  010C4C  A0D8               	btfss	status,0,c
  3635  010C4E  EF2B  F086         	goto	u14841
  3636  010C52  EF2D  F086         	goto	u14840
  3637  010C56                     u14841:
  3638  010C56  EF1C  F086         	goto	l1928
  3639  010C5A                     u14840:
  3640  010C5A  8085               	bsf	133,0,c	;volatile
  3641  010C5C  0012               	return		;funcret
  3642  010C5E                     __end_of_sendBuffer:
  3643                           	callstack 0
  3644                           
  3645 ;; *************** function _asctime *****************
  3646 ;; Defined at:
  3647 ;;		line 19 in file "C:\Program Files\Microchip\xc8\v2.36\pic\sources\c99\common\asctime.c"
  3648 ;; Parameters:    Size  Location     Type
  3649 ;;  tim             2   17[COMRAM] PTR const struct tm
  3650 ;;		 -> rtcGetAClk@t(24), 
  3651 ;; Auto vars:     Size  Location     Type
  3652 ;;  cp              2   23[COMRAM] PTR unsigned char 
  3653 ;;		 -> asctime@buf(27), 
  3654 ;;  s               2   21[COMRAM] PTR const unsigned char 
  3655 ;;		 -> STR_11(37), STR_10(22), 
  3656 ;; Return value:  Size  Location     Type
  3657 ;;                  2   17[COMRAM] PTR unsigned char 
  3658 ;; Registers used:
  3659 ;;		wreg, fsr2l, fsr2h, status,2, status,0, tblptrl, tblptrh, tblptru, prodl, prodh, cstack
  3660 ;; Tracked objects:
  3661 ;;		On entry : 0/0
  3662 ;;		On exit  : 0/0
  3663 ;;		Unchanged: 0/0
  3664 ;; Data sizes:     COMRAM   BANK0   BANK1   BANK2   BANK3   BANK4   BANK5   BANK6   BANK7   BANK8   BANK9  BANK10  BANK1
      +1  BANK12  BANK13  BANK14
  3665 ;;      Params:         2       0       0       0       0       0       0       0       0       0       0       0       
      +0       0       0       0
  3666 ;;      Locals:         6       0       0       0       0       0       0       0       0       0       0       0       
      +0       0       0       0
  3667 ;;      Temps:          0       0       0       0       0       0       0       0       0       0       0       0       
      +0       0       0       0
  3668 ;;      Totals:         8       0       0       0       0       0       0       0       0       0       0       0       
      +0       0       0       0
  3669 ;;Total ram usage:        8 bytes
  3670 ;; Hardware stack levels used: 1
  3671 ;; Hardware stack levels required when called: 6
  3672 ;; This function calls:
  3673 ;;		___awdiv
  3674 ;;		___awmod
  3675 ;;		___wmul
  3676 ;;		_put2d
  3677 ;; This function is called by:
  3678 ;;		_rtcGetAClk
  3679 ;; This function uses a non-reentrant model
  3680 ;;
  3681                           
  3682                           	psect	text17
  3683  01027A                     __ptext17:
  3684                           	callstack 0
  3685  01027A                     _asctime:
  3686                           	callstack 21
  3687  01027A  EE20 F00C          	lfsr	2,12
  3688  01027E  5012               	movf	asctime@tim^0,w,c
  3689  010280  26D9               	addwf	fsr2l,f,c
  3690  010282  5013               	movf	(asctime@tim+1)^0,w,c
  3691  010284  22DA               	addwfc	fsr2h,f,c
  3692  010286  CFDE F005          	movff	postinc2,___wmul@multiplier
  3693  01028A  CFDD F006          	movff	postdec2,___wmul@multiplier+1
  3694  01028E  0E00               	movlw	0
  3695  010290  6E08               	movwf	(___wmul@multiplicand+1)^0,c
  3696  010292  0E03               	movlw	3
  3697  010294  6E07               	movwf	___wmul@multiplicand^0,c
  3698  010296  EC0B  F08D         	call	___wmul	;wreg free
  3699  01029A  0EC2               	movlw	low STR_10
  3700  01029C  2405               	addwf	?___wmul^0,w,c
  3701  01029E  6E16               	movwf	asctime@s^0,c
  3702  0102A0  0EFF               	movlw	high STR_10
  3703  0102A2  2006               	addwfc	(?___wmul+1)^0,w,c
  3704  0102A4  6E17               	movwf	(asctime@s+1)^0,c
  3705  0102A6  0EAB               	movlw	low asctime@buf
  3706  0102A8  6E18               	movwf	asctime@cp^0,c
  3707  0102AA  0E00               	movlw	high asctime@buf
  3708  0102AC  6E19               	movwf	(asctime@cp+1)^0,c
  3709  0102AE  C016  FFF6         	movff	asctime@s,tblptrl
  3710  0102B2  C017  FFF7         	movff	asctime@s+1,tblptrh
  3711  0102B6                     	if	0	;tblptru may be non-zero
  3712  0102B6                     	endif
  3713  0102B6                     	if	1	;Program memory is > 0xFFFF, there are 3 active tblptr bytes
  3714  0102B6  0E00               	movlw	low (__mediumconst shr (0+16))
  3715  0102B8  6EF8               	movwf	tblptru,c
  3716  0102BA                     	endif
  3717  0102BA  C018  FFD9         	movff	asctime@cp,fsr2l
  3718  0102BE  C019  FFDA         	movff	asctime@cp+1,fsr2h
  3719  0102C2  0008               	tblrd		*
  3720  0102C4  CFF5 FFDF          	movff	tablat,indf2
  3721  0102C8  4A16               	infsnz	asctime@s^0,f,c
  3722  0102CA  2A17               	incf	(asctime@s+1)^0,f,c
  3723  0102CC  4A18               	infsnz	asctime@cp^0,f,c
  3724  0102CE  2A19               	incf	(asctime@cp+1)^0,f,c
  3725  0102D0  C016  FFF6         	movff	asctime@s,tblptrl
  3726  0102D4  C017  FFF7         	movff	asctime@s+1,tblptrh
  3727  0102D8                     	if	0	;tblptru may be non-zero
  3728  0102D8                     	endif
  3729  0102D8                     	if	1	;Program memory is > 0xFFFF, there are 3 active tblptr bytes
  3730  0102D8  0E00               	movlw	low (__mediumconst shr (0+16))
  3731  0102DA  6EF8               	movwf	tblptru,c
  3732  0102DC                     	endif
  3733  0102DC  C018  FFD9         	movff	asctime@cp,fsr2l
  3734  0102E0  C019  FFDA         	movff	asctime@cp+1,fsr2h
  3735  0102E4  0008               	tblrd		*
  3736  0102E6  CFF5 FFDF          	movff	tablat,indf2
  3737  0102EA  4A16               	infsnz	asctime@s^0,f,c
  3738  0102EC  2A17               	incf	(asctime@s+1)^0,f,c
  3739  0102EE  4A18               	infsnz	asctime@cp^0,f,c
  3740  0102F0  2A19               	incf	(asctime@cp+1)^0,f,c
  3741  0102F2  C016  FFF6         	movff	asctime@s,tblptrl
  3742  0102F6  C017  FFF7         	movff	asctime@s+1,tblptrh
  3743  0102FA                     	if	0	;tblptru may be non-zero
  3744  0102FA                     	endif
  3745  0102FA                     	if	1	;Program memory is > 0xFFFF, there are 3 active tblptr bytes
  3746  0102FA  0E00               	movlw	low (__mediumconst shr (0+16))
  3747  0102FC  6EF8               	movwf	tblptru,c
  3748  0102FE                     	endif
  3749  0102FE  C018  FFD9         	movff	asctime@cp,fsr2l
  3750  010302  C019  FFDA         	movff	asctime@cp+1,fsr2h
  3751  010306  0008               	tblrd		*
  3752  010308  CFF5 FFDF          	movff	tablat,indf2
  3753  01030C  4A18               	infsnz	asctime@cp^0,f,c
  3754  01030E  2A19               	incf	(asctime@cp+1)^0,f,c
  3755  010310  C018  FFD9         	movff	asctime@cp,fsr2l
  3756  010314  C019  FFDA         	movff	asctime@cp+1,fsr2h
  3757  010318  0E20               	movlw	32
  3758  01031A  6EDF               	movwf	indf2,c
  3759  01031C  4A18               	infsnz	asctime@cp^0,f,c
  3760  01031E  2A19               	incf	(asctime@cp+1)^0,f,c
  3761  010320  EE20 F008          	lfsr	2,8
  3762  010324  5012               	movf	asctime@tim^0,w,c
  3763  010326  26D9               	addwf	fsr2l,f,c
  3764  010328  5013               	movf	(asctime@tim+1)^0,w,c
  3765  01032A  22DA               	addwfc	fsr2h,f,c
  3766  01032C  CFDE F005          	movff	postinc2,___wmul@multiplier
  3767  010330  CFDD F006          	movff	postdec2,___wmul@multiplier+1
  3768  010334  0E00               	movlw	0
  3769  010336  6E08               	movwf	(___wmul@multiplicand+1)^0,c
  3770  010338  0E03               	movlw	3
  3771  01033A  6E07               	movwf	___wmul@multiplicand^0,c
  3772  01033C  EC0B  F08D         	call	___wmul	;wreg free
  3773  010340  0E9D               	movlw	low STR_11
  3774  010342  2405               	addwf	?___wmul^0,w,c
  3775  010344  6E16               	movwf	asctime@s^0,c
  3776  010346  0EFF               	movlw	high STR_11
  3777  010348  2006               	addwfc	(?___wmul+1)^0,w,c
  3778  01034A  6E17               	movwf	(asctime@s+1)^0,c
  3779  01034C  C016  FFF6         	movff	asctime@s,tblptrl
  3780  010350  C017  FFF7         	movff	asctime@s+1,tblptrh
  3781  010354                     	if	0	;tblptru may be non-zero
  3782  010354                     	endif
  3783  010354                     	if	1	;Program memory is > 0xFFFF, there are 3 active tblptr bytes
  3784  010354  0E00               	movlw	low (__mediumconst shr (0+16))
  3785  010356  6EF8               	movwf	tblptru,c
  3786  010358                     	endif
  3787  010358  C018  FFD9         	movff	asctime@cp,fsr2l
  3788  01035C  C019  FFDA         	movff	asctime@cp+1,fsr2h
  3789  010360  0008               	tblrd		*
  3790  010362  CFF5 FFDF          	movff	tablat,indf2
  3791  010366  4A16               	infsnz	asctime@s^0,f,c
  3792  010368  2A17               	incf	(asctime@s+1)^0,f,c
  3793  01036A  4A18               	infsnz	asctime@cp^0,f,c
  3794  01036C  2A19               	incf	(asctime@cp+1)^0,f,c
  3795  01036E  C016  FFF6         	movff	asctime@s,tblptrl
  3796  010372  C017  FFF7         	movff	asctime@s+1,tblptrh
  3797  010376                     	if	0	;tblptru may be non-zero
  3798  010376                     	endif
  3799  010376                     	if	1	;Program memory is > 0xFFFF, there are 3 active tblptr bytes
  3800  010376  0E00               	movlw	low (__mediumconst shr (0+16))
  3801  010378  6EF8               	movwf	tblptru,c
  3802  01037A                     	endif
  3803  01037A  C018  FFD9         	movff	asctime@cp,fsr2l
  3804  01037E  C019  FFDA         	movff	asctime@cp+1,fsr2h
  3805  010382  0008               	tblrd		*
  3806  010384  CFF5 FFDF          	movff	tablat,indf2
  3807  010388  4A16               	infsnz	asctime@s^0,f,c
  3808  01038A  2A17               	incf	(asctime@s+1)^0,f,c
  3809  01038C  4A18               	infsnz	asctime@cp^0,f,c
  3810  01038E  2A19               	incf	(asctime@cp+1)^0,f,c
  3811  010390  C016  FFF6         	movff	asctime@s,tblptrl
  3812  010394  C017  FFF7         	movff	asctime@s+1,tblptrh
  3813  010398                     	if	0	;tblptru may be non-zero
  3814  010398                     	endif
  3815  010398                     	if	1	;Program memory is > 0xFFFF, there are 3 active tblptr bytes
  3816  010398  0E00               	movlw	low (__mediumconst shr (0+16))
  3817  01039A  6EF8               	movwf	tblptru,c
  3818  01039C                     	endif
  3819  01039C  C018  FFD9         	movff	asctime@cp,fsr2l
  3820  0103A0  C019  FFDA         	movff	asctime@cp+1,fsr2h
  3821  0103A4  0008               	tblrd		*
  3822  0103A6  CFF5 FFDF          	movff	tablat,indf2
  3823  0103AA  0E20               	movlw	32
  3824  0103AC  0100               	movlb	0	; () banked
  3825  0103AE  6FB2               	movwf	(asctime@buf+7)& (0+255),b
  3826  0103B0                     
  3827                           ; BSR set to: 0
  3828  0103B0  0EB5               	movlw	low (asctime@buf+10)
  3829  0103B2  6E0D               	movwf	put2d@cp^0,c
  3830  0103B4  0E00               	movlw	high (asctime@buf+10)
  3831  0103B6  6E0E               	movwf	(put2d@cp+1)^0,c
  3832  0103B8  EE20 F006          	lfsr	2,6
  3833  0103BC  5012               	movf	asctime@tim^0,w,c
  3834  0103BE  26D9               	addwf	fsr2l,f,c
  3835  0103C0  5013               	movf	(asctime@tim+1)^0,w,c
  3836  0103C2  22DA               	addwfc	fsr2h,f,c
  3837  0103C4  50DF               	movf	indf2,w,c
  3838  0103C6  6E0F               	movwf	put2d@i^0,c
  3839  0103C8  0E20               	movlw	32
  3840  0103CA  6E10               	movwf	put2d@cl^0,c
  3841  0103CC  0E20               	movlw	32
  3842  0103CE  6E11               	movwf	put2d@ct^0,c
  3843  0103D0  EC80  F089         	call	_put2d	;wreg free
  3844  0103D4  0EB8               	movlw	low (asctime@buf+13)
  3845  0103D6  6E0D               	movwf	put2d@cp^0,c
  3846  0103D8  0E00               	movlw	high (asctime@buf+13)
  3847  0103DA  6E0E               	movwf	(put2d@cp+1)^0,c
  3848  0103DC  EE20 F004          	lfsr	2,4
  3849  0103E0  5012               	movf	asctime@tim^0,w,c
  3850  0103E2  26D9               	addwf	fsr2l,f,c
  3851  0103E4  5013               	movf	(asctime@tim+1)^0,w,c
  3852  0103E6  22DA               	addwfc	fsr2h,f,c
  3853  0103E8  50DF               	movf	indf2,w,c
  3854  0103EA  6E0F               	movwf	put2d@i^0,c
  3855  0103EC  0E30               	movlw	48
  3856  0103EE  6E10               	movwf	put2d@cl^0,c
  3857  0103F0  0E3A               	movlw	58
  3858  0103F2  6E11               	movwf	put2d@ct^0,c
  3859  0103F4  EC80  F089         	call	_put2d	;wreg free
  3860  0103F8  0EBB               	movlw	low (asctime@buf+16)
  3861  0103FA  6E0D               	movwf	put2d@cp^0,c
  3862  0103FC  0E00               	movlw	high (asctime@buf+16)
  3863  0103FE  6E0E               	movwf	(put2d@cp+1)^0,c
  3864  010400  EE20 F002          	lfsr	2,2
  3865  010404  5012               	movf	asctime@tim^0,w,c
  3866  010406  26D9               	addwf	fsr2l,f,c
  3867  010408  5013               	movf	(asctime@tim+1)^0,w,c
  3868  01040A  22DA               	addwfc	fsr2h,f,c
  3869  01040C  50DF               	movf	indf2,w,c
  3870  01040E  6E0F               	movwf	put2d@i^0,c
  3871  010410  0E30               	movlw	48
  3872  010412  6E10               	movwf	put2d@cl^0,c
  3873  010414  0E3A               	movlw	58
  3874  010416  6E11               	movwf	put2d@ct^0,c
  3875  010418  EC80  F089         	call	_put2d	;wreg free
  3876  01041C  0EBE               	movlw	low (asctime@buf+19)
  3877  01041E  6E0D               	movwf	put2d@cp^0,c
  3878  010420  0E00               	movlw	high (asctime@buf+19)
  3879  010422  6E0E               	movwf	(put2d@cp+1)^0,c
  3880  010424  C012  FFD9         	movff	asctime@tim,fsr2l
  3881  010428  C013  FFDA         	movff	asctime@tim+1,fsr2h
  3882  01042C  50DF               	movf	indf2,w,c
  3883  01042E  6E0F               	movwf	put2d@i^0,c
  3884  010430  0E30               	movlw	48
  3885  010432  6E10               	movwf	put2d@cl^0,c
  3886  010434  0E20               	movlw	32
  3887  010436  6E11               	movwf	put2d@ct^0,c
  3888  010438  EC80  F089         	call	_put2d	;wreg free
  3889  01043C  EE20 F00A          	lfsr	2,10
  3890  010440  5012               	movf	asctime@tim^0,w,c
  3891  010442  26D9               	addwf	fsr2l,f,c
  3892  010444  5013               	movf	(asctime@tim+1)^0,w,c
  3893  010446  22DA               	addwfc	fsr2h,f,c
  3894  010448  CFDE F005          	movff	postinc2,___awdiv@dividend
  3895  01044C  CFDD F006          	movff	postdec2,___awdiv@dividend+1
  3896  010450  0E00               	movlw	0
  3897  010452  6E08               	movwf	(___awdiv@divisor+1)^0,c
  3898  010454  0E64               	movlw	100
  3899  010456  6E07               	movwf	___awdiv@divisor^0,c
  3900  010458  EC93  F086         	call	___awdiv	;wreg free
  3901  01045C  5005               	movf	?___awdiv^0,w,c
  3902  01045E  0F13               	addlw	19
  3903  010460  6E14               	movwf	_asctime$5318^0,c
  3904  010462  0EC1               	movlw	low (asctime@buf+22)
  3905  010464  6E0D               	movwf	put2d@cp^0,c
  3906  010466  0E00               	movlw	high (asctime@buf+22)
  3907  010468  6E0E               	movwf	(put2d@cp+1)^0,c
  3908  01046A  C014  F00F         	movff	_asctime$5318,put2d@i
  3909  01046E  0E20               	movlw	32
  3910  010470  6E10               	movwf	put2d@cl^0,c
  3911  010472  0E00               	movlw	0
  3912  010474  6E11               	movwf	put2d@ct^0,c
  3913  010476  EC80  F089         	call	_put2d	;wreg free
  3914  01047A  EE20 F00A          	lfsr	2,10
  3915  01047E  5012               	movf	asctime@tim^0,w,c
  3916  010480  26D9               	addwf	fsr2l,f,c
  3917  010482  5013               	movf	(asctime@tim+1)^0,w,c
  3918  010484  22DA               	addwfc	fsr2h,f,c
  3919  010486  CFDE F005          	movff	postinc2,___awmod@dividend
  3920  01048A  CFDD F006          	movff	postdec2,___awmod@dividend+1
  3921  01048E  0E00               	movlw	0
  3922  010490  6E08               	movwf	(___awmod@divisor+1)^0,c
  3923  010492  0E64               	movlw	100
  3924  010494  6E07               	movwf	___awmod@divisor^0,c
  3925  010496  EC4D  F087         	call	___awmod	;wreg free
  3926  01049A  5005               	movf	?___awmod^0,w,c
  3927  01049C  6E15               	movwf	_asctime$5319^0,c
  3928  01049E  0EC3               	movlw	low (asctime@buf+24)
  3929  0104A0  6E0D               	movwf	put2d@cp^0,c
  3930  0104A2  0E00               	movlw	high (asctime@buf+24)
  3931  0104A4  6E0E               	movwf	(put2d@cp+1)^0,c
  3932  0104A6  C015  F00F         	movff	_asctime$5319,put2d@i
  3933  0104AA  0E30               	movlw	48
  3934  0104AC  6E10               	movwf	put2d@cl^0,c
  3935  0104AE  0E0A               	movlw	10
  3936  0104B0  6E11               	movwf	put2d@ct^0,c
  3937  0104B2  EC80  F089         	call	_put2d	;wreg free
  3938  0104B6  0EAB               	movlw	low asctime@buf
  3939  0104B8  6E12               	movwf	?_asctime^0,c
  3940  0104BA  0E00               	movlw	high asctime@buf
  3941  0104BC  6E13               	movwf	(?_asctime+1)^0,c
  3942  0104BE  0012               	return		;funcret
  3943  0104C0                     __end_of_asctime:
  3944                           	callstack 0
  3945                           
  3946 ;; *************** function _put2d *****************
  3947 ;; Defined at:
  3948 ;;		line 8 in file "C:\Program Files\Microchip\xc8\v2.36\pic\sources\c99\common\asctime.c"
  3949 ;; Parameters:    Size  Location     Type
  3950 ;;  cp              2   12[COMRAM] PTR unsigned char 
  3951 ;;		 -> asctime@buf(27), 
  3952 ;;  i               1   14[COMRAM] unsigned char 
  3953 ;;  cl              1   15[COMRAM] unsigned char 
  3954 ;;  ct              1   16[COMRAM] unsigned char 
  3955 ;; Auto vars:     Size  Location     Type
  3956 ;;		None
  3957 ;; Return value:  Size  Location     Type
  3958 ;;                  1    wreg      void 
  3959 ;; Registers used:
  3960 ;;		wreg, fsr2l, fsr2h, status,2, status,0, cstack
  3961 ;; Tracked objects:
  3962 ;;		On entry : 0/0
  3963 ;;		On exit  : 0/0
  3964 ;;		Unchanged: 0/0
  3965 ;; Data sizes:     COMRAM   BANK0   BANK1   BANK2   BANK3   BANK4   BANK5   BANK6   BANK7   BANK8   BANK9  BANK10  BANK1
      +1  BANK12  BANK13  BANK14
  3966 ;;      Params:         5       0       0       0       0       0       0       0       0       0       0       0       
      +0       0       0       0
  3967 ;;      Locals:         0       0       0       0       0       0       0       0       0       0       0       0       
      +0       0       0       0
  3968 ;;      Temps:          0       0       0       0       0       0       0       0       0       0       0       0       
      +0       0       0       0
  3969 ;;      Totals:         5       0       0       0       0       0       0       0       0       0       0       0       
      +0       0       0       0
  3970 ;;Total ram usage:        5 bytes
  3971 ;; Hardware stack levels used: 1
  3972 ;; Hardware stack levels required when called: 5
  3973 ;; This function calls:
  3974 ;;		___awdiv
  3975 ;;		___awmod
  3976 ;; This function is called by:
  3977 ;;		_asctime
  3978 ;; This function uses a non-reentrant model
  3979 ;;
  3980                           
  3981                           	psect	text18
  3982  011300                     __ptext18:
  3983                           	callstack 0
  3984  011300                     _put2d:
  3985                           	callstack 21
  3986  011300  C00D  FFD9         	movff	put2d@cp,fsr2l
  3987  011304  C00E  FFDA         	movff	put2d@cp+1,fsr2h
  3988  011308  C011  FFDF         	movff	put2d@ct,indf2
  3989  01130C  C00F  F005         	movff	put2d@i,___awmod@dividend
  3990  011310  6A06               	clrf	(___awmod@dividend+1)^0,c
  3991  011312  0E00               	movlw	0
  3992  011314  6E08               	movwf	(___awmod@divisor+1)^0,c
  3993  011316  0E0A               	movlw	10
  3994  011318  6E07               	movwf	___awmod@divisor^0,c
  3995  01131A  EC4D  F087         	call	___awmod	;wreg free
  3996  01131E  5005               	movf	?___awmod^0,w,c
  3997  011320  0F30               	addlw	48
  3998  011322  060D               	decf	put2d@cp^0,f,c
  3999  011324  A0D8               	btfss	status,0,c
  4000  011326  060E               	decf	(put2d@cp+1)^0,f,c
  4001  011328  C00D  FFD9         	movff	put2d@cp,fsr2l
  4002  01132C  C00E  FFDA         	movff	put2d@cp+1,fsr2h
  4003  011330  6EDF               	movwf	indf2,c
  4004  011332  C00F  F005         	movff	put2d@i,___awdiv@dividend
  4005  011336  6A06               	clrf	(___awdiv@dividend+1)^0,c
  4006  011338  0E00               	movlw	0
  4007  01133A  6E08               	movwf	(___awdiv@divisor+1)^0,c
  4008  01133C  0E0A               	movlw	10
  4009  01133E  6E07               	movwf	___awdiv@divisor^0,c
  4010  011340  EC93  F086         	call	___awdiv	;wreg free
  4011  011344  5005               	movf	?___awdiv^0,w,c
  4012  011346  6E0F               	movwf	put2d@i^0,c
  4013  011348  500F               	movf	put2d@i^0,w,c
  4014  01134A  B4D8               	btfsc	status,2,c
  4015  01134C  EFAA  F089         	goto	u14891
  4016  011350  EFAC  F089         	goto	u14890
  4017  011354                     u14891:
  4018  011354  EFB8  F089         	goto	l12630
  4019  011358                     u14890:
  4020  011358  500F               	movf	put2d@i^0,w,c
  4021  01135A  0F30               	addlw	48
  4022  01135C  060D               	decf	put2d@cp^0,f,c
  4023  01135E  A0D8               	btfss	status,0,c
  4024  011360  060E               	decf	(put2d@cp+1)^0,f,c
  4025  011362  C00D  FFD9         	movff	put2d@cp,fsr2l
  4026  011366  C00E  FFDA         	movff	put2d@cp+1,fsr2h
  4027  01136A  6EDF               	movwf	indf2,c
  4028  01136C  EFC1  F089         	goto	l2672
  4029  011370                     l12630:
  4030  011370  060D               	decf	put2d@cp^0,f,c
  4031  011372  A0D8               	btfss	status,0,c
  4032  011374  060E               	decf	(put2d@cp+1)^0,f,c
  4033  011376  C00D  FFD9         	movff	put2d@cp,fsr2l
  4034  01137A  C00E  FFDA         	movff	put2d@cp+1,fsr2h
  4035  01137E  C010  FFDF         	movff	put2d@cl,indf2
  4036  011382                     l2672:
  4037  011382  0012               	return		;funcret
  4038  011384                     __end_of_put2d:
  4039                           	callstack 0
  4040                           
  4041 ;; *************** function ___awmod *****************
  4042 ;; Defined at:
  4043 ;;		line 7 in file "C:\Program Files\Microchip\xc8\v2.36\pic\sources\c99\common\awmod.c"
  4044 ;; Parameters:    Size  Location     Type
  4045 ;;  dividend        2    4[COMRAM] int 
  4046 ;;  divisor         2    6[COMRAM] int 
  4047 ;; Auto vars:     Size  Location     Type
  4048 ;;  sign            1    9[COMRAM] unsigned char 
  4049 ;;  counter         1    8[COMRAM] unsigned char 
  4050 ;; Return value:  Size  Location     Type
  4051 ;;                  2    4[COMRAM] int 
  4052 ;; Registers used:
  4053 ;;		wreg, status,2, status,0
  4054 ;; Tracked objects:
  4055 ;;		On entry : 0/0
  4056 ;;		On exit  : 0/0
  4057 ;;		Unchanged: 0/0
  4058 ;; Data sizes:     COMRAM   BANK0   BANK1   BANK2   BANK3   BANK4   BANK5   BANK6   BANK7   BANK8   BANK9  BANK10  BANK1
      +1  BANK12  BANK13  BANK14
  4059 ;;      Params:         4       0       0       0       0       0       0       0       0       0       0       0       
      +0       0       0       0
  4060 ;;      Locals:         2       0       0       0       0       0       0       0       0       0       0       0       
      +0       0       0       0
  4061 ;;      Temps:          0       0       0       0       0       0       0       0       0       0       0       0       
      +0       0       0       0
  4062 ;;      Totals:         6       0       0       0       0       0       0       0       0       0       0       0       
      +0       0       0       0
  4063 ;;Total ram usage:        6 bytes
  4064 ;; Hardware stack levels used: 1
  4065 ;; Hardware stack levels required when called: 4
  4066 ;; This function calls:
  4067 ;;		Nothing
  4068 ;; This function is called by:
  4069 ;;		_put2d
  4070 ;;		_asctime
  4071 ;; This function uses a non-reentrant model
  4072 ;;
  4073                           
  4074                           	psect	text19
  4075  010E9A                     __ptext19:
  4076                           	callstack 0
  4077  010E9A                     ___awmod:
  4078                           	callstack 21
  4079  010E9A  0E00               	movlw	0
  4080  010E9C  6E0A               	movwf	___awmod@sign^0,c
  4081  010E9E  BE06               	btfsc	(___awmod@dividend+1)^0,7,c
  4082  010EA0  EF56  F087         	goto	u14690
  4083  010EA4  EF54  F087         	goto	u14691
  4084  010EA8                     u14691:
  4085  010EA8  EF5C  F087         	goto	l12480
  4086  010EAC                     u14690:
  4087  010EAC  6C05               	negf	___awmod@dividend^0,c
  4088  010EAE  1E06               	comf	(___awmod@dividend+1)^0,f,c
  4089  010EB0  B0D8               	btfsc	status,0,c
  4090  010EB2  2A06               	incf	(___awmod@dividend+1)^0,f,c
  4091  010EB4  0E01               	movlw	1
  4092  010EB6  6E0A               	movwf	___awmod@sign^0,c
  4093  010EB8                     l12480:
  4094  010EB8  BE08               	btfsc	(___awmod@divisor+1)^0,7,c
  4095  010EBA  EF63  F087         	goto	u14700
  4096  010EBE  EF61  F087         	goto	u14701
  4097  010EC2                     u14701:
  4098  010EC2  EF67  F087         	goto	l12484
  4099  010EC6                     u14700:
  4100  010EC6  6C07               	negf	___awmod@divisor^0,c
  4101  010EC8  1E08               	comf	(___awmod@divisor+1)^0,f,c
  4102  010ECA  B0D8               	btfsc	status,0,c
  4103  010ECC  2A08               	incf	(___awmod@divisor+1)^0,f,c
  4104  010ECE                     l12484:
  4105  010ECE  5007               	movf	___awmod@divisor^0,w,c
  4106  010ED0  1008               	iorwf	(___awmod@divisor+1)^0,w,c
  4107  010ED2  B4D8               	btfsc	status,2,c
  4108  010ED4  EF6E  F087         	goto	u14711
  4109  010ED8  EF70  F087         	goto	u14710
  4110  010EDC                     u14711:
  4111  010EDC  EF94  F087         	goto	l12500
  4112  010EE0                     u14710:
  4113  010EE0  0E01               	movlw	1
  4114  010EE2  6E09               	movwf	___awmod@counter^0,c
  4115  010EE4  EF78  F087         	goto	l12490
  4116  010EE8                     l12488:
  4117  010EE8  90D8               	bcf	status,0,c
  4118  010EEA  3607               	rlcf	___awmod@divisor^0,f,c
  4119  010EEC  3608               	rlcf	(___awmod@divisor+1)^0,f,c
  4120  010EEE  2A09               	incf	___awmod@counter^0,f,c
  4121  010EF0                     l12490:
  4122  010EF0  AE08               	btfss	(___awmod@divisor+1)^0,7,c
  4123  010EF2  EF7D  F087         	goto	u14721
  4124  010EF6  EF7F  F087         	goto	u14720
  4125  010EFA                     u14721:
  4126  010EFA  EF74  F087         	goto	l12488
  4127  010EFE                     u14720:
  4128  010EFE                     l12492:
  4129  010EFE  5007               	movf	___awmod@divisor^0,w,c
  4130  010F00  5C05               	subwf	___awmod@dividend^0,w,c
  4131  010F02  5008               	movf	(___awmod@divisor+1)^0,w,c
  4132  010F04  5806               	subwfb	(___awmod@dividend+1)^0,w,c
  4133  010F06  A0D8               	btfss	status,0,c
  4134  010F08  EF88  F087         	goto	u14731
  4135  010F0C  EF8A  F087         	goto	u14730
  4136  010F10                     u14731:
  4137  010F10  EF8E  F087         	goto	l12496
  4138  010F14                     u14730:
  4139  010F14  5007               	movf	___awmod@divisor^0,w,c
  4140  010F16  5E05               	subwf	___awmod@dividend^0,f,c
  4141  010F18  5008               	movf	(___awmod@divisor+1)^0,w,c
  4142  010F1A  5A06               	subwfb	(___awmod@dividend+1)^0,f,c
  4143  010F1C                     l12496:
  4144  010F1C  90D8               	bcf	status,0,c
  4145  010F1E  3208               	rrcf	(___awmod@divisor+1)^0,f,c
  4146  010F20  3207               	rrcf	___awmod@divisor^0,f,c
  4147  010F22  2E09               	decfsz	___awmod@counter^0,f,c
  4148  010F24  EF7F  F087         	goto	l12492
  4149  010F28                     l12500:
  4150  010F28  500A               	movf	___awmod@sign^0,w,c
  4151  010F2A  B4D8               	btfsc	status,2,c
  4152  010F2C  EF9A  F087         	goto	u14741
  4153  010F30  EF9C  F087         	goto	u14740
  4154  010F34                     u14741:
  4155  010F34  EFA0  F087         	goto	l12504
  4156  010F38                     u14740:
  4157  010F38  6C05               	negf	___awmod@dividend^0,c
  4158  010F3A  1E06               	comf	(___awmod@dividend+1)^0,f,c
  4159  010F3C  B0D8               	btfsc	status,0,c
  4160  010F3E  2A06               	incf	(___awmod@dividend+1)^0,f,c
  4161  010F40                     l12504:
  4162  010F40  C005  F005         	movff	___awmod@dividend,?___awmod
  4163  010F44  C006  F006         	movff	___awmod@dividend+1,?___awmod+1
  4164  010F48  0012               	return		;funcret
  4165  010F4A                     __end_of___awmod:
  4166                           	callstack 0
  4167                           
  4168 ;; *************** function ___awdiv *****************
  4169 ;; Defined at:
  4170 ;;		line 7 in file "C:\Program Files\Microchip\xc8\v2.36\pic\sources\c99\common\awdiv.c"
  4171 ;; Parameters:    Size  Location     Type
  4172 ;;  dividend        2    4[COMRAM] int 
  4173 ;;  divisor         2    6[COMRAM] int 
  4174 ;; Auto vars:     Size  Location     Type
  4175 ;;  quotient        2   10[COMRAM] int 
  4176 ;;  sign            1    9[COMRAM] unsigned char 
  4177 ;;  counter         1    8[COMRAM] unsigned char 
  4178 ;; Return value:  Size  Location     Type
  4179 ;;                  2    4[COMRAM] int 
  4180 ;; Registers used:
  4181 ;;		wreg, status,2, status,0
  4182 ;; Tracked objects:
  4183 ;;		On entry : 0/0
  4184 ;;		On exit  : 0/0
  4185 ;;		Unchanged: 0/0
  4186 ;; Data sizes:     COMRAM   BANK0   BANK1   BANK2   BANK3   BANK4   BANK5   BANK6   BANK7   BANK8   BANK9  BANK10  BANK1
      +1  BANK12  BANK13  BANK14
  4187 ;;      Params:         4       0       0       0       0       0       0       0       0       0       0       0       
      +0       0       0       0
  4188 ;;      Locals:         4       0       0       0       0       0       0       0       0       0       0       0       
      +0       0       0       0
  4189 ;;      Temps:          0       0       0       0       0       0       0       0       0       0       0       0       
      +0       0       0       0
  4190 ;;      Totals:         8       0       0       0       0       0       0       0       0       0       0       0       
      +0       0       0       0
  4191 ;;Total ram usage:        8 bytes
  4192 ;; Hardware stack levels used: 1
  4193 ;; Hardware stack levels required when called: 4
  4194 ;; This function calls:
  4195 ;;		Nothing
  4196 ;; This function is called by:
  4197 ;;		_SetClock
  4198 ;;		_rtcGetClk
  4199 ;;		_put2d
  4200 ;;		_asctime
  4201 ;; This function uses a non-reentrant model
  4202 ;;
  4203                           
  4204                           	psect	text20
  4205  010D26                     __ptext20:
  4206                           	callstack 0
  4207  010D26                     ___awdiv:
  4208                           	callstack 22
  4209  010D26  0E00               	movlw	0
  4210  010D28  6E0A               	movwf	___awdiv@sign^0,c
  4211  010D2A  BE08               	btfsc	(___awdiv@divisor+1)^0,7,c
  4212  010D2C  EF9C  F086         	goto	u14630
  4213  010D30  EF9A  F086         	goto	u14631
  4214  010D34                     u14631:
  4215  010D34  EFA2  F086         	goto	l12436
  4216  010D38                     u14630:
  4217  010D38  6C07               	negf	___awdiv@divisor^0,c
  4218  010D3A  1E08               	comf	(___awdiv@divisor+1)^0,f,c
  4219  010D3C  B0D8               	btfsc	status,0,c
  4220  010D3E  2A08               	incf	(___awdiv@divisor+1)^0,f,c
  4221  010D40  0E01               	movlw	1
  4222  010D42  6E0A               	movwf	___awdiv@sign^0,c
  4223  010D44                     l12436:
  4224  010D44  BE06               	btfsc	(___awdiv@dividend+1)^0,7,c
  4225  010D46  EFA9  F086         	goto	u14640
  4226  010D4A  EFA7  F086         	goto	u14641
  4227  010D4E                     u14641:
  4228  010D4E  EFAF  F086         	goto	l12442
  4229  010D52                     u14640:
  4230  010D52  6C05               	negf	___awdiv@dividend^0,c
  4231  010D54  1E06               	comf	(___awdiv@dividend+1)^0,f,c
  4232  010D56  B0D8               	btfsc	status,0,c
  4233  010D58  2A06               	incf	(___awdiv@dividend+1)^0,f,c
  4234  010D5A  0E01               	movlw	1
  4235  010D5C  1A0A               	xorwf	___awdiv@sign^0,f,c
  4236  010D5E                     l12442:
  4237  010D5E  0E00               	movlw	0
  4238  010D60  6E0C               	movwf	(___awdiv@quotient+1)^0,c
  4239  010D62  0E00               	movlw	0
  4240  010D64  6E0B               	movwf	___awdiv@quotient^0,c
  4241  010D66  5007               	movf	___awdiv@divisor^0,w,c
  4242  010D68  1008               	iorwf	(___awdiv@divisor+1)^0,w,c
  4243  010D6A  B4D8               	btfsc	status,2,c
  4244  010D6C  EFBA  F086         	goto	u14651
  4245  010D70  EFBC  F086         	goto	u14650
  4246  010D74                     u14651:
  4247  010D74  EFE4  F086         	goto	l12464
  4248  010D78                     u14650:
  4249  010D78  0E01               	movlw	1
  4250  010D7A  6E09               	movwf	___awdiv@counter^0,c
  4251  010D7C  EFC4  F086         	goto	l12450
  4252  010D80                     l12448:
  4253  010D80  90D8               	bcf	status,0,c
  4254  010D82  3607               	rlcf	___awdiv@divisor^0,f,c
  4255  010D84  3608               	rlcf	(___awdiv@divisor+1)^0,f,c
  4256  010D86  2A09               	incf	___awdiv@counter^0,f,c
  4257  010D88                     l12450:
  4258  010D88  AE08               	btfss	(___awdiv@divisor+1)^0,7,c
  4259  010D8A  EFC9  F086         	goto	u14661
  4260  010D8E  EFCB  F086         	goto	u14660
  4261  010D92                     u14661:
  4262  010D92  EFC0  F086         	goto	l12448
  4263  010D96                     u14660:
  4264  010D96                     l12452:
  4265  010D96  90D8               	bcf	status,0,c
  4266  010D98  360B               	rlcf	___awdiv@quotient^0,f,c
  4267  010D9A  360C               	rlcf	(___awdiv@quotient+1)^0,f,c
  4268  010D9C  5007               	movf	___awdiv@divisor^0,w,c
  4269  010D9E  5C05               	subwf	___awdiv@dividend^0,w,c
  4270  010DA0  5008               	movf	(___awdiv@divisor+1)^0,w,c
  4271  010DA2  5806               	subwfb	(___awdiv@dividend+1)^0,w,c
  4272  010DA4  A0D8               	btfss	status,0,c
  4273  010DA6  EFD7  F086         	goto	u14671
  4274  010DAA  EFD9  F086         	goto	u14670
  4275  010DAE                     u14671:
  4276  010DAE  EFDE  F086         	goto	l12460
  4277  010DB2                     u14670:
  4278  010DB2  5007               	movf	___awdiv@divisor^0,w,c
  4279  010DB4  5E05               	subwf	___awdiv@dividend^0,f,c
  4280  010DB6  5008               	movf	(___awdiv@divisor+1)^0,w,c
  4281  010DB8  5A06               	subwfb	(___awdiv@dividend+1)^0,f,c
  4282  010DBA  800B               	bsf	___awdiv@quotient^0,0,c
  4283  010DBC                     l12460:
  4284  010DBC  90D8               	bcf	status,0,c
  4285  010DBE  3208               	rrcf	(___awdiv@divisor+1)^0,f,c
  4286  010DC0  3207               	rrcf	___awdiv@divisor^0,f,c
  4287  010DC2  2E09               	decfsz	___awdiv@counter^0,f,c
  4288  010DC4  EFCB  F086         	goto	l12452
  4289  010DC8                     l12464:
  4290  010DC8  500A               	movf	___awdiv@sign^0,w,c
  4291  010DCA  B4D8               	btfsc	status,2,c
  4292  010DCC  EFEA  F086         	goto	u14681
  4293  010DD0  EFEC  F086         	goto	u14680
  4294  010DD4                     u14681:
  4295  010DD4  EFF0  F086         	goto	l12468
  4296  010DD8                     u14680:
  4297  010DD8  6C0B               	negf	___awdiv@quotient^0,c
  4298  010DDA  1E0C               	comf	(___awdiv@quotient+1)^0,f,c
  4299  010DDC  B0D8               	btfsc	status,0,c
  4300  010DDE  2A0C               	incf	(___awdiv@quotient+1)^0,f,c
  4301  010DE0                     l12468:
  4302  010DE0  C00B  F005         	movff	___awdiv@quotient,?___awdiv
  4303  010DE4  C00C  F006         	movff	___awdiv@quotient+1,?___awdiv+1
  4304  010DE8  0012               	return		;funcret
  4305  010DEA                     __end_of___awdiv:
  4306                           	callstack 0
  4307                           
  4308 ;; *************** function ___wmul *****************
  4309 ;; Defined at:
  4310 ;;		line 15 in file "C:\Program Files\Microchip\xc8\v2.36\pic\sources\c99\common\Umul16.c"
  4311 ;; Parameters:    Size  Location     Type
  4312 ;;  multiplier      2    4[COMRAM] unsigned int 
  4313 ;;  multiplicand    2    6[COMRAM] unsigned int 
  4314 ;; Auto vars:     Size  Location     Type
  4315 ;;  product         2    8[COMRAM] unsigned int 
  4316 ;; Return value:  Size  Location     Type
  4317 ;;                  2    4[COMRAM] unsigned int 
  4318 ;; Registers used:
  4319 ;;		wreg, status,2, status,0, prodl, prodh
  4320 ;; Tracked objects:
  4321 ;;		On entry : 0/0
  4322 ;;		On exit  : 0/0
  4323 ;;		Unchanged: 0/0
  4324 ;; Data sizes:     COMRAM   BANK0   BANK1   BANK2   BANK3   BANK4   BANK5   BANK6   BANK7   BANK8   BANK9  BANK10  BANK1
      +1  BANK12  BANK13  BANK14
  4325 ;;      Params:         4       0       0       0       0       0       0       0       0       0       0       0       
      +0       0       0       0
  4326 ;;      Locals:         2       0       0       0       0       0       0       0       0       0       0       0       
      +0       0       0       0
  4327 ;;      Temps:          0       0       0       0       0       0       0       0       0       0       0       0       
      +0       0       0       0
  4328 ;;      Totals:         6       0       0       0       0       0       0       0       0       0       0       0       
      +0       0       0       0
  4329 ;;Total ram usage:        6 bytes
  4330 ;; Hardware stack levels used: 1
  4331 ;; Hardware stack levels required when called: 4
  4332 ;; This function calls:
  4333 ;;		Nothing
  4334 ;; This function is called by:
  4335 ;;		_asctime
  4336 ;; This function uses a non-reentrant model
  4337 ;;
  4338                           
  4339                           	psect	text21
  4340  011A16                     __ptext21:
  4341                           	callstack 0
  4342  011A16                     ___wmul:
  4343                           	callstack 22
  4344  011A16  5005               	movf	___wmul@multiplier^0,w,c
  4345  011A18  0207               	mulwf	___wmul@multiplicand^0,c
  4346  011A1A  CFF3 F009          	movff	prodl,___wmul@product
  4347  011A1E  CFF4 F00A          	movff	prodh,___wmul@product+1
  4348  011A22  5005               	movf	___wmul@multiplier^0,w,c
  4349  011A24  0208               	mulwf	(___wmul@multiplicand+1)^0,c
  4350  011A26  50F3               	movf	243,w,c
  4351  011A28  260A               	addwf	(___wmul@product+1)^0,f,c
  4352  011A2A  5006               	movf	(___wmul@multiplier+1)^0,w,c
  4353  011A2C  0207               	mulwf	___wmul@multiplicand^0,c
  4354  011A2E  50F3               	movf	243,w,c
  4355  011A30  260A               	addwf	(___wmul@product+1)^0,f,c
  4356  011A32  C009  F005         	movff	___wmul@product,?___wmul
  4357  011A36  C00A  F006         	movff	___wmul@product+1,?___wmul+1
  4358  011A3A  0012               	return		;funcret
  4359  011A3C                     __end_of___wmul:
  4360                           	callstack 0
  4361                           
  4362 ;; *************** function _ReadClock *****************
  4363 ;; Defined at:
  4364 ;;		line 33 in file "rtc.c"
  4365 ;; Parameters:    Size  Location     Type
  4366 ;;		None
  4367 ;; Auto vars:     Size  Location     Type
  4368 ;;  t              24   59[COMRAM] struct tm
  4369 ;;  year            1   58[COMRAM] unsigned char 
  4370 ;;  month           1   57[COMRAM] unsigned char 
  4371 ;;  day             1   56[COMRAM] unsigned char 
  4372 ;;  hour            1   55[COMRAM] unsigned char 
  4373 ;;  min             1   54[COMRAM] unsigned char 
  4374 ;;  sec             1   53[COMRAM] unsigned char 
  4375 ;;  weekday         1   52[COMRAM] unsigned char 
  4376 ;; Return value:  Size  Location     Type
  4377 ;;                  24   24[COMRAM] struct tm
  4378 ;; Registers used:
  4379 ;;		wreg, fsr0l, fsr0h, fsr2l, fsr2h, status,2, status,0, pcl, pclath, pclatu, tosl, tblptrl, tblptrh, tblptru, prodl, p
      +rodh, cstack
  4380 ;; Tracked objects:
  4381 ;;		On entry : 0/0
  4382 ;;		On exit  : 0/0
  4383 ;;		Unchanged: 0/0
  4384 ;; Data sizes:     COMRAM   BANK0   BANK1   BANK2   BANK3   BANK4   BANK5   BANK6   BANK7   BANK8   BANK9  BANK10  BANK1
      +1  BANK12  BANK13  BANK14
  4385 ;;      Params:        24       0       0       0       0       0       0       0       0       0       0       0       
      +0       0       0       0
  4386 ;;      Locals:        31       0       0       0       0       0       0       0       0       0       0       0       
      +0       0       0       0
  4387 ;;      Temps:          4       0       0       0       0       0       0       0       0       0       0       0       
      +0       0       0       0
  4388 ;;      Totals:        59       0       0       0       0       0       0       0       0       0       0       0       
      +0       0       0       0
  4389 ;;Total ram usage:       59 bytes
  4390 ;; Hardware stack levels used: 1
  4391 ;; Hardware stack levels required when called: 13
  4392 ;; This function calls:
  4393 ;;		_I2C1_Read1ByteRegister
  4394 ;; This function is called by:
  4395 ;;		_rtcGetAClk
  4396 ;;		_rtcGetClk
  4397 ;;		_get_fattime
  4398 ;; This function uses a non-reentrant model
  4399 ;;
  4400                           
  4401                           	psect	text22
  4402  0104C0                     __ptext22:
  4403                           	callstack 0
  4404  0104C0                     _ReadClock:
  4405                           	callstack 14
  4406  0104C0                     
  4407                           ;rtc.c: 34:     uint8_t sec, min, hour, weekday, day, month, year;;rtc.c: 35:     sec = 
      +                          I2C1_Read1ByteRegister(0b1101000,0x00);
  4408  0104C0  0E00               	movlw	0
  4409  0104C2  6E16               	movwf	I2C1_Read1ByteRegister@reg^0,c
  4410  0104C4  0E68               	movlw	104
  4411  0104C6  EC43  F08A         	call	_I2C1_Read1ByteRegister
  4412  0104CA  6E36               	movwf	ReadClock@sec^0,c
  4413                           
  4414                           ;rtc.c: 36:     min = I2C1_Read1ByteRegister(0b1101000,0x01);
  4415  0104CC  0E01               	movlw	1
  4416  0104CE  6E16               	movwf	I2C1_Read1ByteRegister@reg^0,c
  4417  0104D0  0E68               	movlw	104
  4418  0104D2  EC43  F08A         	call	_I2C1_Read1ByteRegister
  4419  0104D6  6E37               	movwf	ReadClock@min^0,c
  4420                           
  4421                           ;rtc.c: 37:     hour = I2C1_Read1ByteRegister(0b1101000,0x02);
  4422  0104D8  0E02               	movlw	2
  4423  0104DA  6E16               	movwf	I2C1_Read1ByteRegister@reg^0,c
  4424  0104DC  0E68               	movlw	104
  4425  0104DE  EC43  F08A         	call	_I2C1_Read1ByteRegister
  4426  0104E2  6E38               	movwf	ReadClock@hour^0,c
  4427                           
  4428                           ;rtc.c: 38:     weekday = I2C1_Read1ByteRegister(0b1101000,0x03);
  4429  0104E4  0E03               	movlw	3
  4430  0104E6  6E16               	movwf	I2C1_Read1ByteRegister@reg^0,c
  4431  0104E8  0E68               	movlw	104
  4432  0104EA  EC43  F08A         	call	_I2C1_Read1ByteRegister
  4433  0104EE  6E35               	movwf	ReadClock@weekday^0,c
  4434                           
  4435                           ;rtc.c: 39:     day = I2C1_Read1ByteRegister(0b1101000,0x04);
  4436  0104F0  0E04               	movlw	4
  4437  0104F2  6E16               	movwf	I2C1_Read1ByteRegister@reg^0,c
  4438  0104F4  0E68               	movlw	104
  4439  0104F6  EC43  F08A         	call	_I2C1_Read1ByteRegister
  4440  0104FA  6E39               	movwf	ReadClock@day^0,c
  4441                           
  4442                           ;rtc.c: 40:     month = I2C1_Read1ByteRegister(0b1101000,0x05);
  4443  0104FC  0E05               	movlw	5
  4444  0104FE  6E16               	movwf	I2C1_Read1ByteRegister@reg^0,c
  4445  010500  0E68               	movlw	104
  4446  010502  EC43  F08A         	call	_I2C1_Read1ByteRegister
  4447  010506  6E3A               	movwf	ReadClock@month^0,c
  4448                           
  4449                           ;rtc.c: 41:     year = I2C1_Read1ByteRegister(0b1101000,0x06);
  4450  010508  0E06               	movlw	6
  4451  01050A  6E16               	movwf	I2C1_Read1ByteRegister@reg^0,c
  4452  01050C  0E68               	movlw	104
  4453  01050E  EC43  F08A         	call	_I2C1_Read1ByteRegister
  4454  010512  6E3B               	movwf	ReadClock@year^0,c
  4455  010514                     
  4456                           ;rtc.c: 42:     struct tm t;;rtc.c: 43:     t.tm_sec = ((sec & 0x70) >> 4)*10 + (sec & 0
      +                          x0F);
  4457  010514  C036  F031         	movff	ReadClock@sec,??_ReadClock
  4458  010518  0E0F               	movlw	15
  4459  01051A  1631               	andwf	??_ReadClock^0,f,c
  4460  01051C  C036  F032         	movff	ReadClock@sec,??_ReadClock+1
  4461  010520  3A32               	swapf	(??_ReadClock+1)^0,f,c
  4462  010522  0E0F               	movlw	15
  4463  010524  1632               	andwf	(??_ReadClock+1)^0,f,c
  4464  010526  0E07               	movlw	7
  4465  010528  1632               	andwf	(??_ReadClock+1)^0,f,c
  4466  01052A  5032               	movf	(??_ReadClock+1)^0,w,c
  4467  01052C  0D0A               	mullw	10
  4468  01052E  CFF3 F033          	movff	prodl,??_ReadClock+2
  4469  010532  CFF4 F034          	movff	prodh,??_ReadClock+3
  4470  010536  5031               	movf	??_ReadClock^0,w,c
  4471  010538  2433               	addwf	(??_ReadClock+2)^0,w,c
  4472  01053A  6E3C               	movwf	ReadClock@t^0,c
  4473  01053C  0E00               	movlw	0
  4474  01053E  2034               	addwfc	(??_ReadClock+3)^0,w,c
  4475  010540  6E3D               	movwf	(ReadClock@t+1)^0,c
  4476  010542                     
  4477                           ;rtc.c: 44:     t.tm_min = ((min & 0x70) >> 4)*10 + (min & 0x0F);
  4478  010542  C037  F031         	movff	ReadClock@min,??_ReadClock
  4479  010546  0E0F               	movlw	15
  4480  010548  1631               	andwf	??_ReadClock^0,f,c
  4481  01054A  C037  F032         	movff	ReadClock@min,??_ReadClock+1
  4482  01054E  3A32               	swapf	(??_ReadClock+1)^0,f,c
  4483  010550  0E0F               	movlw	15
  4484  010552  1632               	andwf	(??_ReadClock+1)^0,f,c
  4485  010554  0E07               	movlw	7
  4486  010556  1632               	andwf	(??_ReadClock+1)^0,f,c
  4487  010558  5032               	movf	(??_ReadClock+1)^0,w,c
  4488  01055A  0D0A               	mullw	10
  4489  01055C  CFF3 F033          	movff	prodl,??_ReadClock+2
  4490  010560  CFF4 F034          	movff	prodh,??_ReadClock+3
  4491  010564  5031               	movf	??_ReadClock^0,w,c
  4492  010566  2433               	addwf	(??_ReadClock+2)^0,w,c
  4493  010568  6E3E               	movwf	(ReadClock@t+2)^0,c
  4494  01056A  0E00               	movlw	0
  4495  01056C  2034               	addwfc	(??_ReadClock+3)^0,w,c
  4496  01056E  6E3F               	movwf	(ReadClock@t+3)^0,c
  4497  010570                     
  4498                           ;rtc.c: 45:     t.tm_hour = ((hour & 0x30) >> 4)*10 + (hour & 0x0F);
  4499  010570  C038  F031         	movff	ReadClock@hour,??_ReadClock
  4500  010574  0E0F               	movlw	15
  4501  010576  1631               	andwf	??_ReadClock^0,f,c
  4502  010578  C038  F032         	movff	ReadClock@hour,??_ReadClock+1
  4503  01057C  3A32               	swapf	(??_ReadClock+1)^0,f,c
  4504  01057E  0E0F               	movlw	15
  4505  010580  1632               	andwf	(??_ReadClock+1)^0,f,c
  4506  010582  0E03               	movlw	3
  4507  010584  1632               	andwf	(??_ReadClock+1)^0,f,c
  4508  010586  5032               	movf	(??_ReadClock+1)^0,w,c
  4509  010588  0D0A               	mullw	10
  4510  01058A  CFF3 F033          	movff	prodl,??_ReadClock+2
  4511  01058E  CFF4 F034          	movff	prodh,??_ReadClock+3
  4512  010592  5031               	movf	??_ReadClock^0,w,c
  4513  010594  2433               	addwf	(??_ReadClock+2)^0,w,c
  4514  010596  6E40               	movwf	(ReadClock@t+4)^0,c
  4515  010598  0E00               	movlw	0
  4516  01059A  2034               	addwfc	(??_ReadClock+3)^0,w,c
  4517  01059C  6E41               	movwf	(ReadClock@t+5)^0,c
  4518  01059E                     
  4519                           ;rtc.c: 46:     t.tm_wday = (weekday & 0x07) - 1;
  4520  01059E  C035  F031         	movff	ReadClock@weekday,??_ReadClock
  4521  0105A2  0E07               	movlw	7
  4522  0105A4  1631               	andwf	??_ReadClock^0,f,c
  4523  0105A6  0EFF               	movlw	255
  4524  0105A8  2431               	addwf	??_ReadClock^0,w,c
  4525  0105AA  6E48               	movwf	(ReadClock@t+12)^0,c
  4526  0105AC  6A49               	clrf	(ReadClock@t+13)^0,c
  4527  0105AE  0EFF               	movlw	255
  4528  0105B0  2249               	addwfc	(ReadClock@t+13)^0,f,c
  4529  0105B2                     
  4530                           ;rtc.c: 47:     t.tm_mday = ((day & 0x30) >> 4)*10 + (day & 0x0F);
  4531  0105B2  C039  F031         	movff	ReadClock@day,??_ReadClock
  4532  0105B6  0E0F               	movlw	15
  4533  0105B8  1631               	andwf	??_ReadClock^0,f,c
  4534  0105BA  C039  F032         	movff	ReadClock@day,??_ReadClock+1
  4535  0105BE  3A32               	swapf	(??_ReadClock+1)^0,f,c
  4536  0105C0  0E0F               	movlw	15
  4537  0105C2  1632               	andwf	(??_ReadClock+1)^0,f,c
  4538  0105C4  0E03               	movlw	3
  4539  0105C6  1632               	andwf	(??_ReadClock+1)^0,f,c
  4540  0105C8  5032               	movf	(??_ReadClock+1)^0,w,c
  4541  0105CA  0D0A               	mullw	10
  4542  0105CC  CFF3 F033          	movff	prodl,??_ReadClock+2
  4543  0105D0  CFF4 F034          	movff	prodh,??_ReadClock+3
  4544  0105D4  5031               	movf	??_ReadClock^0,w,c
  4545  0105D6  2433               	addwf	(??_ReadClock+2)^0,w,c
  4546  0105D8  6E42               	movwf	(ReadClock@t+6)^0,c
  4547  0105DA  0E00               	movlw	0
  4548  0105DC  2034               	addwfc	(??_ReadClock+3)^0,w,c
  4549  0105DE  6E43               	movwf	(ReadClock@t+7)^0,c
  4550  0105E0                     
  4551                           ;rtc.c: 48:     t.tm_mon = (((month & 0x70) >> 4)*10 + (month & 0x0F)) - 1;
  4552  0105E0  C03A  F031         	movff	ReadClock@month,??_ReadClock
  4553  0105E4  3A31               	swapf	??_ReadClock^0,f,c
  4554  0105E6  0E0F               	movlw	15
  4555  0105E8  1631               	andwf	??_ReadClock^0,f,c
  4556  0105EA  0E07               	movlw	7
  4557  0105EC  1631               	andwf	??_ReadClock^0,f,c
  4558  0105EE  5031               	movf	??_ReadClock^0,w,c
  4559  0105F0  0D0A               	mullw	10
  4560  0105F2  CFF3 F032          	movff	prodl,??_ReadClock+1
  4561  0105F6  CFF4 F033          	movff	prodh,??_ReadClock+2
  4562  0105FA  C03A  F034         	movff	ReadClock@month,??_ReadClock+3
  4563  0105FE  0E0F               	movlw	15
  4564  010600  1634               	andwf	(??_ReadClock+3)^0,f,c
  4565  010602  5034               	movf	(??_ReadClock+3)^0,w,c
  4566  010604  2632               	addwf	(??_ReadClock+1)^0,f,c
  4567  010606  0E00               	movlw	0
  4568  010608  2233               	addwfc	(??_ReadClock+2)^0,f,c
  4569  01060A  0EFF               	movlw	255
  4570  01060C  2432               	addwf	(??_ReadClock+1)^0,w,c
  4571  01060E  6E44               	movwf	(ReadClock@t+8)^0,c
  4572  010610  0EFF               	movlw	255
  4573  010612  2033               	addwfc	(??_ReadClock+2)^0,w,c
  4574  010614  6E45               	movwf	(ReadClock@t+9)^0,c
  4575  010616                     
  4576                           ;rtc.c: 49:     t.tm_year = (((year & 0xF0) >> 4)*10 + (year & 0x0F)) + 100;
  4577  010616  C03B  F031         	movff	ReadClock@year,??_ReadClock
  4578  01061A  3A31               	swapf	??_ReadClock^0,f,c
  4579  01061C  0E0F               	movlw	15
  4580  01061E  1631               	andwf	??_ReadClock^0,f,c
  4581  010620  0E0F               	movlw	15
  4582  010622  1631               	andwf	??_ReadClock^0,f,c
  4583  010624  5031               	movf	??_ReadClock^0,w,c
  4584  010626  0D0A               	mullw	10
  4585  010628  CFF3 F032          	movff	prodl,??_ReadClock+1
  4586  01062C  CFF4 F033          	movff	prodh,??_ReadClock+2
  4587  010630  C03B  F034         	movff	ReadClock@year,??_ReadClock+3
  4588  010634  0E0F               	movlw	15
  4589  010636  1634               	andwf	(??_ReadClock+3)^0,f,c
  4590  010638  5034               	movf	(??_ReadClock+3)^0,w,c
  4591  01063A  2632               	addwf	(??_ReadClock+1)^0,f,c
  4592  01063C  0E00               	movlw	0
  4593  01063E  2233               	addwfc	(??_ReadClock+2)^0,f,c
  4594  010640  0E64               	movlw	100
  4595  010642  2432               	addwf	(??_ReadClock+1)^0,w,c
  4596  010644  6E46               	movwf	(ReadClock@t+10)^0,c
  4597  010646  0E00               	movlw	0
  4598  010648  2033               	addwfc	(??_ReadClock+2)^0,w,c
  4599  01064A  6E47               	movwf	(ReadClock@t+11)^0,c
  4600  01064C                     
  4601                           ;rtc.c: 50:     return t;
  4602  01064C  EE20  F03C         	lfsr	2,ReadClock@t
  4603  010650  EE00  F019         	lfsr	0,?_ReadClock
  4604  010654  0E17               	movlw	23
  4605  010656                     u15041:
  4606  010656  CFDB FFEB          	movff	plusw2,plusw0
  4607  01065A  06E8               	decf	wreg,f,c
  4608  01065C  E2FC               	bc	u15041
  4609  01065E  0012               	return		;funcret
  4610  010660                     __end_of_ReadClock:
  4611                           	callstack 0
  4612                           
  4613 ;; *************** function _I2C1_Read1ByteRegister *****************
  4614 ;; Defined at:
  4615 ;;		line 63 in file "mcc_generated_files/examples/i2c1_master_example.c"
  4616 ;; Parameters:    Size  Location     Type
  4617 ;;  address         1    wreg     unsigned char 
  4618 ;;  reg             1   21[COMRAM] unsigned char 
  4619 ;; Auto vars:     Size  Location     Type
  4620 ;;  address         1   22[COMRAM] unsigned char 
  4621 ;;  returnValue     1   23[COMRAM] unsigned char 
  4622 ;; Return value:  Size  Location     Type
  4623 ;;                  1    wreg      unsigned char 
  4624 ;; Registers used:
  4625 ;;		wreg, fsr2l, fsr2h, status,2, status,0, pcl, pclath, pclatu, tosl, tblptrl, tblptrh, tblptru, prodl, prodh, cstack
  4626 ;; Tracked objects:
  4627 ;;		On entry : 0/0
  4628 ;;		On exit  : 0/0
  4629 ;;		Unchanged: 0/0
  4630 ;; Data sizes:     COMRAM   BANK0   BANK1   BANK2   BANK3   BANK4   BANK5   BANK6   BANK7   BANK8   BANK9  BANK10  BANK1
      +1  BANK12  BANK13  BANK14
  4631 ;;      Params:         1       0       0       0       0       0       0       0       0       0       0       0       
      +0       0       0       0
  4632 ;;      Locals:         2       0       0       0       0       0       0       0       0       0       0       0       
      +0       0       0       0
  4633 ;;      Temps:          0       0       0       0       0       0       0       0       0       0       0       0       
      +0       0       0       0
  4634 ;;      Totals:         3       0       0       0       0       0       0       0       0       0       0       0       
      +0       0       0       0
  4635 ;;Total ram usage:        3 bytes
  4636 ;; Hardware stack levels used: 1
  4637 ;; Hardware stack levels required when called: 12
  4638 ;; This function calls:
  4639 ;;		_I2C1_Close
  4640 ;;		_I2C1_MasterWrite
  4641 ;;		_I2C1_Open
  4642 ;;		_I2C1_SetAddressNackCallback
  4643 ;;		_I2C1_SetBuffer
  4644 ;;		_I2C1_SetDataCompleteCallback
  4645 ;; This function is called by:
  4646 ;;		_ReadClock
  4647 ;; This function uses a non-reentrant model
  4648 ;;
  4649                           
  4650                           	psect	text23
  4651  011486                     __ptext23:
  4652                           	callstack 0
  4653  011486                     _I2C1_Read1ByteRegister:
  4654                           	callstack 14
  4655                           
  4656                           ;incstack = 0
  4657                           ;I2C1_Read1ByteRegister@address stored from wreg
  4658  011486  6E17               	movwf	I2C1_Read1ByteRegister@address^0,c
  4659  011488                     
  4660                           ;mcc_generated_files/examples/i2c1_master_example.c: 63: uint8_t I2C1_Read1ByteRegister(
      +                          i2c1_address_t address, uint8_t reg);mcc_generated_files/examples/i2c1_master_example.c:
      +                           64: {;mcc_generated_files/examples/i2c1_master_example.c: 65:     uint8_t returnValue =
      +                           0x00;
  4661  011488  0E00               	movlw	0
  4662  01148A  6E18               	movwf	I2C1_Read1ByteRegister@returnValue^0,c
  4663  01148C                     l12510:
  4664  01148C  5017               	movf	I2C1_Read1ByteRegister@address^0,w,c
  4665  01148E  EC4E  F088         	call	_I2C1_Open
  4666  011492  0900               	iorlw	0
  4667  011494  B4D8               	btfsc	status,2,c
  4668  011496  EF4F  F08A         	goto	u14751
  4669  01149A  EF51  F08A         	goto	u14750
  4670  01149E                     u14751:
  4671  01149E  EF46  F08A         	goto	l12510
  4672  0114A2                     u14750:
  4673  0114A2                     
  4674                           ;mcc_generated_files/examples/i2c1_master_example.c: 68:     I2C1_SetDataCompleteCallbac
      +                          k(rd1RegCompleteHandler,&returnValue);
  4675  0114A2  0E14               	movlw	low _rd1RegCompleteHandler
  4676  0114A4  6E0B               	movwf	I2C1_SetDataCompleteCallback@cb^0,c
  4677  0114A6  0E19               	movlw	high _rd1RegCompleteHandler
  4678  0114A8  6E0C               	movwf	(I2C1_SetDataCompleteCallback@cb+1)^0,c
  4679  0114AA  0E01               	movlw	low (_rd1RegCompleteHandler shr (0+16))
  4680  0114AC  6E0D               	movwf	(I2C1_SetDataCompleteCallback@cb+2)^0,c
  4681  0114AE  0E18               	movlw	low I2C1_Read1ByteRegister@returnValue
  4682  0114B0  6E0E               	movwf	I2C1_SetDataCompleteCallback@ptr^0,c
  4683  0114B2  0E00               	movlw	high I2C1_Read1ByteRegister@returnValue
  4684  0114B4  6E0F               	movwf	(I2C1_SetDataCompleteCallback@ptr+1)^0,c
  4685  0114B6  EC7F  F08D         	call	_I2C1_SetDataCompleteCallback	;wreg free
  4686  0114BA                     
  4687                           ;mcc_generated_files/examples/i2c1_master_example.c: 69:     I2C1_SetBuffer(&reg,1);
  4688  0114BA  0E16               	movlw	low I2C1_Read1ByteRegister@reg
  4689  0114BC  6E05               	movwf	I2C1_SetBuffer@buffer^0,c
  4690  0114BE  0E00               	movlw	high I2C1_Read1ByteRegister@reg
  4691  0114C0  6E06               	movwf	(I2C1_SetBuffer@buffer+1)^0,c
  4692  0114C2  0E00               	movlw	0
  4693  0114C4  6E08               	movwf	(I2C1_SetBuffer@bufferSize+1)^0,c
  4694  0114C6  0E01               	movlw	1
  4695  0114C8  6E07               	movwf	I2C1_SetBuffer@bufferSize^0,c
  4696  0114CA  EC1E  F08D         	call	_I2C1_SetBuffer	;wreg free
  4697  0114CE                     
  4698                           ;mcc_generated_files/examples/i2c1_master_example.c: 70:     I2C1_SetAddressNackCallback
      +                          (((void*)0),((void*)0));
  4699  0114CE  0E00               	movlw	0
  4700  0114D0  6E0B               	movwf	I2C1_SetAddressNackCallback@cb^0,c
  4701  0114D2  0E00               	movlw	0
  4702  0114D4  6E0C               	movwf	(I2C1_SetAddressNackCallback@cb+1)^0,c
  4703  0114D6  0E00               	movlw	0
  4704  0114D8  6E0D               	movwf	(I2C1_SetAddressNackCallback@cb+2)^0,c
  4705  0114DA  0E00               	movlw	0
  4706  0114DC  6E0E               	movwf	I2C1_SetAddressNackCallback@ptr^0,c
  4707  0114DE  0E00               	movlw	0
  4708  0114E0  6E0F               	movwf	(I2C1_SetAddressNackCallback@ptr+1)^0,c
  4709  0114E2  EC71  F08D         	call	_I2C1_SetAddressNackCallback	;wreg free
  4710  0114E6                     
  4711                           ;mcc_generated_files/examples/i2c1_master_example.c: 71:     I2C1_MasterWrite();
  4712  0114E6  EC06  F08E         	call	_I2C1_MasterWrite	;wreg free
  4713  0114EA                     l12520:
  4714  0114EA  ECBA  F08C         	call	_I2C1_Close	;wreg free
  4715  0114EE  06E8               	decf	wreg,f,c
  4716  0114F0  B4D8               	btfsc	status,2,c
  4717  0114F2  EF7D  F08A         	goto	u14761
  4718  0114F6  EF7F  F08A         	goto	u14760
  4719  0114FA                     u14761:
  4720  0114FA  EF75  F08A         	goto	l12520
  4721  0114FE                     u14760:
  4722  0114FE                     
  4723                           ;mcc_generated_files/examples/i2c1_master_example.c: 74:     return returnValue;
  4724  0114FE  5018               	movf	I2C1_Read1ByteRegister@returnValue^0,w,c
  4725  011500  0012               	return		;funcret
  4726  011502                     __end_of_I2C1_Read1ByteRegister:
  4727                           	callstack 0
  4728                           
  4729 ;; *************** function _I2C1_SetAddressNackCallback *****************
  4730 ;; Defined at:
  4731 ;;		line 285 in file "mcc_generated_files/i2c1_master.c"
  4732 ;; Parameters:    Size  Location     Type
  4733 ;;  cb              3   10[COMRAM] PTR FTN(PTR void ,)enum 
  4734 ;;		 -> Absolute function(1), 
  4735 ;;  ptr             2   13[COMRAM] PTR void 
  4736 ;;		 -> NULL(0), 
  4737 ;; Auto vars:     Size  Location     Type
  4738 ;;		None
  4739 ;; Return value:  Size  Location     Type
  4740 ;;                  1    wreg      void 
  4741 ;; Registers used:
  4742 ;;		wreg, fsr2l, fsr2h, status,2, status,0, prodl, prodh, cstack
  4743 ;; Tracked objects:
  4744 ;;		On entry : 0/0
  4745 ;;		On exit  : 0/0
  4746 ;;		Unchanged: 0/0
  4747 ;; Data sizes:     COMRAM   BANK0   BANK1   BANK2   BANK3   BANK4   BANK5   BANK6   BANK7   BANK8   BANK9  BANK10  BANK1
      +1  BANK12  BANK13  BANK14
  4748 ;;      Params:         5       0       0       0       0       0       0       0       0       0       0       0       
      +0       0       0       0
  4749 ;;      Locals:         0       0       0       0       0       0       0       0       0       0       0       0       
      +0       0       0       0
  4750 ;;      Temps:          0       0       0       0       0       0       0       0       0       0       0       0       
      +0       0       0       0
  4751 ;;      Totals:         5       0       0       0       0       0       0       0       0       0       0       0       
      +0       0       0       0
  4752 ;;Total ram usage:        5 bytes
  4753 ;; Hardware stack levels used: 1
  4754 ;; Hardware stack levels required when called: 5
  4755 ;; This function calls:
  4756 ;;		_I2C1_SetCallback
  4757 ;; This function is called by:
  4758 ;;		_I2C1_Read1ByteRegister
  4759 ;;		_I2C1_Write1ByteRegister
  4760 ;;		_I2C1_Read2ByteRegister
  4761 ;;		_I2C1_Write2ByteRegister
  4762 ;;		_I2C1_WriteNBytes
  4763 ;;		_I2C1_ReadDataBlock
  4764 ;; This function uses a non-reentrant model
  4765 ;;
  4766                           
  4767                           	psect	text24
  4768  011AE2                     __ptext24:
  4769                           	callstack 0
  4770  011AE2                     _I2C1_SetAddressNackCallback:
  4771                           	callstack 20
  4772  011AE2                     
  4773                           ;mcc_generated_files/i2c1_master.c: 285: void I2C1_SetAddressNackCallback(i2c1_callback_
      +                          t cb, void *ptr);mcc_generated_files/i2c1_master.c: 286: {;mcc_generated_files/i2c1_mast
      +                          er.c: 287:     I2C1_SetCallback(I2C1_ADDR_NACK, cb, ptr);
  4774  011AE2  C00B  F005         	movff	I2C1_SetAddressNackCallback@cb,I2C1_SetCallback@cb
  4775  011AE6  C00C  F006         	movff	I2C1_SetAddressNackCallback@cb+1,I2C1_SetCallback@cb+1
  4776  011AEA  C00D  F007         	movff	I2C1_SetAddressNackCallback@cb+2,I2C1_SetCallback@cb+2
  4777  011AEE  C00E  F008         	movff	I2C1_SetAddressNackCallback@ptr,I2C1_SetCallback@ptr
  4778  011AF2  C00F  F009         	movff	I2C1_SetAddressNackCallback@ptr+1,I2C1_SetCallback@ptr+1
  4779  011AF6  0E02               	movlw	2
  4780  011AF8  ECC2  F089         	call	_I2C1_SetCallback
  4781  011AFC  0012               	return		;funcret
  4782  011AFE                     __end_of_I2C1_SetAddressNackCallback:
  4783                           	callstack 0
  4784                           
  4785 ;; *************** function _I2C1_Open *****************
  4786 ;; Defined at:
  4787 ;;		line 178 in file "mcc_generated_files/i2c1_master.c"
  4788 ;; Parameters:    Size  Location     Type
  4789 ;;  address         1    wreg     unsigned char 
  4790 ;; Auto vars:     Size  Location     Type
  4791 ;;  address         1    4[COMRAM] unsigned char 
  4792 ;;  returnValue     1    5[COMRAM] enum E355
  4793 ;; Return value:  Size  Location     Type
  4794 ;;                  1    wreg      enum E355
  4795 ;; Registers used:
  4796 ;;		wreg, status,2, status,0, cstack
  4797 ;; Tracked objects:
  4798 ;;		On entry : 0/0
  4799 ;;		On exit  : 0/0
  4800 ;;		Unchanged: 0/0
  4801 ;; Data sizes:     COMRAM   BANK0   BANK1   BANK2   BANK3   BANK4   BANK5   BANK6   BANK7   BANK8   BANK9  BANK10  BANK1
      +1  BANK12  BANK13  BANK14
  4802 ;;      Params:         0       0       0       0       0       0       0       0       0       0       0       0       
      +0       0       0       0
  4803 ;;      Locals:         2       0       0       0       0       0       0       0       0       0       0       0       
      +0       0       0       0
  4804 ;;      Temps:          0       0       0       0       0       0       0       0       0       0       0       0       
      +0       0       0       0
  4805 ;;      Totals:         2       0       0       0       0       0       0       0       0       0       0       0       
      +0       0       0       0
  4806 ;;Total ram usage:        2 bytes
  4807 ;; Hardware stack levels used: 1
  4808 ;; Hardware stack levels required when called: 5
  4809 ;; This function calls:
  4810 ;;		_I2C1_MasterClearIrq
  4811 ;;		_I2C1_MasterOpen
  4812 ;; This function is called by:
  4813 ;;		_I2C1_Read1ByteRegister
  4814 ;;		_I2C1_Write1ByteRegister
  4815 ;;		_I2C1_Read2ByteRegister
  4816 ;;		_I2C1_Write2ByteRegister
  4817 ;;		_I2C1_WriteNBytes
  4818 ;;		_I2C1_ReadNBytes
  4819 ;;		_I2C1_ReadDataBlock
  4820 ;; This function uses a non-reentrant model
  4821 ;;
  4822                           
  4823                           	psect	text25
  4824  01109C                     __ptext25:
  4825                           	callstack 0
  4826  01109C                     _I2C1_Open:
  4827                           	callstack 20
  4828                           
  4829                           ;incstack = 0
  4830                           ;I2C1_Open@address stored from wreg
  4831  01109C  6E05               	movwf	I2C1_Open@address^0,c
  4832  01109E                     
  4833                           ;mcc_generated_files/i2c1_master.c: 178: i2c1_error_t I2C1_Open(i2c1_address_t address);
      +                          mcc_generated_files/i2c1_master.c: 179: {;mcc_generated_files/i2c1_master.c: 180:     i2
      +                          c1_error_t returnValue = I2C1_BUSY;
  4834  01109E  0E01               	movlw	1
  4835  0110A0  6E06               	movwf	I2C1_Open@returnValue^0,c
  4836  0110A2                     
  4837                           ;mcc_generated_files/i2c1_master.c: 182:     if(!I2C1_Status.inUse)
  4838  0110A2  0100               	movlb	0	; () banked
  4839  0110A4  B589               	btfsc	(_I2C1_Status+41)& (0+255),2,b
  4840  0110A6  EF57  F088         	goto	u14611
  4841  0110AA  EF59  F088         	goto	u14610
  4842  0110AE                     u14611:
  4843  0110AE  EF9D  F088         	goto	l12404
  4844  0110B2                     u14610:
  4845  0110B2                     
  4846                           ; BSR set to: 0
  4847                           ;mcc_generated_files/i2c1_master.c: 183:     {;mcc_generated_files/i2c1_master.c: 184:  
      +                                 I2C1_Status.address = address;
  4848  0110B2  C005  F082         	movff	I2C1_Open@address,_I2C1_Status+34
  4849  0110B6                     
  4850                           ; BSR set to: 0
  4851                           ;mcc_generated_files/i2c1_master.c: 185:         I2C1_Status.busy = 0;
  4852  0110B6  9389               	bcf	(_I2C1_Status+41)& (0+255),1,b
  4853  0110B8                     
  4854                           ; BSR set to: 0
  4855                           ;mcc_generated_files/i2c1_master.c: 186:         I2C1_Status.inUse = 1;
  4856  0110B8  8589               	bsf	(_I2C1_Status+41)& (0+255),2,b
  4857  0110BA                     
  4858                           ; BSR set to: 0
  4859                           ;mcc_generated_files/i2c1_master.c: 187:         I2C1_Status.addressNackCheck = 0;
  4860  0110BA  9189               	bcf	(_I2C1_Status+41)& (0+255),0,b
  4861  0110BC                     
  4862                           ; BSR set to: 0
  4863                           ;mcc_generated_files/i2c1_master.c: 188:         I2C1_Status.state = I2C1_RESET;
  4864  0110BC  0E0E               	movlw	14
  4865  0110BE  6F87               	movwf	(_I2C1_Status+39)& (0+255),b
  4866  0110C0                     
  4867                           ; BSR set to: 0
  4868                           ;mcc_generated_files/i2c1_master.c: 189:         I2C1_Status.time_out_value = 500;
  4869  0110C0  0E01               	movlw	1
  4870  0110C2  6F81               	movwf	(_I2C1_Status+33)& (0+255),b
  4871  0110C4  0EF4               	movlw	244
  4872  0110C6  6F80               	movwf	(_I2C1_Status+32)& (0+255),b
  4873  0110C8                     
  4874                           ; BSR set to: 0
  4875                           ;mcc_generated_files/i2c1_master.c: 190:         I2C1_Status.bufferFree = 1;
  4876  0110C8  8789               	bsf	(_I2C1_Status+41)& (0+255),3,b
  4877  0110CA                     
  4878                           ; BSR set to: 0
  4879                           ;mcc_generated_files/i2c1_master.c: 193:         I2C1_Status.callbackTable[I2C1_DATA_COM
      +                          PLETE]=I2C1_CallbackReturnStop;
  4880  0110CA  0E7E               	movlw	low _I2C1_CallbackReturnStop
  4881  0110CC  6F60               	movwf	_I2C1_Status& (0+255),b
  4882  0110CE  0E1C               	movlw	high _I2C1_CallbackReturnStop
  4883  0110D0  6F61               	movwf	(_I2C1_Status+1)& (0+255),b
  4884  0110D2  0E01               	movlw	low (_I2C1_CallbackReturnStop shr (0+16))
  4885  0110D4  6F62               	movwf	(_I2C1_Status+2)& (0+255),b
  4886  0110D6                     
  4887                           ; BSR set to: 0
  4888                           ;mcc_generated_files/i2c1_master.c: 194:         I2C1_Status.callbackPayload[I2C1_DATA_C
      +                          OMPLETE] = ((void*)0);
  4889  0110D6  0E00               	movlw	0
  4890  0110D8  6F72               	movwf	(_I2C1_Status+18)& (0+255),b
  4891  0110DA  0E00               	movlw	0
  4892  0110DC  6F73               	movwf	(_I2C1_Status+19)& (0+255),b
  4893  0110DE                     
  4894                           ; BSR set to: 0
  4895                           ;mcc_generated_files/i2c1_master.c: 195:         I2C1_Status.callbackTable[I2C1_WRITE_CO
      +                          LLISION]=I2C1_CallbackReturnStop;
  4896  0110DE  0E7E               	movlw	low _I2C1_CallbackReturnStop
  4897  0110E0  6F63               	movwf	(_I2C1_Status+3)& (0+255),b
  4898  0110E2  0E1C               	movlw	high _I2C1_CallbackReturnStop
  4899  0110E4  6F64               	movwf	(_I2C1_Status+4)& (0+255),b
  4900  0110E6  0E01               	movlw	low (_I2C1_CallbackReturnStop shr (0+16))
  4901  0110E8  6F65               	movwf	(_I2C1_Status+5)& (0+255),b
  4902  0110EA                     
  4903                           ; BSR set to: 0
  4904                           ;mcc_generated_files/i2c1_master.c: 196:         I2C1_Status.callbackPayload[I2C1_WRITE_
      +                          COLLISION] = ((void*)0);
  4905  0110EA  0E00               	movlw	0
  4906  0110EC  6F74               	movwf	(_I2C1_Status+20)& (0+255),b
  4907  0110EE  0E00               	movlw	0
  4908  0110F0  6F75               	movwf	(_I2C1_Status+21)& (0+255),b
  4909  0110F2                     
  4910                           ; BSR set to: 0
  4911                           ;mcc_generated_files/i2c1_master.c: 197:         I2C1_Status.callbackTable[I2C1_ADDR_NAC
      +                          K]=I2C1_CallbackReturnStop;
  4912  0110F2  0E7E               	movlw	low _I2C1_CallbackReturnStop
  4913  0110F4  6F66               	movwf	(_I2C1_Status+6)& (0+255),b
  4914  0110F6  0E1C               	movlw	high _I2C1_CallbackReturnStop
  4915  0110F8  6F67               	movwf	(_I2C1_Status+7)& (0+255),b
  4916  0110FA  0E01               	movlw	low (_I2C1_CallbackReturnStop shr (0+16))
  4917  0110FC  6F68               	movwf	(_I2C1_Status+8)& (0+255),b
  4918  0110FE                     
  4919                           ; BSR set to: 0
  4920                           ;mcc_generated_files/i2c1_master.c: 198:         I2C1_Status.callbackPayload[I2C1_ADDR_N
      +                          ACK] = ((void*)0);
  4921  0110FE  0E00               	movlw	0
  4922  011100  6F76               	movwf	(_I2C1_Status+22)& (0+255),b
  4923  011102  0E00               	movlw	0
  4924  011104  6F77               	movwf	(_I2C1_Status+23)& (0+255),b
  4925  011106                     
  4926                           ; BSR set to: 0
  4927                           ;mcc_generated_files/i2c1_master.c: 199:         I2C1_Status.callbackTable[I2C1_DATA_NAC
      +                          K]=I2C1_CallbackReturnStop;
  4928  011106  0E7E               	movlw	low _I2C1_CallbackReturnStop
  4929  011108  6F69               	movwf	(_I2C1_Status+9)& (0+255),b
  4930  01110A  0E1C               	movlw	high _I2C1_CallbackReturnStop
  4931  01110C  6F6A               	movwf	(_I2C1_Status+10)& (0+255),b
  4932  01110E  0E01               	movlw	low (_I2C1_CallbackReturnStop shr (0+16))
  4933  011110  6F6B               	movwf	(_I2C1_Status+11)& (0+255),b
  4934  011112                     
  4935                           ; BSR set to: 0
  4936                           ;mcc_generated_files/i2c1_master.c: 200:         I2C1_Status.callbackPayload[I2C1_DATA_N
      +                          ACK] = ((void*)0);
  4937  011112  0E00               	movlw	0
  4938  011114  6F78               	movwf	(_I2C1_Status+24)& (0+255),b
  4939  011116  0E00               	movlw	0
  4940  011118  6F79               	movwf	(_I2C1_Status+25)& (0+255),b
  4941  01111A                     
  4942                           ; BSR set to: 0
  4943                           ;mcc_generated_files/i2c1_master.c: 201:         I2C1_Status.callbackTable[I2C1_TIMEOUT]
      +                          =I2C1_CallbackReturnReset;
  4944  01111A  0E7A               	movlw	low _I2C1_CallbackReturnReset
  4945  01111C  6F6C               	movwf	(_I2C1_Status+12)& (0+255),b
  4946  01111E  0E1C               	movlw	high _I2C1_CallbackReturnReset
  4947  011120  6F6D               	movwf	(_I2C1_Status+13)& (0+255),b
  4948  011122  0E01               	movlw	low (_I2C1_CallbackReturnReset shr (0+16))
  4949  011124  6F6E               	movwf	(_I2C1_Status+14)& (0+255),b
  4950  011126                     
  4951                           ; BSR set to: 0
  4952                           ;mcc_generated_files/i2c1_master.c: 202:         I2C1_Status.callbackPayload[I2C1_TIMEOU
      +                          T] = ((void*)0);
  4953  011126  0E00               	movlw	0
  4954  011128  6F7A               	movwf	(_I2C1_Status+26)& (0+255),b
  4955  01112A  0E00               	movlw	0
  4956  01112C  6F7B               	movwf	(_I2C1_Status+27)& (0+255),b
  4957  01112E                     
  4958                           ; BSR set to: 0
  4959                           ;mcc_generated_files/i2c1_master.c: 204:         I2C1_MasterClearIrq();
  4960  01112E  EC36  F08E         	call	_I2C1_MasterClearIrq	;wreg free
  4961  011132                     
  4962                           ;mcc_generated_files/i2c1_master.c: 205:         I2C1_MasterOpen();
  4963  011132  EC42  F08D         	call	_I2C1_MasterOpen	;wreg free
  4964  011136                     
  4965                           ;mcc_generated_files/i2c1_master.c: 206:         returnValue = I2C1_NOERR;
  4966  011136  0E00               	movlw	0
  4967  011138  6E06               	movwf	I2C1_Open@returnValue^0,c
  4968  01113A                     l12404:
  4969                           
  4970                           ;mcc_generated_files/i2c1_master.c: 208:     return returnValue;
  4971  01113A  5006               	movf	I2C1_Open@returnValue^0,w,c
  4972  01113C  0012               	return		;funcret
  4973  01113E                     __end_of_I2C1_Open:
  4974                           	callstack 0
  4975                           
  4976 ;; *************** function _I2C1_MasterOpen *****************
  4977 ;; Defined at:
  4978 ;;		line 545 in file "mcc_generated_files/i2c1_master.c"
  4979 ;; Parameters:    Size  Location     Type
  4980 ;;		None
  4981 ;; Auto vars:     Size  Location     Type
  4982 ;;		None
  4983 ;; Return value:  Size  Location     Type
  4984 ;;                  1    wreg      _Bool 
  4985 ;; Registers used:
  4986 ;;		wreg, status,2
  4987 ;; Tracked objects:
  4988 ;;		On entry : 0/0
  4989 ;;		On exit  : 0/0
  4990 ;;		Unchanged: 0/0
  4991 ;; Data sizes:     COMRAM   BANK0   BANK1   BANK2   BANK3   BANK4   BANK5   BANK6   BANK7   BANK8   BANK9  BANK10  BANK1
      +1  BANK12  BANK13  BANK14
  4992 ;;      Params:         0       0       0       0       0       0       0       0       0       0       0       0       
      +0       0       0       0
  4993 ;;      Locals:         0       0       0       0       0       0       0       0       0       0       0       0       
      +0       0       0       0
  4994 ;;      Temps:          0       0       0       0       0       0       0       0       0       0       0       0       
      +0       0       0       0
  4995 ;;      Totals:         0       0       0       0       0       0       0       0       0       0       0       0       
      +0       0       0       0
  4996 ;;Total ram usage:        0 bytes
  4997 ;; Hardware stack levels used: 1
  4998 ;; Hardware stack levels required when called: 4
  4999 ;; This function calls:
  5000 ;;		Nothing
  5001 ;; This function is called by:
  5002 ;;		_I2C1_Open
  5003 ;; This function uses a non-reentrant model
  5004 ;;
  5005                           
  5006                           	psect	text26
  5007  011A84                     __ptext26:
  5008                           	callstack 0
  5009  011A84                     _I2C1_MasterOpen:
  5010                           	callstack 20
  5011  011A84                     
  5012                           ;mcc_generated_files/i2c1_master.c: 547:     if(!SSP1CON1bits.SSPEN)
  5013  011A84  BA96               	btfsc	150,5,c	;volatile
  5014  011A86  EF47  F08D         	goto	u14581
  5015  011A8A  EF49  F08D         	goto	u14580
  5016  011A8E                     u14581:
  5017  011A8E  EF52  F08D         	goto	l1646
  5018  011A92                     u14580:
  5019  011A92                     
  5020                           ;mcc_generated_files/i2c1_master.c: 548:     {;mcc_generated_files/i2c1_master.c: 549:  
      +                                 SSP1STAT = 0x80;
  5021  011A92  0E80               	movlw	128
  5022  011A94  6E95               	movwf	149,c	;volatile
  5023                           
  5024                           ;mcc_generated_files/i2c1_master.c: 550:         SSP1CON1 = 0x08;
  5025  011A96  0E08               	movlw	8
  5026  011A98  6E96               	movwf	150,c	;volatile
  5027                           
  5028                           ;mcc_generated_files/i2c1_master.c: 551:         SSP1CON2 = 0x00;
  5029  011A9A  0E00               	movlw	0
  5030  011A9C  6E97               	movwf	151,c	;volatile
  5031                           
  5032                           ;mcc_generated_files/i2c1_master.c: 552:         SSP1ADD = 0x9F;
  5033  011A9E  0E9F               	movlw	159
  5034  011AA0  6E93               	movwf	147,c	;volatile
  5035  011AA2                     
  5036                           ;mcc_generated_files/i2c1_master.c: 553:         SSP1CON1bits.SSPEN = 1;
  5037  011AA2  8A96               	bsf	150,5,c	;volatile
  5038  011AA4                     l1646:
  5039  011AA4  0012               	return		;funcret
  5040  011AA6                     __end_of_I2C1_MasterOpen:
  5041                           	callstack 0
  5042                           
  5043 ;; *************** function _I2C1_MasterWrite *****************
  5044 ;; Defined at:
  5045 ;;		line 253 in file "mcc_generated_files/i2c1_master.c"
  5046 ;; Parameters:    Size  Location     Type
  5047 ;;		None
  5048 ;; Auto vars:     Size  Location     Type
  5049 ;;		None
  5050 ;; Return value:  Size  Location     Type
  5051 ;;                  1    wreg      enum E355
  5052 ;; Registers used:
  5053 ;;		wreg, fsr2l, fsr2h, status,2, status,0, pcl, pclath, pclatu, tosl, tblptrl, tblptrh, tblptru, prodl, prodh, cstack
  5054 ;; Tracked objects:
  5055 ;;		On entry : 0/0
  5056 ;;		On exit  : 0/0
  5057 ;;		Unchanged: 0/0
  5058 ;; Data sizes:     COMRAM   BANK0   BANK1   BANK2   BANK3   BANK4   BANK5   BANK6   BANK7   BANK8   BANK9  BANK10  BANK1
      +1  BANK12  BANK13  BANK14
  5059 ;;      Params:         0       0       0       0       0       0       0       0       0       0       0       0       
      +0       0       0       0
  5060 ;;      Locals:         0       0       0       0       0       0       0       0       0       0       0       0       
      +0       0       0       0
  5061 ;;      Temps:          0       0       0       0       0       0       0       0       0       0       0       0       
      +0       0       0       0
  5062 ;;      Totals:         0       0       0       0       0       0       0       0       0       0       0       0       
      +0       0       0       0
  5063 ;;Total ram usage:        0 bytes
  5064 ;; Hardware stack levels used: 1
  5065 ;; Hardware stack levels required when called: 11
  5066 ;; This function calls:
  5067 ;;		_I2C1_MasterOperation
  5068 ;; This function is called by:
  5069 ;;		_I2C1_Read1ByteRegister
  5070 ;;		_I2C1_Write1ByteRegister
  5071 ;;		_I2C1_Read2ByteRegister
  5072 ;;		_I2C1_Write2ByteRegister
  5073 ;;		_I2C1_WriteNBytes
  5074 ;;		_I2C1_ReadDataBlock
  5075 ;; This function uses a non-reentrant model
  5076 ;;
  5077                           
  5078                           	psect	text27
  5079  011C0C                     __ptext27:
  5080                           	callstack 0
  5081  011C0C                     _I2C1_MasterWrite:
  5082                           	callstack 14
  5083  011C0C                     
  5084                           ;mcc_generated_files/i2c1_master.c: 255:     return I2C1_MasterOperation(0);;	Return val
      +                          ue of _I2C1_MasterWrite is never used
  5085  011C0C  0E00               	movlw	0
  5086  011C0E  ECE2  F08B         	call	_I2C1_MasterOperation
  5087  011C12  0012               	return		;funcret
  5088  011C14                     __end_of_I2C1_MasterWrite:
  5089                           	callstack 0
  5090                           
  5091 ;; *************** function _I2C1_MasterOperation *****************
  5092 ;; Defined at:
  5093 ;;		line 226 in file "mcc_generated_files/i2c1_master.c"
  5094 ;; Parameters:    Size  Location     Type
  5095 ;;  read            1    wreg     _Bool 
  5096 ;; Auto vars:     Size  Location     Type
  5097 ;;  read            1   19[COMRAM] _Bool 
  5098 ;;  returnValue     1   20[COMRAM] enum E355
  5099 ;; Return value:  Size  Location     Type
  5100 ;;                  1    wreg      enum E355
  5101 ;; Registers used:
  5102 ;;		wreg, fsr2l, fsr2h, status,2, status,0, pcl, pclath, pclatu, tosl, tblptrl, tblptrh, tblptru, prodl, prodh, cstack
  5103 ;; Tracked objects:
  5104 ;;		On entry : 0/0
  5105 ;;		On exit  : 0/0
  5106 ;;		Unchanged: 0/0
  5107 ;; Data sizes:     COMRAM   BANK0   BANK1   BANK2   BANK3   BANK4   BANK5   BANK6   BANK7   BANK8   BANK9  BANK10  BANK1
      +1  BANK12  BANK13  BANK14
  5108 ;;      Params:         0       0       0       0       0       0       0       0       0       0       0       0       
      +0       0       0       0
  5109 ;;      Locals:         2       0       0       0       0       0       0       0       0       0       0       0       
      +0       0       0       0
  5110 ;;      Temps:          0       0       0       0       0       0       0       0       0       0       0       0       
      +0       0       0       0
  5111 ;;      Totals:         2       0       0       0       0       0       0       0       0       0       0       0       
      +0       0       0       0
  5112 ;;Total ram usage:        2 bytes
  5113 ;; Hardware stack levels used: 1
  5114 ;; Hardware stack levels required when called: 10
  5115 ;; This function calls:
  5116 ;;		_I2C1_MasterStart
  5117 ;;		_I2C1_Poller
  5118 ;; This function is called by:
  5119 ;;		_I2C1_MasterWrite
  5120 ;;		_I2C1_MasterRead
  5121 ;; This function uses a non-reentrant model
  5122 ;;
  5123                           
  5124                           	psect	text28
  5125  0117C4                     __ptext28:
  5126                           	callstack 0
  5127  0117C4                     _I2C1_MasterOperation:
  5128                           	callstack 14
  5129                           
  5130                           ;incstack = 0
  5131                           ;I2C1_MasterOperation@read stored from wreg
  5132  0117C4  6E14               	movwf	I2C1_MasterOperation@read^0,c
  5133  0117C6                     
  5134                           ;mcc_generated_files/i2c1_master.c: 226: i2c1_error_t I2C1_MasterOperation(_Bool read);m
      +                          cc_generated_files/i2c1_master.c: 227: {;mcc_generated_files/i2c1_master.c: 228:     i2c
      +                          1_error_t returnValue = I2C1_BUSY;
  5135  0117C6  0E01               	movlw	1
  5136  0117C8  6E15               	movwf	I2C1_MasterOperation@returnValue^0,c
  5137  0117CA                     
  5138                           ;mcc_generated_files/i2c1_master.c: 229:     if(!I2C1_Status.busy)
  5139  0117CA  0100               	movlb	0	; () banked
  5140  0117CC  B389               	btfsc	(_I2C1_Status+41)& (0+255),1,b
  5141  0117CE  EFEB  F08B         	goto	u14591
  5142  0117D2  EFED  F08B         	goto	u14590
  5143  0117D6                     u14591:
  5144  0117D6  EF02  F08C         	goto	l12356
  5145  0117DA                     u14590:
  5146  0117DA                     
  5147                           ; BSR set to: 0
  5148                           ;mcc_generated_files/i2c1_master.c: 230:     {;mcc_generated_files/i2c1_master.c: 231:  
      +                                 I2C1_Status.busy = 1;
  5149  0117DA  8389               	bsf	(_I2C1_Status+41)& (0+255),1,b
  5150  0117DC                     
  5151                           ; BSR set to: 0
  5152                           ;mcc_generated_files/i2c1_master.c: 232:         returnValue = I2C1_NOERR;
  5153  0117DC  0E00               	movlw	0
  5154  0117DE  6E15               	movwf	I2C1_MasterOperation@returnValue^0,c
  5155  0117E0                     
  5156                           ; BSR set to: 0
  5157                           ;mcc_generated_files/i2c1_master.c: 234:         if(read)
  5158  0117E0  5014               	movf	I2C1_MasterOperation@read^0,w,c
  5159  0117E2  B4D8               	btfsc	status,2,c
  5160  0117E4  EFF6  F08B         	goto	u14601
  5161  0117E8  EFF8  F08B         	goto	u14600
  5162  0117EC                     u14601:
  5163  0117EC  EFFC  F08B         	goto	l12350
  5164  0117F0                     u14600:
  5165  0117F0                     
  5166                           ; BSR set to: 0
  5167                           ;mcc_generated_files/i2c1_master.c: 235:         {;mcc_generated_files/i2c1_master.c: 23
      +                          6:             I2C1_Status.state = I2C1_SEND_ADR_READ;
  5168  0117F0  0E01               	movlw	1
  5169  0117F2  6F87               	movwf	(_I2C1_Status+39)& (0+255),b
  5170                           
  5171                           ;mcc_generated_files/i2c1_master.c: 237:         }
  5172  0117F4  EFFE  F08B         	goto	l12352
  5173  0117F8                     l12350:
  5174                           
  5175                           ; BSR set to: 0
  5176                           ;mcc_generated_files/i2c1_master.c: 239:         {;mcc_generated_files/i2c1_master.c: 24
      +                          0:             I2C1_Status.state = I2C1_SEND_ADR_WRITE;
  5177  0117F8  0E02               	movlw	2
  5178  0117FA  6F87               	movwf	(_I2C1_Status+39)& (0+255),b
  5179  0117FC                     l12352:
  5180                           
  5181                           ; BSR set to: 0
  5182                           ;mcc_generated_files/i2c1_master.c: 242:         I2C1_MasterStart();
  5183  0117FC  EC45  F08E         	call	_I2C1_MasterStart	;wreg free
  5184  011800                     
  5185                           ;mcc_generated_files/i2c1_master.c: 243:         I2C1_Poller();
  5186  011800  EC53  F08D         	call	_I2C1_Poller	;wreg free
  5187  011804                     l12356:
  5188                           
  5189                           ;mcc_generated_files/i2c1_master.c: 245:     return returnValue;
  5190  011804  5015               	movf	I2C1_MasterOperation@returnValue^0,w,c
  5191  011806  0012               	return		;funcret
  5192  011808                     __end_of_I2C1_MasterOperation:
  5193                           	callstack 0
  5194                           
  5195 ;; *************** function _I2C1_Poller *****************
  5196 ;; Defined at:
  5197 ;;		line 314 in file "mcc_generated_files/i2c1_master.c"
  5198 ;; Parameters:    Size  Location     Type
  5199 ;;		None
  5200 ;; Auto vars:     Size  Location     Type
  5201 ;;		None
  5202 ;; Return value:  Size  Location     Type
  5203 ;;                  1    wreg      void 
  5204 ;; Registers used:
  5205 ;;		wreg, fsr2l, fsr2h, status,2, status,0, pcl, pclath, pclatu, tosl, tblptrl, tblptrh, tblptru, prodl, prodh, cstack
  5206 ;; Tracked objects:
  5207 ;;		On entry : 0/0
  5208 ;;		On exit  : 0/0
  5209 ;;		Unchanged: 0/0
  5210 ;; Data sizes:     COMRAM   BANK0   BANK1   BANK2   BANK3   BANK4   BANK5   BANK6   BANK7   BANK8   BANK9  BANK10  BANK1
      +1  BANK12  BANK13  BANK14
  5211 ;;      Params:         0       0       0       0       0       0       0       0       0       0       0       0       
      +0       0       0       0
  5212 ;;      Locals:         0       0       0       0       0       0       0       0       0       0       0       0       
      +0       0       0       0
  5213 ;;      Temps:          0       0       0       0       0       0       0       0       0       0       0       0       
      +0       0       0       0
  5214 ;;      Totals:         0       0       0       0       0       0       0       0       0       0       0       0       
      +0       0       0       0
  5215 ;;Total ram usage:        0 bytes
  5216 ;; Hardware stack levels used: 1
  5217 ;; Hardware stack levels required when called: 9
  5218 ;; This function calls:
  5219 ;;		_I2C1_MasterFsm
  5220 ;;		_I2C1_MasterWaitForEvent
  5221 ;; This function is called by:
  5222 ;;		_I2C1_MasterOperation
  5223 ;; This function uses a non-reentrant model
  5224 ;;
  5225                           
  5226                           	psect	text29
  5227  011AA6                     __ptext29:
  5228                           	callstack 0
  5229  011AA6                     _I2C1_Poller:
  5230                           	callstack 14
  5231  011AA6                     
  5232                           ;mcc_generated_files/i2c1_master.c: 316:     while(I2C1_Status.busy)
  5233  011AA6  EF59  F08D         	goto	l12324
  5234  011AAA                     l12320:
  5235                           
  5236                           ; BSR set to: 0
  5237                           ;mcc_generated_files/i2c1_master.c: 317:     {;mcc_generated_files/i2c1_master.c: 318:  
      +                                 I2C1_MasterWaitForEvent();
  5238  011AAA  ECC8  F08D         	call	_I2C1_MasterWaitForEvent	;wreg free
  5239  011AAE                     
  5240                           ;mcc_generated_files/i2c1_master.c: 319:         I2C1_MasterFsm();
  5241  011AAE  ECF7  F08A         	call	_I2C1_MasterFsm	;wreg free
  5242  011AB2                     l12324:
  5243                           
  5244                           ;mcc_generated_files/i2c1_master.c: 316:     while(I2C1_Status.busy)
  5245  011AB2  0100               	movlb	0	; () banked
  5246  011AB4  B389               	btfsc	(_I2C1_Status+41)& (0+255),1,b
  5247  011AB6  EF5F  F08D         	goto	u14571
  5248  011ABA  EF61  F08D         	goto	u14570
  5249  011ABE                     u14571:
  5250  011ABE  EF55  F08D         	goto	l12320
  5251  011AC2                     u14570:
  5252  011AC2                     
  5253                           ; BSR set to: 0
  5254  011AC2  0012               	return		;funcret
  5255  011AC4                     __end_of_I2C1_Poller:
  5256                           	callstack 0
  5257                           
  5258 ;; *************** function _I2C1_MasterWaitForEvent *****************
  5259 ;; Defined at:
  5260 ;;		line 652 in file "mcc_generated_files/i2c1_master.c"
  5261 ;; Parameters:    Size  Location     Type
  5262 ;;		None
  5263 ;; Auto vars:     Size  Location     Type
  5264 ;;		None
  5265 ;; Return value:  Size  Location     Type
  5266 ;;                  1    wreg      void 
  5267 ;; Registers used:
  5268 ;;		None
  5269 ;; Tracked objects:
  5270 ;;		On entry : 0/0
  5271 ;;		On exit  : 0/0
  5272 ;;		Unchanged: 0/0
  5273 ;; Data sizes:     COMRAM   BANK0   BANK1   BANK2   BANK3   BANK4   BANK5   BANK6   BANK7   BANK8   BANK9  BANK10  BANK1
      +1  BANK12  BANK13  BANK14
  5274 ;;      Params:         0       0       0       0       0       0       0       0       0       0       0       0       
      +0       0       0       0
  5275 ;;      Locals:         0       0       0       0       0       0       0       0       0       0       0       0       
      +0       0       0       0
  5276 ;;      Temps:          0       0       0       0       0       0       0       0       0       0       0       0       
      +0       0       0       0
  5277 ;;      Totals:         0       0       0       0       0       0       0       0       0       0       0       0       
      +0       0       0       0
  5278 ;;Total ram usage:        0 bytes
  5279 ;; Hardware stack levels used: 1
  5280 ;; Hardware stack levels required when called: 4
  5281 ;; This function calls:
  5282 ;;		Nothing
  5283 ;; This function is called by:
  5284 ;;		_I2C1_Poller
  5285 ;; This function uses a non-reentrant model
  5286 ;;
  5287                           
  5288                           	psect	text30
  5289  011B90                     __ptext30:
  5290                           	callstack 0
  5291  011B90                     _I2C1_MasterWaitForEvent:
  5292                           	callstack 18
  5293  011B90                     l1703:
  5294                           
  5295                           ;mcc_generated_files/i2c1_master.c: 655:     {;mcc_generated_files/i2c1_master.c: 656:  
      +                                 if(PIR3bits.SSP1IF)
  5296  011B90  010E               	movlb	14	; () banked
  5297  011B92  A1CD               	btfss	205,0,b	;volatile
  5298  011B94  EFCE  F08D         	goto	u14531
  5299  011B98  EFD0  F08D         	goto	u14530
  5300  011B9C                     u14531:
  5301  011B9C  EFC8  F08D         	goto	l1703
  5302  011BA0                     u14530:
  5303  011BA0                     
  5304                           ; BSR set to: 14
  5305  011BA0  0012               	return		;funcret
  5306  011BA2                     __end_of_I2C1_MasterWaitForEvent:
  5307                           	callstack 0
  5308                           
  5309 ;; *************** function _I2C1_MasterFsm *****************
  5310 ;; Defined at:
  5311 ;;		line 323 in file "mcc_generated_files/i2c1_master.c"
  5312 ;; Parameters:    Size  Location     Type
  5313 ;;		None
  5314 ;; Auto vars:     Size  Location     Type
  5315 ;;		None
  5316 ;; Return value:  Size  Location     Type
  5317 ;;                  1    wreg      void 
  5318 ;; Registers used:
  5319 ;;		wreg, fsr2l, fsr2h, status,2, status,0, pcl, pclath, pclatu, tosl, tblptrl, tblptrh, tblptru, prodl, prodh, cstack
  5320 ;; Tracked objects:
  5321 ;;		On entry : 0/0
  5322 ;;		On exit  : 0/0
  5323 ;;		Unchanged: 0/0
  5324 ;; Data sizes:     COMRAM   BANK0   BANK1   BANK2   BANK3   BANK4   BANK5   BANK6   BANK7   BANK8   BANK9  BANK10  BANK1
      +1  BANK12  BANK13  BANK14
  5325 ;;      Params:         0       0       0       0       0       0       0       0       0       0       0       0       
      +0       0       0       0
  5326 ;;      Locals:         0       0       0       0       0       0       0       0       0       0       0       0       
      +0       0       0       0
  5327 ;;      Temps:          0       0       0       0       0       0       0       0       0       0       0       0       
      +0       0       0       0
  5328 ;;      Totals:         0       0       0       0       0       0       0       0       0       0       0       0       
      +0       0       0       0
  5329 ;;Total ram usage:        0 bytes
  5330 ;; Hardware stack levels used: 1
  5331 ;; Hardware stack levels required when called: 8
  5332 ;; This function calls:
  5333 ;;		_I2C1_DO_ADDRESS_NACK
  5334 ;;		_I2C1_DO_IDLE
  5335 ;;		_I2C1_DO_RCEN
  5336 ;;		_I2C1_DO_RESET
  5337 ;;		_I2C1_DO_RX
  5338 ;;		_I2C1_DO_RX_ACK
  5339 ;;		_I2C1_DO_RX_NACK_RESTART
  5340 ;;		_I2C1_DO_RX_NACK_STOP
  5341 ;;		_I2C1_DO_SEND_ADR_READ
  5342 ;;		_I2C1_DO_SEND_ADR_WRITE
  5343 ;;		_I2C1_DO_SEND_RESTART
  5344 ;;		_I2C1_DO_SEND_RESTART_READ
  5345 ;;		_I2C1_DO_SEND_RESTART_WRITE
  5346 ;;		_I2C1_DO_SEND_STOP
  5347 ;;		_I2C1_DO_TX
  5348 ;;		_I2C1_DO_TX_EMPTY
  5349 ;;		_I2C1_MasterClearIrq
  5350 ;;		_I2C1_MasterIsNack
  5351 ;; This function is called by:
  5352 ;;		_I2C1_Poller
  5353 ;; This function uses a non-reentrant model
  5354 ;;
  5355                           
  5356                           	psect	text31
  5357  0115EE                     __ptext31:
  5358                           	callstack 0
  5359  0115EE                     _I2C1_MasterFsm:
  5360                           	callstack 14
  5361  0115EE                     
  5362                           ;mcc_generated_files/i2c1_master.c: 325:     I2C1_MasterClearIrq();
  5363  0115EE  EC36  F08E         	call	_I2C1_MasterClearIrq	;wreg free
  5364  0115F2                     
  5365                           ;mcc_generated_files/i2c1_master.c: 327:     if(I2C1_Status.addressNackCheck && I2C1_Mas
      +                          terIsNack())
  5366  0115F2  0100               	movlb	0	; () banked
  5367  0115F4  A189               	btfss	(_I2C1_Status+41)& (0+255),0,b
  5368  0115F6  EFFF  F08A         	goto	u14541
  5369  0115FA  EF01  F08B         	goto	u14540
  5370  0115FE                     u14541:
  5371  0115FE  EF0E  F08B         	goto	l12314
  5372  011602                     u14540:
  5373  011602                     
  5374                           ; BSR set to: 0
  5375  011602  ECBE  F08D         	call	_I2C1_MasterIsNack	;wreg free
  5376  011606  0900               	iorlw	0
  5377  011608  B4D8               	btfsc	status,2,c
  5378  01160A  EF09  F08B         	goto	u14551
  5379  01160E  EF0B  F08B         	goto	u14550
  5380  011612                     u14551:
  5381  011612  EF0E  F08B         	goto	l12314
  5382  011616                     u14550:
  5383  011616                     
  5384                           ;mcc_generated_files/i2c1_master.c: 328:     {;mcc_generated_files/i2c1_master.c: 329:  
      +                                 I2C1_Status.state = I2C1_ADDRESS_NACK;
  5385  011616  0E0F               	movlw	15
  5386  011618  0100               	movlb	0	; () banked
  5387  01161A  6F87               	movwf	(_I2C1_Status+39)& (0+255),b
  5388  01161C                     l12314:
  5389                           
  5390                           ;mcc_generated_files/i2c1_master.c: 331:     I2C1_Status.state = i2c1_fsmStateTable[I2C1
      +                          _Status.state]();
  5391  01161C  0100               	movlb	0	; () banked
  5392  01161E  5187               	movf	(_I2C1_Status+39)& (0+255),w,b
  5393  011620  0D03               	mullw	3
  5394  011622  0E53               	movlw	low _i2c1_fsmStateTable
  5395  011624  24F3               	addwf	243,w,c
  5396  011626  6EF6               	movwf	tblptrl,c
  5397  011628  0EFF               	movlw	high _i2c1_fsmStateTable
  5398  01162A  20F4               	addwfc	244,w,c
  5399  01162C  6EF7               	movwf	tblptrh,c
  5400  01162E                     	if	1	;There are 3 active tblptr bytes
  5401  01162E  6AF8               	clrf	tblptru,c
  5402  011630  0E00               	movlw	low (__mediumconst shr (0+16))
  5403  011632  22F8               	addwfc	tblptru,f,c
  5404  011634                     	endif
  5405  011634  D802               	call	u14568
  5406  011636  EF2A  F08B         	goto	u14569
  5407  01163A                     u14568:
  5408  01163A  0005               	push	
  5409  01163C  6EFA               	movwf	pclath,c
  5410  01163E  0009               	tblrd		*+
  5411  011640  50F5               	movf	tablat,w,c
  5412  011642  6EFD               	movwf	tosl,c
  5413  011644  0009               	tblrd		*+
  5414  011646  50F5               	movf	tablat,w,c
  5415  011648  6EFE               	movwf	tosh,c
  5416  01164A  0009               	tblrd		*+
  5417  01164C  50F5               	movf	tablat,w,c
  5418  01164E  6EFF               	movwf	tosu,c
  5419  011650  50FA               	movf	pclath,w,c
  5420  011652  0012               	return		;indir
  5421  011654                     u14569:
  5422  011654  0100               	movlb	0	; () banked
  5423  011656  6F87               	movwf	(_I2C1_Status+39)& (0+255),b
  5424  011658                     
  5425                           ; BSR set to: 0
  5426  011658  0012               	return		;funcret
  5427  01165A                     __end_of_I2C1_MasterFsm:
  5428                           	callstack 0
  5429                           
  5430 ;; *************** function _I2C1_DO_ADDRESS_NACK *****************
  5431 ;; Defined at:
  5432 ;;		line 502 in file "mcc_generated_files/i2c1_master.c"
  5433 ;; Parameters:    Size  Location     Type
  5434 ;;		None
  5435 ;; Auto vars:     Size  Location     Type
  5436 ;;		None
  5437 ;; Return value:  Size  Location     Type
  5438 ;;                  1    wreg      enum E9968
  5439 ;; Registers used:
  5440 ;;		wreg, fsr2l, fsr2h, status,2, status,0, pcl, pclath, pclatu, tosl, prodl, prodh, cstack
  5441 ;; Tracked objects:
  5442 ;;		On entry : 0/0
  5443 ;;		On exit  : 0/0
  5444 ;;		Unchanged: 0/0
  5445 ;; Data sizes:     COMRAM   BANK0   BANK1   BANK2   BANK3   BANK4   BANK5   BANK6   BANK7   BANK8   BANK9  BANK10  BANK1
      +1  BANK12  BANK13  BANK14
  5446 ;;      Params:         0       0       0       0       0       0       0       0       0       0       0       0       
      +0       0       0       0
  5447 ;;      Locals:         0       0       0       0       0       0       0       0       0       0       0       0       
      +0       0       0       0
  5448 ;;      Temps:          2       0       0       0       0       0       0       0       0       0       0       0       
      +0       0       0       0
  5449 ;;      Totals:         2       0       0       0       0       0       0       0       0       0       0       0       
      +0       0       0       0
  5450 ;;Total ram usage:        2 bytes
  5451 ;; Hardware stack levels used: 1
  5452 ;; Hardware stack levels required when called: 7
  5453 ;; This function calls:
  5454 ;;		Absolute function
  5455 ;;		_I2C1_CallbackReturnReset
  5456 ;;		_I2C1_CallbackReturnStop
  5457 ;;		_I2C1_DO_SEND_RESTART
  5458 ;;		_I2C1_DO_SEND_STOP
  5459 ;;		_rd1RegCompleteHandler
  5460 ;;		_rd2RegCompleteHandler
  5461 ;;		_rdBlkRegCompleteHandler
  5462 ;;		_wr1RegCompleteHandler
  5463 ;;		_wr2RegCompleteHandler
  5464 ;; This function is called by:
  5465 ;;		_I2C1_MasterFsm
  5466 ;; This function uses a non-reentrant model
  5467 ;;
  5468                           
  5469                           	psect	text32
  5470  01165A                     __ptext32:
  5471                           	callstack 0
  5472  01165A                     _I2C1_DO_ADDRESS_NACK:
  5473                           	callstack 14
  5474  01165A                     
  5475                           ;mcc_generated_files/i2c1_master.c: 504:     I2C1_Status.addressNackCheck = 0;
  5476  01165A  0100               	movlb	0	; () banked
  5477  01165C  9189               	bcf	(_I2C1_Status+41)& (0+255),0,b
  5478  01165E                     
  5479                           ; BSR set to: 0
  5480                           ;mcc_generated_files/i2c1_master.c: 505:     I2C1_Status.error = I2C1_FAIL;
  5481  01165E  0E02               	movlw	2
  5482  011660  6F88               	movwf	(_I2C1_Status+40)& (0+255),b
  5483                           
  5484                           ;mcc_generated_files/i2c1_master.c: 506:     switch(I2C1_Status.callbackTable[I2C1_ADDR_
      +                          NACK](I2C1_Status.callbackPayload[I2C1_ADDR_NACK]))
  5485  011662  EF3B  F08B         	goto	l12298
  5486  011666                     l12288:
  5487                           
  5488                           ;mcc_generated_files/i2c1_master.c: 510:             return I2C1_DO_SEND_RESTART();
  5489  011666  EC1A  F08E         	call	_I2C1_DO_SEND_RESTART	;wreg free
  5490  01166A  EF62  F08B         	goto	l1625
  5491  01166E                     l12292:
  5492                           
  5493                           ;mcc_generated_files/i2c1_master.c: 512:             return I2C1_DO_SEND_STOP();
  5494  01166E  EC16  F08E         	call	_I2C1_DO_SEND_STOP	;wreg free
  5495  011672  EF62  F08B         	goto	l1625
  5496  011676                     l12298:
  5497                           
  5498                           ; BSR set to: 0
  5499  011676  C076  F010         	movff	_I2C1_Status+22,I2C1_CallbackReturnReset@funPtr
  5500  01167A  C077  F011         	movff	_I2C1_Status+23,I2C1_CallbackReturnReset@funPtr+1
  5501  01167E  EE20  F066         	lfsr	2,_I2C1_Status+6
  5502  011682  D802               	call	u14528
  5503  011684  EF4E  F08B         	goto	u14529
  5504  011688                     u14528:
  5505  011688  0005               	push	
  5506  01168A  6EFA               	movwf	pclath,c
  5507  01168C  50DE               	movf	postinc2,w,c
  5508  01168E  6EFD               	movwf	tosl,c
  5509  011690  50DE               	movf	postinc2,w,c
  5510  011692  6EFE               	movwf	tosh,c
  5511  011694  50DE               	movf	postinc2,w,c
  5512  011696  6EFF               	movwf	tosu,c
  5513  011698  50FA               	movf	pclath,w,c
  5514  01169A  0012               	return		;indir
  5515  01169C                     u14529:
  5516  01169C  6E12               	movwf	??_I2C1_DO_ADDRESS_NACK^0,c
  5517  01169E  6A13               	clrf	(??_I2C1_DO_ADDRESS_NACK+1)^0,c
  5518                           
  5519                           ; Switch on 2 bytes has been partitioned into a top level switch of size 1, and 1 sub-sw
      +                          itches
  5520                           ; Switch size 1, requested type "simple"
  5521                           ; Number of cases is 1, Range of values is 0 to 0
  5522                           ; switch strategies available:
  5523                           ; Name         Instructions Cycles
  5524                           ; simple_byte            4     3 (average)
  5525                           ;	Chosen strategy is simple_byte
  5526  0116A0  5013               	movf	(??_I2C1_DO_ADDRESS_NACK+1)^0,w,c
  5527  0116A2  0A00               	xorlw	0	; case 0
  5528  0116A4  B4D8               	btfsc	status,2,c
  5529  0116A6  EF57  F08B         	goto	l13568
  5530  0116AA  EF37  F08B         	goto	l12292
  5531  0116AE                     l13568:
  5532                           
  5533                           ; Switch size 1, requested type "simple"
  5534                           ; Number of cases is 2, Range of values is 2 to 3
  5535                           ; switch strategies available:
  5536                           ; Name         Instructions Cycles
  5537                           ; simple_byte            7     4 (average)
  5538                           ;	Chosen strategy is simple_byte
  5539  0116AE  5012               	movf	??_I2C1_DO_ADDRESS_NACK^0,w,c
  5540  0116B0  0A02               	xorlw	2	; case 2
  5541  0116B2  B4D8               	btfsc	status,2,c
  5542  0116B4  EF33  F08B         	goto	l12288
  5543  0116B8  0A01               	xorlw	1	; case 3
  5544  0116BA  B4D8               	btfsc	status,2,c
  5545  0116BC  EF33  F08B         	goto	l12288
  5546  0116C0  EF37  F08B         	goto	l12292
  5547  0116C4                     l1625:
  5548  0116C4  0012               	return		;funcret
  5549  0116C6                     __end_of_I2C1_DO_ADDRESS_NACK:
  5550                           	callstack 0
  5551                           
  5552 ;; *************** function _I2C1_DO_RESET *****************
  5553 ;; Defined at:
  5554 ;;		line 496 in file "mcc_generated_files/i2c1_master.c"
  5555 ;; Parameters:    Size  Location     Type
  5556 ;;		None
  5557 ;; Auto vars:     Size  Location     Type
  5558 ;;		None
  5559 ;; Return value:  Size  Location     Type
  5560 ;;                  1    wreg      enum E9968
  5561 ;; Registers used:
  5562 ;;		wreg, status,2
  5563 ;; Tracked objects:
  5564 ;;		On entry : 0/0
  5565 ;;		On exit  : 0/0
  5566 ;;		Unchanged: 0/0
  5567 ;; Data sizes:     COMRAM   BANK0   BANK1   BANK2   BANK3   BANK4   BANK5   BANK6   BANK7   BANK8   BANK9  BANK10  BANK1
      +1  BANK12  BANK13  BANK14
  5568 ;;      Params:         0       0       0       0       0       0       0       0       0       0       0       0       
      +0       0       0       0
  5569 ;;      Locals:         0       0       0       0       0       0       0       0       0       0       0       0       
      +0       0       0       0
  5570 ;;      Temps:          0       0       0       0       0       0       0       0       0       0       0       0       
      +0       0       0       0
  5571 ;;      Totals:         0       0       0       0       0       0       0       0       0       0       0       0       
      +0       0       0       0
  5572 ;;Total ram usage:        0 bytes
  5573 ;; Hardware stack levels used: 1
  5574 ;; Hardware stack levels required when called: 4
  5575 ;; This function calls:
  5576 ;;		Nothing
  5577 ;; This function is called by:
  5578 ;;		_I2C1_MasterFsm
  5579 ;; This function uses a non-reentrant model
  5580 ;;
  5581                           
  5582                           	psect	text33
  5583  011BDE                     __ptext33:
  5584                           	callstack 0
  5585  011BDE                     _I2C1_DO_RESET:
  5586                           	callstack 17
  5587  011BDE                     
  5588                           ;mcc_generated_files/i2c1_master.c: 498:     I2C1_Status.busy = 0;
  5589  011BDE  0100               	movlb	0	; () banked
  5590  011BE0  9389               	bcf	(_I2C1_Status+41)& (0+255),1,b
  5591  011BE2                     
  5592                           ; BSR set to: 0
  5593                           ;mcc_generated_files/i2c1_master.c: 499:     I2C1_Status.error = I2C1_NOERR;
  5594  011BE2  0E00               	movlw	0
  5595  011BE4  6F88               	movwf	(_I2C1_Status+40)& (0+255),b
  5596  011BE6                     
  5597                           ; BSR set to: 0
  5598                           ;mcc_generated_files/i2c1_master.c: 500:     return I2C1_RESET;
  5599  011BE6  0E0E               	movlw	14
  5600  011BE8                     
  5601                           ; BSR set to: 0
  5602  011BE8  0012               	return		;funcret
  5603  011BEA                     __end_of_I2C1_DO_RESET:
  5604                           	callstack 0
  5605                           
  5606 ;; *************** function _I2C1_DO_RX_NACK_RESTART *****************
  5607 ;; Defined at:
  5608 ;;		line 490 in file "mcc_generated_files/i2c1_master.c"
  5609 ;; Parameters:    Size  Location     Type
  5610 ;;		None
  5611 ;; Auto vars:     Size  Location     Type
  5612 ;;		None
  5613 ;; Return value:  Size  Location     Type
  5614 ;;                  1    wreg      enum E9968
  5615 ;; Registers used:
  5616 ;;		wreg, cstack
  5617 ;; Tracked objects:
  5618 ;;		On entry : 0/0
  5619 ;;		On exit  : 0/0
  5620 ;;		Unchanged: 0/0
  5621 ;; Data sizes:     COMRAM   BANK0   BANK1   BANK2   BANK3   BANK4   BANK5   BANK6   BANK7   BANK8   BANK9  BANK10  BANK1
      +1  BANK12  BANK13  BANK14
  5622 ;;      Params:         0       0       0       0       0       0       0       0       0       0       0       0       
      +0       0       0       0
  5623 ;;      Locals:         0       0       0       0       0       0       0       0       0       0       0       0       
      +0       0       0       0
  5624 ;;      Temps:          0       0       0       0       0       0       0       0       0       0       0       0       
      +0       0       0       0
  5625 ;;      Totals:         0       0       0       0       0       0       0       0       0       0       0       0       
      +0       0       0       0
  5626 ;;Total ram usage:        0 bytes
  5627 ;; Hardware stack levels used: 1
  5628 ;; Hardware stack levels required when called: 5
  5629 ;; This function calls:
  5630 ;;		_I2C1_MasterSendNack
  5631 ;; This function is called by:
  5632 ;;		_I2C1_DO_RX
  5633 ;;		_I2C1_MasterFsm
  5634 ;; This function uses a non-reentrant model
  5635 ;;
  5636                           
  5637                           	psect	text34
  5638  011C14                     __ptext34:
  5639                           	callstack 0
  5640  011C14                     _I2C1_DO_RX_NACK_RESTART:
  5641                           	callstack 16
  5642  011C14                     
  5643                           ;mcc_generated_files/i2c1_master.c: 492:     I2C1_MasterSendNack();
  5644  011C14  EC30  F08E         	call	_I2C1_MasterSendNack	;wreg free
  5645  011C18                     
  5646                           ;mcc_generated_files/i2c1_master.c: 493:     return I2C1_SEND_RESTART;
  5647  011C18  0E09               	movlw	9
  5648  011C1A  0012               	return		;funcret
  5649  011C1C                     __end_of_I2C1_DO_RX_NACK_RESTART:
  5650                           	callstack 0
  5651                           
  5652 ;; *************** function _I2C1_DO_RX_NACK_STOP *****************
  5653 ;; Defined at:
  5654 ;;		line 484 in file "mcc_generated_files/i2c1_master.c"
  5655 ;; Parameters:    Size  Location     Type
  5656 ;;		None
  5657 ;; Auto vars:     Size  Location     Type
  5658 ;;		None
  5659 ;; Return value:  Size  Location     Type
  5660 ;;                  1    wreg      enum E9968
  5661 ;; Registers used:
  5662 ;;		wreg, cstack
  5663 ;; Tracked objects:
  5664 ;;		On entry : 0/0
  5665 ;;		On exit  : 0/0
  5666 ;;		Unchanged: 0/0
  5667 ;; Data sizes:     COMRAM   BANK0   BANK1   BANK2   BANK3   BANK4   BANK5   BANK6   BANK7   BANK8   BANK9  BANK10  BANK1
      +1  BANK12  BANK13  BANK14
  5668 ;;      Params:         0       0       0       0       0       0       0       0       0       0       0       0       
      +0       0       0       0
  5669 ;;      Locals:         0       0       0       0       0       0       0       0       0       0       0       0       
      +0       0       0       0
  5670 ;;      Temps:          0       0       0       0       0       0       0       0       0       0       0       0       
      +0       0       0       0
  5671 ;;      Totals:         0       0       0       0       0       0       0       0       0       0       0       0       
      +0       0       0       0
  5672 ;;Total ram usage:        0 bytes
  5673 ;; Hardware stack levels used: 1
  5674 ;; Hardware stack levels required when called: 5
  5675 ;; This function calls:
  5676 ;;		_I2C1_MasterSendNack
  5677 ;; This function is called by:
  5678 ;;		_I2C1_DO_RX
  5679 ;;		_I2C1_MasterFsm
  5680 ;; This function uses a non-reentrant model
  5681 ;;
  5682                           
  5683                           	psect	text35
  5684  011C1C                     __ptext35:
  5685                           	callstack 0
  5686  011C1C                     _I2C1_DO_RX_NACK_STOP:
  5687                           	callstack 16
  5688  011C1C                     
  5689                           ;mcc_generated_files/i2c1_master.c: 486:     I2C1_MasterSendNack();
  5690  011C1C  EC30  F08E         	call	_I2C1_MasterSendNack	;wreg free
  5691  011C20                     
  5692                           ;mcc_generated_files/i2c1_master.c: 487:     return I2C1_SEND_STOP;
  5693  011C20  0E0A               	movlw	10
  5694  011C22  0012               	return		;funcret
  5695  011C24                     __end_of_I2C1_DO_RX_NACK_STOP:
  5696                           	callstack 0
  5697                           
  5698 ;; *************** function _I2C1_DO_RX_ACK *****************
  5699 ;; Defined at:
  5700 ;;		line 477 in file "mcc_generated_files/i2c1_master.c"
  5701 ;; Parameters:    Size  Location     Type
  5702 ;;		None
  5703 ;; Auto vars:     Size  Location     Type
  5704 ;;		None
  5705 ;; Return value:  Size  Location     Type
  5706 ;;                  1    wreg      enum E9968
  5707 ;; Registers used:
  5708 ;;		wreg, cstack
  5709 ;; Tracked objects:
  5710 ;;		On entry : 0/0
  5711 ;;		On exit  : 0/0
  5712 ;;		Unchanged: 0/0
  5713 ;; Data sizes:     COMRAM   BANK0   BANK1   BANK2   BANK3   BANK4   BANK5   BANK6   BANK7   BANK8   BANK9  BANK10  BANK1
      +1  BANK12  BANK13  BANK14
  5714 ;;      Params:         0       0       0       0       0       0       0       0       0       0       0       0       
      +0       0       0       0
  5715 ;;      Locals:         0       0       0       0       0       0       0       0       0       0       0       0       
      +0       0       0       0
  5716 ;;      Temps:          0       0       0       0       0       0       0       0       0       0       0       0       
      +0       0       0       0
  5717 ;;      Totals:         0       0       0       0       0       0       0       0       0       0       0       0       
      +0       0       0       0
  5718 ;;Total ram usage:        0 bytes
  5719 ;; Hardware stack levels used: 1
  5720 ;; Hardware stack levels required when called: 5
  5721 ;; This function calls:
  5722 ;;		_I2C1_MasterSendAck
  5723 ;; This function is called by:
  5724 ;;		_I2C1_MasterFsm
  5725 ;; This function uses a non-reentrant model
  5726 ;;
  5727                           
  5728                           	psect	text36
  5729  011C24                     __ptext36:
  5730                           	callstack 0
  5731  011C24                     _I2C1_DO_RX_ACK:
  5732                           	callstack 16
  5733  011C24                     
  5734                           ;mcc_generated_files/i2c1_master.c: 479:     I2C1_MasterSendAck();
  5735  011C24  EC2D  F08E         	call	_I2C1_MasterSendAck	;wreg free
  5736  011C28                     
  5737                           ;mcc_generated_files/i2c1_master.c: 480:     return I2C1_RCEN;
  5738  011C28  0E05               	movlw	5
  5739  011C2A  0012               	return		;funcret
  5740  011C2C                     __end_of_I2C1_DO_RX_ACK:
  5741                           	callstack 0
  5742                           
  5743 ;; *************** function _I2C1_DO_SEND_STOP *****************
  5744 ;; Defined at:
  5745 ;;		line 471 in file "mcc_generated_files/i2c1_master.c"
  5746 ;; Parameters:    Size  Location     Type
  5747 ;;		None
  5748 ;; Auto vars:     Size  Location     Type
  5749 ;;		None
  5750 ;; Return value:  Size  Location     Type
  5751 ;;                  1    wreg      enum E9968
  5752 ;; Registers used:
  5753 ;;		wreg, cstack
  5754 ;; Tracked objects:
  5755 ;;		On entry : 0/0
  5756 ;;		On exit  : 0/0
  5757 ;;		Unchanged: 0/0
  5758 ;; Data sizes:     COMRAM   BANK0   BANK1   BANK2   BANK3   BANK4   BANK5   BANK6   BANK7   BANK8   BANK9  BANK10  BANK1
      +1  BANK12  BANK13  BANK14
  5759 ;;      Params:         0       0       0       0       0       0       0       0       0       0       0       0       
      +0       0       0       0
  5760 ;;      Locals:         0       0       0       0       0       0       0       0       0       0       0       0       
      +0       0       0       0
  5761 ;;      Temps:          0       0       0       0       0       0       0       0       0       0       0       0       
      +0       0       0       0
  5762 ;;      Totals:         0       0       0       0       0       0       0       0       0       0       0       0       
      +0       0       0       0
  5763 ;;Total ram usage:        0 bytes
  5764 ;; Hardware stack levels used: 1
  5765 ;; Hardware stack levels required when called: 5
  5766 ;; This function calls:
  5767 ;;		_I2C1_MasterStop
  5768 ;; This function is called by:
  5769 ;;		_I2C1_DO_TX
  5770 ;;		_I2C1_DO_TX_EMPTY
  5771 ;;		_I2C1_DO_ADDRESS_NACK
  5772 ;;		_I2C1_MasterFsm
  5773 ;; This function uses a non-reentrant model
  5774 ;;
  5775                           
  5776                           	psect	text37
  5777  011C2C                     __ptext37:
  5778                           	callstack 0
  5779  011C2C                     _I2C1_DO_SEND_STOP:
  5780                           	callstack 15
  5781  011C2C                     
  5782                           ;mcc_generated_files/i2c1_master.c: 473:     I2C1_MasterStop();
  5783  011C2C  EC41  F08E         	call	_I2C1_MasterStop	;wreg free
  5784  011C30                     
  5785                           ;mcc_generated_files/i2c1_master.c: 474:     return I2C1_IDLE;
  5786  011C30  0E00               	movlw	0
  5787  011C32  0012               	return		;funcret
  5788  011C34                     __end_of_I2C1_DO_SEND_STOP:
  5789                           	callstack 0
  5790                           
  5791 ;; *************** function _I2C1_DO_SEND_RESTART *****************
  5792 ;; Defined at:
  5793 ;;		line 465 in file "mcc_generated_files/i2c1_master.c"
  5794 ;; Parameters:    Size  Location     Type
  5795 ;;		None
  5796 ;; Auto vars:     Size  Location     Type
  5797 ;;		None
  5798 ;; Return value:  Size  Location     Type
  5799 ;;                  1    wreg      enum E9968
  5800 ;; Registers used:
  5801 ;;		wreg, cstack
  5802 ;; Tracked objects:
  5803 ;;		On entry : 0/0
  5804 ;;		On exit  : 0/0
  5805 ;;		Unchanged: 0/0
  5806 ;; Data sizes:     COMRAM   BANK0   BANK1   BANK2   BANK3   BANK4   BANK5   BANK6   BANK7   BANK8   BANK9  BANK10  BANK1
      +1  BANK12  BANK13  BANK14
  5807 ;;      Params:         0       0       0       0       0       0       0       0       0       0       0       0       
      +0       0       0       0
  5808 ;;      Locals:         0       0       0       0       0       0       0       0       0       0       0       0       
      +0       0       0       0
  5809 ;;      Temps:          0       0       0       0       0       0       0       0       0       0       0       0       
      +0       0       0       0
  5810 ;;      Totals:         0       0       0       0       0       0       0       0       0       0       0       0       
      +0       0       0       0
  5811 ;;Total ram usage:        0 bytes
  5812 ;; Hardware stack levels used: 1
  5813 ;; Hardware stack levels required when called: 5
  5814 ;; This function calls:
  5815 ;;		_I2C1_MasterEnableRestart
  5816 ;; This function is called by:
  5817 ;;		_I2C1_DO_TX_EMPTY
  5818 ;;		_I2C1_DO_ADDRESS_NACK
  5819 ;;		_I2C1_MasterFsm
  5820 ;; This function uses a non-reentrant model
  5821 ;;
  5822                           
  5823                           	psect	text38
  5824  011C34                     __ptext38:
  5825                           	callstack 0
  5826  011C34                     _I2C1_DO_SEND_RESTART:
  5827                           	callstack 15
  5828  011C34                     
  5829                           ;mcc_generated_files/i2c1_master.c: 467:     I2C1_MasterEnableRestart();
  5830  011C34  EC43  F08E         	call	_I2C1_MasterEnableRestart	;wreg free
  5831  011C38                     
  5832                           ;mcc_generated_files/i2c1_master.c: 468:     return I2C1_SEND_ADR_READ;
  5833  011C38  0E01               	movlw	1
  5834  011C3A  0012               	return		;funcret
  5835  011C3C                     __end_of_I2C1_DO_SEND_RESTART:
  5836                           	callstack 0
  5837                           
  5838 ;; *************** function _I2C1_DO_SEND_RESTART_WRITE *****************
  5839 ;; Defined at:
  5840 ;;		line 458 in file "mcc_generated_files/i2c1_master.c"
  5841 ;; Parameters:    Size  Location     Type
  5842 ;;		None
  5843 ;; Auto vars:     Size  Location     Type
  5844 ;;		None
  5845 ;; Return value:  Size  Location     Type
  5846 ;;                  1    wreg      enum E9968
  5847 ;; Registers used:
  5848 ;;		wreg, cstack
  5849 ;; Tracked objects:
  5850 ;;		On entry : 0/0
  5851 ;;		On exit  : 0/0
  5852 ;;		Unchanged: 0/0
  5853 ;; Data sizes:     COMRAM   BANK0   BANK1   BANK2   BANK3   BANK4   BANK5   BANK6   BANK7   BANK8   BANK9  BANK10  BANK1
      +1  BANK12  BANK13  BANK14
  5854 ;;      Params:         0       0       0       0       0       0       0       0       0       0       0       0       
      +0       0       0       0
  5855 ;;      Locals:         0       0       0       0       0       0       0       0       0       0       0       0       
      +0       0       0       0
  5856 ;;      Temps:          0       0       0       0       0       0       0       0       0       0       0       0       
      +0       0       0       0
  5857 ;;      Totals:         0       0       0       0       0       0       0       0       0       0       0       0       
      +0       0       0       0
  5858 ;;Total ram usage:        0 bytes
  5859 ;; Hardware stack levels used: 1
  5860 ;; Hardware stack levels required when called: 5
  5861 ;; This function calls:
  5862 ;;		_I2C1_MasterEnableRestart
  5863 ;; This function is called by:
  5864 ;;		_I2C1_DO_TX
  5865 ;;		_I2C1_MasterFsm
  5866 ;; This function uses a non-reentrant model
  5867 ;;
  5868                           
  5869                           	psect	text39
  5870  011C3C                     __ptext39:
  5871                           	callstack 0
  5872  011C3C                     _I2C1_DO_SEND_RESTART_WRITE:
  5873                           	callstack 15
  5874  011C3C                     
  5875                           ;mcc_generated_files/i2c1_master.c: 460:     I2C1_MasterEnableRestart();
  5876  011C3C  EC43  F08E         	call	_I2C1_MasterEnableRestart	;wreg free
  5877  011C40                     
  5878                           ;mcc_generated_files/i2c1_master.c: 461:     return I2C1_SEND_ADR_WRITE;
  5879  011C40  0E02               	movlw	2
  5880  011C42  0012               	return		;funcret
  5881  011C44                     __end_of_I2C1_DO_SEND_RESTART_WRITE:
  5882                           	callstack 0
  5883                           
  5884 ;; *************** function _I2C1_DO_SEND_RESTART_READ *****************
  5885 ;; Defined at:
  5886 ;;		line 452 in file "mcc_generated_files/i2c1_master.c"
  5887 ;; Parameters:    Size  Location     Type
  5888 ;;		None
  5889 ;; Auto vars:     Size  Location     Type
  5890 ;;		None
  5891 ;; Return value:  Size  Location     Type
  5892 ;;                  1    wreg      enum E9968
  5893 ;; Registers used:
  5894 ;;		wreg, cstack
  5895 ;; Tracked objects:
  5896 ;;		On entry : 0/0
  5897 ;;		On exit  : 0/0
  5898 ;;		Unchanged: 0/0
  5899 ;; Data sizes:     COMRAM   BANK0   BANK1   BANK2   BANK3   BANK4   BANK5   BANK6   BANK7   BANK8   BANK9  BANK10  BANK1
      +1  BANK12  BANK13  BANK14
  5900 ;;      Params:         0       0       0       0       0       0       0       0       0       0       0       0       
      +0       0       0       0
  5901 ;;      Locals:         0       0       0       0       0       0       0       0       0       0       0       0       
      +0       0       0       0
  5902 ;;      Temps:          0       0       0       0       0       0       0       0       0       0       0       0       
      +0       0       0       0
  5903 ;;      Totals:         0       0       0       0       0       0       0       0       0       0       0       0       
      +0       0       0       0
  5904 ;;Total ram usage:        0 bytes
  5905 ;; Hardware stack levels used: 1
  5906 ;; Hardware stack levels required when called: 5
  5907 ;; This function calls:
  5908 ;;		_I2C1_MasterEnableRestart
  5909 ;; This function is called by:
  5910 ;;		_I2C1_DO_TX
  5911 ;;		_I2C1_MasterFsm
  5912 ;; This function uses a non-reentrant model
  5913 ;;
  5914                           
  5915                           	psect	text40
  5916  011C44                     __ptext40:
  5917                           	callstack 0
  5918  011C44                     _I2C1_DO_SEND_RESTART_READ:
  5919                           	callstack 15
  5920  011C44                     
  5921                           ;mcc_generated_files/i2c1_master.c: 454:     I2C1_MasterEnableRestart();
  5922  011C44  EC43  F08E         	call	_I2C1_MasterEnableRestart	;wreg free
  5923  011C48                     
  5924                           ;mcc_generated_files/i2c1_master.c: 455:     return I2C1_SEND_ADR_READ;
  5925  011C48  0E01               	movlw	1
  5926  011C4A  0012               	return		;funcret
  5927  011C4C                     __end_of_I2C1_DO_SEND_RESTART_READ:
  5928                           	callstack 0
  5929                           
  5930 ;; *************** function _I2C1_DO_RCEN *****************
  5931 ;; Defined at:
  5932 ;;		line 404 in file "mcc_generated_files/i2c1_master.c"
  5933 ;; Parameters:    Size  Location     Type
  5934 ;;		None
  5935 ;; Auto vars:     Size  Location     Type
  5936 ;;		None
  5937 ;; Return value:  Size  Location     Type
  5938 ;;                  1    wreg      enum E9968
  5939 ;; Registers used:
  5940 ;;		wreg, cstack
  5941 ;; Tracked objects:
  5942 ;;		On entry : 0/0
  5943 ;;		On exit  : 0/0
  5944 ;;		Unchanged: 0/0
  5945 ;; Data sizes:     COMRAM   BANK0   BANK1   BANK2   BANK3   BANK4   BANK5   BANK6   BANK7   BANK8   BANK9  BANK10  BANK1
      +1  BANK12  BANK13  BANK14
  5946 ;;      Params:         0       0       0       0       0       0       0       0       0       0       0       0       
      +0       0       0       0
  5947 ;;      Locals:         0       0       0       0       0       0       0       0       0       0       0       0       
      +0       0       0       0
  5948 ;;      Temps:          0       0       0       0       0       0       0       0       0       0       0       0       
      +0       0       0       0
  5949 ;;      Totals:         0       0       0       0       0       0       0       0       0       0       0       0       
      +0       0       0       0
  5950 ;;Total ram usage:        0 bytes
  5951 ;; Hardware stack levels used: 1
  5952 ;; Hardware stack levels required when called: 5
  5953 ;; This function calls:
  5954 ;;		_I2C1_MasterStartRx
  5955 ;; This function is called by:
  5956 ;;		_I2C1_MasterFsm
  5957 ;; This function uses a non-reentrant model
  5958 ;;
  5959                           
  5960                           	psect	text41
  5961  011BEA                     __ptext41:
  5962                           	callstack 0
  5963  011BEA                     _I2C1_DO_RCEN:
  5964                           	callstack 16
  5965  011BEA                     
  5966                           ;mcc_generated_files/i2c1_master.c: 406:     I2C1_Status.addressNackCheck = 0;
  5967  011BEA  0100               	movlb	0	; () banked
  5968  011BEC  9189               	bcf	(_I2C1_Status+41)& (0+255),0,b
  5969  011BEE                     
  5970                           ; BSR set to: 0
  5971                           ;mcc_generated_files/i2c1_master.c: 407:     I2C1_MasterStartRx();
  5972  011BEE  EC3B  F08E         	call	_I2C1_MasterStartRx	;wreg free
  5973  011BF2                     
  5974                           ;mcc_generated_files/i2c1_master.c: 408:     return I2C1_RX;
  5975  011BF2  0E04               	movlw	4
  5976  011BF4  0012               	return		;funcret
  5977  011BF6                     __end_of_I2C1_DO_RCEN:
  5978                           	callstack 0
  5979                           
  5980 ;; *************** function _I2C1_DO_RX *****************
  5981 ;; Defined at:
  5982 ;;		line 380 in file "mcc_generated_files/i2c1_master.c"
  5983 ;; Parameters:    Size  Location     Type
  5984 ;;		None
  5985 ;; Auto vars:     Size  Location     Type
  5986 ;;		None
  5987 ;; Return value:  Size  Location     Type
  5988 ;;                  1    wreg      enum E9968
  5989 ;; Registers used:
  5990 ;;		wreg, fsr2l, fsr2h, status,2, status,0, pcl, pclath, pclatu, tosl, prodl, prodh, cstack
  5991 ;; Tracked objects:
  5992 ;;		On entry : 0/0
  5993 ;;		On exit  : 0/0
  5994 ;;		Unchanged: 0/0
  5995 ;; Data sizes:     COMRAM   BANK0   BANK1   BANK2   BANK3   BANK4   BANK5   BANK6   BANK7   BANK8   BANK9  BANK10  BANK1
      +1  BANK12  BANK13  BANK14
  5996 ;;      Params:         0       0       0       0       0       0       0       0       0       0       0       0       
      +0       0       0       0
  5997 ;;      Locals:         0       0       0       0       0       0       0       0       0       0       0       0       
      +0       0       0       0
  5998 ;;      Temps:          2       0       0       0       0       0       0       0       0       0       0       0       
      +0       0       0       0
  5999 ;;      Totals:         2       0       0       0       0       0       0       0       0       0       0       0       
      +0       0       0       0
  6000 ;;Total ram usage:        2 bytes
  6001 ;; Hardware stack levels used: 1
  6002 ;; Hardware stack levels required when called: 7
  6003 ;; This function calls:
  6004 ;;		Absolute function
  6005 ;;		_I2C1_CallbackReturnReset
  6006 ;;		_I2C1_CallbackReturnStop
  6007 ;;		_I2C1_DO_RX_NACK_RESTART
  6008 ;;		_I2C1_DO_RX_NACK_STOP
  6009 ;;		_I2C1_MasterGetRxData
  6010 ;;		_I2C1_MasterSendAck
  6011 ;;		_rd1RegCompleteHandler
  6012 ;;		_rd2RegCompleteHandler
  6013 ;;		_rdBlkRegCompleteHandler
  6014 ;;		_wr1RegCompleteHandler
  6015 ;;		_wr2RegCompleteHandler
  6016 ;; This function is called by:
  6017 ;;		_I2C1_MasterFsm
  6018 ;; This function uses a non-reentrant model
  6019 ;;
  6020                           
  6021                           	psect	text42
  6022  010FF4                     __ptext42:
  6023                           	callstack 0
  6024  010FF4                     _I2C1_DO_RX:
  6025                           	callstack 14
  6026  010FF4                     
  6027                           ;mcc_generated_files/i2c1_master.c: 382:     *I2C1_Status.data_ptr++ = I2C1_MasterGetRxD
      +                          ata();
  6028  010FF4  EC39  F08E         	call	_I2C1_MasterGetRxData	;wreg free
  6029  010FF8  C083  FFD9         	movff	_I2C1_Status+35,fsr2l
  6030  010FFC  C084  FFDA         	movff	_I2C1_Status+36,fsr2h
  6031  011000  6EDF               	movwf	indf2,c
  6032  011002  0100               	movlb	0	; () banked
  6033  011004  4B83               	infsnz	(_I2C1_Status+35)& (0+255),f,b
  6034  011006  2B84               	incf	(_I2C1_Status+36)& (0+255),f,b
  6035  011008                     
  6036                           ; BSR set to: 0
  6037                           ;mcc_generated_files/i2c1_master.c: 383:     if(--I2C1_Status.data_length)
  6038  011008  0785               	decf	(_I2C1_Status+37)& (0+255),f,b
  6039  01100A  A0D8               	btfss	status,0,c
  6040  01100C  0786               	decf	(_I2C1_Status+38)& (0+255),f,b
  6041  01100E  5185               	movf	(_I2C1_Status+37)& (0+255),w,b
  6042  011010  1186               	iorwf	(_I2C1_Status+38)& (0+255),w,b
  6043  011012  B4D8               	btfsc	status,2,c
  6044  011014  EF0E  F088         	goto	u14491
  6045  011018  EF10  F088         	goto	u14490
  6046  01101C                     u14491:
  6047  01101C  EF15  F088         	goto	l1562
  6048  011020                     u14490:
  6049  011020                     
  6050                           ; BSR set to: 0
  6051                           ;mcc_generated_files/i2c1_master.c: 384:     {;mcc_generated_files/i2c1_master.c: 385:  
      +                                 I2C1_MasterSendAck();
  6052  011020  EC2D  F08E         	call	_I2C1_MasterSendAck	;wreg free
  6053  011024                     
  6054                           ;mcc_generated_files/i2c1_master.c: 386:         return I2C1_RCEN;
  6055  011024  0E05               	movlw	5
  6056  011026  EF4D  F088         	goto	l1563
  6057  01102A                     l1562:
  6058                           
  6059                           ; BSR set to: 0
  6060                           ;mcc_generated_files/i2c1_master.c: 389:     {;mcc_generated_files/i2c1_master.c: 390:  
      +                                 I2C1_Status.bufferFree = 1;
  6061  01102A  8789               	bsf	(_I2C1_Status+41)& (0+255),3,b
  6062                           
  6063                           ;mcc_generated_files/i2c1_master.c: 391:         switch(I2C1_Status.callbackTable[I2C1_D
      +                          ATA_COMPLETE](I2C1_Status.callbackPayload[I2C1_DATA_COMPLETE]))
  6064  01102C  EF20  F088         	goto	l12232
  6065  011030                     l12222:
  6066                           
  6067                           ;mcc_generated_files/i2c1_master.c: 395:                 return I2C1_DO_RX_NACK_RESTART(
      +                          );
  6068  011030  EC0A  F08E         	call	_I2C1_DO_RX_NACK_RESTART	;wreg free
  6069  011034  EF4D  F088         	goto	l1563
  6070  011038                     l12226:
  6071                           
  6072                           ;mcc_generated_files/i2c1_master.c: 399:                 return I2C1_DO_RX_NACK_STOP();
  6073  011038  EC0E  F08E         	call	_I2C1_DO_RX_NACK_STOP	;wreg free
  6074  01103C  EF4D  F088         	goto	l1563
  6075  011040                     l12232:
  6076                           
  6077                           ; BSR set to: 0
  6078  011040  C072  F010         	movff	_I2C1_Status+18,I2C1_CallbackReturnReset@funPtr
  6079  011044  C073  F011         	movff	_I2C1_Status+19,I2C1_CallbackReturnReset@funPtr+1
  6080  011048  D802               	call	u14508
  6081  01104A  EF31  F088         	goto	u14509
  6082  01104E                     u14508:
  6083  01104E  0005               	push	
  6084  011050  6EFA               	movwf	pclath,c
  6085  011052  5160               	movf	_I2C1_Status& (0+255),w,b
  6086  011054  6EFD               	movwf	tosl,c
  6087  011056  5161               	movf	(_I2C1_Status+1)& (0+255),w,b
  6088  011058  6EFE               	movwf	tosh,c
  6089  01105A  5162               	movf	(_I2C1_Status+2)& (0+255),w,b
  6090  01105C  6EFF               	movwf	tosu,c
  6091  01105E  50FA               	movf	pclath,w,c
  6092  011060  0012               	return		;indir
  6093  011062                     u14509:
  6094  011062  6E12               	movwf	??_I2C1_DO_RX^0,c
  6095  011064  6A13               	clrf	(??_I2C1_DO_RX+1)^0,c
  6096                           
  6097                           ; Switch on 2 bytes has been partitioned into a top level switch of size 1, and 1 sub-sw
      +                          itches
  6098                           ; Switch size 1, requested type "simple"
  6099                           ; Number of cases is 1, Range of values is 0 to 0
  6100                           ; switch strategies available:
  6101                           ; Name         Instructions Cycles
  6102                           ; simple_byte            4     3 (average)
  6103                           ;	Chosen strategy is simple_byte
  6104  011066  5013               	movf	(??_I2C1_DO_RX+1)^0,w,c
  6105  011068  0A00               	xorlw	0	; case 0
  6106  01106A  B4D8               	btfsc	status,2,c
  6107  01106C  EF3A  F088         	goto	l13570
  6108  011070  EF1C  F088         	goto	l12226
  6109  011074                     l13570:
  6110                           
  6111                           ; Switch size 1, requested type "simple"
  6112                           ; Number of cases is 4, Range of values is 1 to 4
  6113                           ; switch strategies available:
  6114                           ; Name         Instructions Cycles
  6115                           ; simple_byte           13     7 (average)
  6116                           ;	Chosen strategy is simple_byte
  6117  011074  5012               	movf	??_I2C1_DO_RX^0,w,c
  6118  011076  0A01               	xorlw	1	; case 1
  6119  011078  B4D8               	btfsc	status,2,c
  6120  01107A  EF1C  F088         	goto	l12226
  6121  01107E  0A03               	xorlw	3	; case 2
  6122  011080  B4D8               	btfsc	status,2,c
  6123  011082  EF18  F088         	goto	l12222
  6124  011086  0A01               	xorlw	1	; case 3
  6125  011088  B4D8               	btfsc	status,2,c
  6126  01108A  EF18  F088         	goto	l12222
  6127  01108E  0A07               	xorlw	7	; case 4
  6128  011090  B4D8               	btfsc	status,2,c
  6129  011092  EF1C  F088         	goto	l12226
  6130  011096  EF1C  F088         	goto	l12226
  6131  01109A                     l1563:
  6132  01109A  0012               	return		;funcret
  6133  01109C                     __end_of_I2C1_DO_RX:
  6134                           	callstack 0
  6135                           
  6136 ;; *************** function _I2C1_DO_TX *****************
  6137 ;; Defined at:
  6138 ;;		line 356 in file "mcc_generated_files/i2c1_master.c"
  6139 ;; Parameters:    Size  Location     Type
  6140 ;;		None
  6141 ;; Auto vars:     Size  Location     Type
  6142 ;;		None
  6143 ;; Return value:  Size  Location     Type
  6144 ;;                  1    wreg      enum E9968
  6145 ;; Registers used:
  6146 ;;		wreg, fsr2l, fsr2h, status,2, status,0, pcl, pclath, pclatu, tosl, prodl, prodh, cstack
  6147 ;; Tracked objects:
  6148 ;;		On entry : 0/0
  6149 ;;		On exit  : 0/0
  6150 ;;		Unchanged: 0/0
  6151 ;; Data sizes:     COMRAM   BANK0   BANK1   BANK2   BANK3   BANK4   BANK5   BANK6   BANK7   BANK8   BANK9  BANK10  BANK1
      +1  BANK12  BANK13  BANK14
  6152 ;;      Params:         0       0       0       0       0       0       0       0       0       0       0       0       
      +0       0       0       0
  6153 ;;      Locals:         0       0       0       0       0       0       0       0       0       0       0       0       
      +0       0       0       0
  6154 ;;      Temps:          2       0       0       0       0       0       0       0       0       0       0       0       
      +0       0       0       0
  6155 ;;      Totals:         2       0       0       0       0       0       0       0       0       0       0       0       
      +0       0       0       0
  6156 ;;Total ram usage:        2 bytes
  6157 ;; Hardware stack levels used: 1
  6158 ;; Hardware stack levels required when called: 7
  6159 ;; This function calls:
  6160 ;;		Absolute function
  6161 ;;		_I2C1_CallbackReturnReset
  6162 ;;		_I2C1_CallbackReturnStop
  6163 ;;		_I2C1_DO_SEND_RESTART_READ
  6164 ;;		_I2C1_DO_SEND_RESTART_WRITE
  6165 ;;		_I2C1_DO_SEND_STOP
  6166 ;;		_I2C1_MasterIsNack
  6167 ;;		_I2C1_MasterSendTxData
  6168 ;;		_rd1RegCompleteHandler
  6169 ;;		_rd2RegCompleteHandler
  6170 ;;		_rdBlkRegCompleteHandler
  6171 ;;		_wr1RegCompleteHandler
  6172 ;;		_wr2RegCompleteHandler
  6173 ;; This function is called by:
  6174 ;;		_I2C1_MasterFsm
  6175 ;; This function uses a non-reentrant model
  6176 ;;
  6177                           
  6178                           	psect	text43
  6179  010C5E                     __ptext43:
  6180                           	callstack 0
  6181  010C5E                     _I2C1_DO_TX:
  6182                           	callstack 14
  6183  010C5E                     
  6184                           ;mcc_generated_files/i2c1_master.c: 358:     if(I2C1_MasterIsNack())
  6185  010C5E  ECBE  F08D         	call	_I2C1_MasterIsNack	;wreg free
  6186  010C62  0900               	iorlw	0
  6187  010C64  B4D8               	btfsc	status,2,c
  6188  010C66  EF37  F086         	goto	u14461
  6189  010C6A  EF39  F086         	goto	u14460
  6190  010C6E                     u14461:
  6191  010C6E  EF76  F086         	goto	l1546
  6192  010C72                     u14460:
  6193  010C72  EF47  F086         	goto	l12192
  6194  010C76                     l12178:
  6195                           
  6196                           ;mcc_generated_files/i2c1_master.c: 363:                 return I2C1_DO_SEND_RESTART_REA
      +                          D();
  6197  010C76  EC22  F08E         	call	_I2C1_DO_SEND_RESTART_READ	;wreg free
  6198  010C7A  EF92  F086         	goto	l1549
  6199  010C7E                     l12182:
  6200                           
  6201                           ;mcc_generated_files/i2c1_master.c: 365:                   return I2C1_DO_SEND_RESTART_W
      +                          RITE();
  6202  010C7E  EC1E  F08E         	call	_I2C1_DO_SEND_RESTART_WRITE	;wreg free
  6203  010C82  EF92  F086         	goto	l1549
  6204  010C86                     l12186:
  6205                           
  6206                           ;mcc_generated_files/i2c1_master.c: 369:                 return I2C1_DO_SEND_STOP();
  6207  010C86  EC16  F08E         	call	_I2C1_DO_SEND_STOP	;wreg free
  6208  010C8A  EF92  F086         	goto	l1549
  6209  010C8E                     l12192:
  6210  010C8E  C078  F010         	movff	_I2C1_Status+24,I2C1_CallbackReturnReset@funPtr
  6211  010C92  C079  F011         	movff	_I2C1_Status+25,I2C1_CallbackReturnReset@funPtr+1
  6212  010C96  EE20  F069         	lfsr	2,_I2C1_Status+9
  6213  010C9A  D802               	call	u14478
  6214  010C9C  EF5A  F086         	goto	u14479
  6215  010CA0                     u14478:
  6216  010CA0  0005               	push	
  6217  010CA2  6EFA               	movwf	pclath,c
  6218  010CA4  50DE               	movf	postinc2,w,c
  6219  010CA6  6EFD               	movwf	tosl,c
  6220  010CA8  50DE               	movf	postinc2,w,c
  6221  010CAA  6EFE               	movwf	tosh,c
  6222  010CAC  50DE               	movf	postinc2,w,c
  6223  010CAE  6EFF               	movwf	tosu,c
  6224  010CB0  50FA               	movf	pclath,w,c
  6225  010CB2  0012               	return		;indir
  6226  010CB4                     u14479:
  6227  010CB4  6E12               	movwf	??_I2C1_DO_TX^0,c
  6228  010CB6  6A13               	clrf	(??_I2C1_DO_TX+1)^0,c
  6229                           
  6230                           ; Switch on 2 bytes has been partitioned into a top level switch of size 1, and 1 sub-sw
      +                          itches
  6231                           ; Switch size 1, requested type "simple"
  6232                           ; Number of cases is 1, Range of values is 0 to 0
  6233                           ; switch strategies available:
  6234                           ; Name         Instructions Cycles
  6235                           ; simple_byte            4     3 (average)
  6236                           ;	Chosen strategy is simple_byte
  6237  010CB8  5013               	movf	(??_I2C1_DO_TX+1)^0,w,c
  6238  010CBA  0A00               	xorlw	0	; case 0
  6239  010CBC  B4D8               	btfsc	status,2,c
  6240  010CBE  EF63  F086         	goto	l13572
  6241  010CC2  EF43  F086         	goto	l12186
  6242  010CC6                     l13572:
  6243                           
  6244                           ; Switch size 1, requested type "simple"
  6245                           ; Number of cases is 4, Range of values is 1 to 4
  6246                           ; switch strategies available:
  6247                           ; Name         Instructions Cycles
  6248                           ; simple_byte           13     7 (average)
  6249                           ;	Chosen strategy is simple_byte
  6250  010CC6  5012               	movf	??_I2C1_DO_TX^0,w,c
  6251  010CC8  0A01               	xorlw	1	; case 1
  6252  010CCA  B4D8               	btfsc	status,2,c
  6253  010CCC  EF43  F086         	goto	l12186
  6254  010CD0  0A03               	xorlw	3	; case 2
  6255  010CD2  B4D8               	btfsc	status,2,c
  6256  010CD4  EF3B  F086         	goto	l12178
  6257  010CD8  0A01               	xorlw	1	; case 3
  6258  010CDA  B4D8               	btfsc	status,2,c
  6259  010CDC  EF3F  F086         	goto	l12182
  6260  010CE0  0A07               	xorlw	7	; case 4
  6261  010CE2  B4D8               	btfsc	status,2,c
  6262  010CE4  EF43  F086         	goto	l12186
  6263  010CE8  EF43  F086         	goto	l12186
  6264  010CEC                     l1546:
  6265                           
  6266                           ;mcc_generated_files/i2c1_master.c: 373:     {;mcc_generated_files/i2c1_master.c: 374:  
      +                                 I2C1_Status.addressNackCheck = 0;
  6267  010CEC  0100               	movlb	0	; () banked
  6268  010CEE  9189               	bcf	(_I2C1_Status+41)& (0+255),0,b
  6269  010CF0                     
  6270                           ; BSR set to: 0
  6271                           ;mcc_generated_files/i2c1_master.c: 375:         I2C1_MasterSendTxData(*I2C1_Status.data
      +                          _ptr++);
  6272  010CF0  C083  FFD9         	movff	_I2C1_Status+35,fsr2l
  6273  010CF4  C084  FFDA         	movff	_I2C1_Status+36,fsr2h
  6274  010CF8  4B83               	infsnz	(_I2C1_Status+35)& (0+255),f,b
  6275  010CFA  2B84               	incf	(_I2C1_Status+36)& (0+255),f,b
  6276  010CFC  50DF               	movf	indf2,w,c
  6277  010CFE  EC26  F08E         	call	_I2C1_MasterSendTxData
  6278  010D02                     
  6279                           ;mcc_generated_files/i2c1_master.c: 376:         return (--I2C1_Status.data_length)?I2C1
      +                          _TX:I2C1_TX_EMPTY;
  6280  010D02  0100               	movlb	0	; () banked
  6281  010D04  0785               	decf	(_I2C1_Status+37)& (0+255),f,b
  6282  010D06  A0D8               	btfss	status,0,c
  6283  010D08  0786               	decf	(_I2C1_Status+38)& (0+255),f,b
  6284  010D0A  5185               	movf	(_I2C1_Status+37)& (0+255),w,b
  6285  010D0C  1186               	iorwf	(_I2C1_Status+38)& (0+255),w,b
  6286  010D0E  A4D8               	btfss	status,2,c
  6287  010D10  EF8C  F086         	goto	u14481
  6288  010D14  EF8E  F086         	goto	u14480
  6289  010D18                     u14481:
  6290  010D18  EF91  F086         	goto	l12200
  6291  010D1C                     u14480:
  6292  010D1C                     
  6293                           ; BSR set to: 0
  6294  010D1C  0E06               	movlw	6
  6295  010D1E  EF92  F086         	goto	l1549
  6296  010D22                     l12200:
  6297                           
  6298                           ; BSR set to: 0
  6299  010D22  0E03               	movlw	3
  6300  010D24                     l1549:
  6301  010D24  0012               	return		;funcret
  6302  010D26                     __end_of_I2C1_DO_TX:
  6303                           	callstack 0
  6304                           
  6305 ;; *************** function _I2C1_DO_SEND_ADR_WRITE *****************
  6306 ;; Defined at:
  6307 ;;		line 349 in file "mcc_generated_files/i2c1_master.c"
  6308 ;; Parameters:    Size  Location     Type
  6309 ;;		None
  6310 ;; Auto vars:     Size  Location     Type
  6311 ;;		None
  6312 ;; Return value:  Size  Location     Type
  6313 ;;                  1    wreg      enum E9968
  6314 ;; Registers used:
  6315 ;;		wreg, status,2, status,0, cstack
  6316 ;; Tracked objects:
  6317 ;;		On entry : 0/0
  6318 ;;		On exit  : 0/0
  6319 ;;		Unchanged: 0/0
  6320 ;; Data sizes:     COMRAM   BANK0   BANK1   BANK2   BANK3   BANK4   BANK5   BANK6   BANK7   BANK8   BANK9  BANK10  BANK1
      +1  BANK12  BANK13  BANK14
  6321 ;;      Params:         0       0       0       0       0       0       0       0       0       0       0       0       
      +0       0       0       0
  6322 ;;      Locals:         0       0       0       0       0       0       0       0       0       0       0       0       
      +0       0       0       0
  6323 ;;      Temps:          0       0       0       0       0       0       0       0       0       0       0       0       
      +0       0       0       0
  6324 ;;      Totals:         0       0       0       0       0       0       0       0       0       0       0       0       
      +0       0       0       0
  6325 ;;Total ram usage:        0 bytes
  6326 ;; Hardware stack levels used: 1
  6327 ;; Hardware stack levels required when called: 5
  6328 ;; This function calls:
  6329 ;;		_I2C1_MasterSendTxData
  6330 ;; This function is called by:
  6331 ;;		_I2C1_MasterFsm
  6332 ;; This function uses a non-reentrant model
  6333 ;;
  6334                           
  6335                           	psect	text44
  6336  011BA2                     __ptext44:
  6337                           	callstack 0
  6338  011BA2                     _I2C1_DO_SEND_ADR_WRITE:
  6339                           	callstack 16
  6340  011BA2                     
  6341                           ;mcc_generated_files/i2c1_master.c: 351:     I2C1_Status.addressNackCheck = 1;
  6342  011BA2  0100               	movlb	0	; () banked
  6343  011BA4  8189               	bsf	(_I2C1_Status+41)& (0+255),0,b
  6344  011BA6                     
  6345                           ; BSR set to: 0
  6346                           ;mcc_generated_files/i2c1_master.c: 352:     I2C1_MasterSendTxData((uint8_t) (I2C1_Statu
      +                          s.address << 1));
  6347  011BA6  5182               	movf	(_I2C1_Status+34)& (0+255),w,b
  6348  011BA8  2582               	addwf	(_I2C1_Status+34)& (0+255),w,b
  6349  011BAA  EC26  F08E         	call	_I2C1_MasterSendTxData
  6350  011BAE                     
  6351                           ;mcc_generated_files/i2c1_master.c: 353:     return I2C1_TX;
  6352  011BAE  0E03               	movlw	3
  6353  011BB0  0012               	return		;funcret
  6354  011BB2                     __end_of_I2C1_DO_SEND_ADR_WRITE:
  6355                           	callstack 0
  6356                           
  6357 ;; *************** function _I2C1_DO_SEND_ADR_READ *****************
  6358 ;; Defined at:
  6359 ;;		line 342 in file "mcc_generated_files/i2c1_master.c"
  6360 ;; Parameters:    Size  Location     Type
  6361 ;;		None
  6362 ;; Auto vars:     Size  Location     Type
  6363 ;;		None
  6364 ;; Return value:  Size  Location     Type
  6365 ;;                  1    wreg      enum E9968
  6366 ;; Registers used:
  6367 ;;		wreg, status,0, cstack
  6368 ;; Tracked objects:
  6369 ;;		On entry : 0/0
  6370 ;;		On exit  : 0/0
  6371 ;;		Unchanged: 0/0
  6372 ;; Data sizes:     COMRAM   BANK0   BANK1   BANK2   BANK3   BANK4   BANK5   BANK6   BANK7   BANK8   BANK9  BANK10  BANK1
      +1  BANK12  BANK13  BANK14
  6373 ;;      Params:         0       0       0       0       0       0       0       0       0       0       0       0       
      +0       0       0       0
  6374 ;;      Locals:         0       0       0       0       0       0       0       0       0       0       0       0       
      +0       0       0       0
  6375 ;;      Temps:          0       0       0       0       0       0       0       0       0       0       0       0       
      +0       0       0       0
  6376 ;;      Totals:         0       0       0       0       0       0       0       0       0       0       0       0       
      +0       0       0       0
  6377 ;;Total ram usage:        0 bytes
  6378 ;; Hardware stack levels used: 1
  6379 ;; Hardware stack levels required when called: 5
  6380 ;; This function calls:
  6381 ;;		_I2C1_MasterSendTxData
  6382 ;; This function is called by:
  6383 ;;		_I2C1_MasterFsm
  6384 ;; This function uses a non-reentrant model
  6385 ;;
  6386                           
  6387                           	psect	text45
  6388  011BB2                     __ptext45:
  6389                           	callstack 0
  6390  011BB2                     _I2C1_DO_SEND_ADR_READ:
  6391                           	callstack 16
  6392  011BB2                     
  6393                           ;mcc_generated_files/i2c1_master.c: 344:     I2C1_Status.addressNackCheck = 1;
  6394  011BB2  0100               	movlb	0	; () banked
  6395  011BB4  8189               	bsf	(_I2C1_Status+41)& (0+255),0,b
  6396  011BB6                     
  6397                           ; BSR set to: 0
  6398                           ;mcc_generated_files/i2c1_master.c: 345:     I2C1_MasterSendTxData((uint8_t) (I2C1_Statu
      +                          s.address << 1 | 1));
  6399  011BB6  80D8               	bsf	status,0,c
  6400  011BB8  3582               	rlcf	(_I2C1_Status+34)& (0+255),w,b
  6401  011BBA  EC26  F08E         	call	_I2C1_MasterSendTxData
  6402  011BBE                     
  6403                           ;mcc_generated_files/i2c1_master.c: 346:     return I2C1_RCEN;
  6404  011BBE  0E05               	movlw	5
  6405  011BC0  0012               	return		;funcret
  6406  011BC2                     __end_of_I2C1_DO_SEND_ADR_READ:
  6407                           	callstack 0
  6408                           
  6409 ;; *************** function _I2C1_DO_IDLE *****************
  6410 ;; Defined at:
  6411 ;;		line 335 in file "mcc_generated_files/i2c1_master.c"
  6412 ;; Parameters:    Size  Location     Type
  6413 ;;		None
  6414 ;; Auto vars:     Size  Location     Type
  6415 ;;		None
  6416 ;; Return value:  Size  Location     Type
  6417 ;;                  1    wreg      enum E9968
  6418 ;; Registers used:
  6419 ;;		wreg, status,2
  6420 ;; Tracked objects:
  6421 ;;		On entry : 0/0
  6422 ;;		On exit  : 0/0
  6423 ;;		Unchanged: 0/0
  6424 ;; Data sizes:     COMRAM   BANK0   BANK1   BANK2   BANK3   BANK4   BANK5   BANK6   BANK7   BANK8   BANK9  BANK10  BANK1
      +1  BANK12  BANK13  BANK14
  6425 ;;      Params:         0       0       0       0       0       0       0       0       0       0       0       0       
      +0       0       0       0
  6426 ;;      Locals:         0       0       0       0       0       0       0       0       0       0       0       0       
      +0       0       0       0
  6427 ;;      Temps:          0       0       0       0       0       0       0       0       0       0       0       0       
      +0       0       0       0
  6428 ;;      Totals:         0       0       0       0       0       0       0       0       0       0       0       0       
      +0       0       0       0
  6429 ;;Total ram usage:        0 bytes
  6430 ;; Hardware stack levels used: 1
  6431 ;; Hardware stack levels required when called: 4
  6432 ;; This function calls:
  6433 ;;		Nothing
  6434 ;; This function is called by:
  6435 ;;		_I2C1_MasterFsm
  6436 ;; This function uses a non-reentrant model
  6437 ;;
  6438                           
  6439                           	psect	text46
  6440  011BF6                     __ptext46:
  6441                           	callstack 0
  6442  011BF6                     _I2C1_DO_IDLE:
  6443                           	callstack 17
  6444  011BF6                     
  6445                           ;mcc_generated_files/i2c1_master.c: 337:     I2C1_Status.busy = 0;
  6446  011BF6  0100               	movlb	0	; () banked
  6447  011BF8  9389               	bcf	(_I2C1_Status+41)& (0+255),1,b
  6448  011BFA                     
  6449                           ; BSR set to: 0
  6450                           ;mcc_generated_files/i2c1_master.c: 338:     I2C1_Status.error = I2C1_NOERR;
  6451  011BFA  0E00               	movlw	0
  6452  011BFC  6F88               	movwf	(_I2C1_Status+40)& (0+255),b
  6453  011BFE                     
  6454                           ; BSR set to: 0
  6455                           ;mcc_generated_files/i2c1_master.c: 339:     return I2C1_RESET;
  6456  011BFE  0E0E               	movlw	14
  6457  011C00                     
  6458                           ; BSR set to: 0
  6459  011C00  0012               	return		;funcret
  6460  011C02                     __end_of_I2C1_DO_IDLE:
  6461                           	callstack 0
  6462                           
  6463 ;; *************** function _I2C1_DO_TX_EMPTY *****************
  6464 ;; Defined at:
  6465 ;;		line 411 in file "mcc_generated_files/i2c1_master.c"
  6466 ;; Parameters:    Size  Location     Type
  6467 ;;		None
  6468 ;; Auto vars:     Size  Location     Type
  6469 ;;		None
  6470 ;; Return value:  Size  Location     Type
  6471 ;;                  1    wreg      enum E9968
  6472 ;; Registers used:
  6473 ;;		wreg, fsr2l, fsr2h, status,2, status,0, pcl, pclath, pclatu, tosl, prodl, prodh, cstack
  6474 ;; Tracked objects:
  6475 ;;		On entry : 0/0
  6476 ;;		On exit  : 0/0
  6477 ;;		Unchanged: 0/0
  6478 ;; Data sizes:     COMRAM   BANK0   BANK1   BANK2   BANK3   BANK4   BANK5   BANK6   BANK7   BANK8   BANK9  BANK10  BANK1
      +1  BANK12  BANK13  BANK14
  6479 ;;      Params:         0       0       0       0       0       0       0       0       0       0       0       0       
      +0       0       0       0
  6480 ;;      Locals:         0       0       0       0       0       0       0       0       0       0       0       0       
      +0       0       0       0
  6481 ;;      Temps:          2       0       0       0       0       0       0       0       0       0       0       0       
      +0       0       0       0
  6482 ;;      Totals:         2       0       0       0       0       0       0       0       0       0       0       0       
      +0       0       0       0
  6483 ;;Total ram usage:        2 bytes
  6484 ;; Hardware stack levels used: 1
  6485 ;; Hardware stack levels required when called: 7
  6486 ;; This function calls:
  6487 ;;		Absolute function
  6488 ;;		_I2C1_CallbackReturnReset
  6489 ;;		_I2C1_CallbackReturnStop
  6490 ;;		_I2C1_DO_SEND_RESTART
  6491 ;;		_I2C1_DO_SEND_STOP
  6492 ;;		_I2C1_MasterSetIrq
  6493 ;;		_rd1RegCompleteHandler
  6494 ;;		_rd2RegCompleteHandler
  6495 ;;		_rdBlkRegCompleteHandler
  6496 ;;		_wr1RegCompleteHandler
  6497 ;;		_wr2RegCompleteHandler
  6498 ;; This function is called by:
  6499 ;;		_I2C1_MasterFsm
  6500 ;; This function uses a non-reentrant model
  6501 ;;
  6502                           
  6503                           	psect	text47
  6504  011408                     __ptext47:
  6505                           	callstack 0
  6506  011408                     _I2C1_DO_TX_EMPTY:
  6507                           	callstack 14
  6508  011408                     
  6509                           ;mcc_generated_files/i2c1_master.c: 413:     I2C1_Status.bufferFree = 1;
  6510  011408  0100               	movlb	0	; () banked
  6511  01140A  8789               	bsf	(_I2C1_Status+41)& (0+255),3,b
  6512                           
  6513                           ;mcc_generated_files/i2c1_master.c: 414:     switch(I2C1_Status.callbackTable[I2C1_DATA_
      +                          COMPLETE](I2C1_Status.callbackPayload[I2C1_DATA_COMPLETE]))
  6514  01140C  EF15  F08A         	goto	l12264
  6515  011410                     l12248:
  6516                           
  6517                           ;mcc_generated_files/i2c1_master.c: 418:             return I2C1_DO_SEND_RESTART();
  6518  011410  EC1A  F08E         	call	_I2C1_DO_SEND_RESTART	;wreg free
  6519  011414  EF42  F08A         	goto	l1580
  6520  011418                     l12252:
  6521                           
  6522                           ;mcc_generated_files/i2c1_master.c: 420:             I2C1_MasterSetIrq();
  6523  011418  EC2A  F08E         	call	_I2C1_MasterSetIrq	;wreg free
  6524  01141C                     
  6525                           ;mcc_generated_files/i2c1_master.c: 421:             return I2C1_TX;
  6526  01141C  0E03               	movlw	3
  6527  01141E  EF42  F08A         	goto	l1580
  6528  011422                     l12258:
  6529                           
  6530                           ;mcc_generated_files/i2c1_master.c: 424:             return I2C1_DO_SEND_STOP();
  6531  011422  EC16  F08E         	call	_I2C1_DO_SEND_STOP	;wreg free
  6532  011426  EF42  F08A         	goto	l1580
  6533  01142A                     l12264:
  6534                           
  6535                           ; BSR set to: 0
  6536  01142A  C072  F010         	movff	_I2C1_Status+18,I2C1_CallbackReturnReset@funPtr
  6537  01142E  C073  F011         	movff	_I2C1_Status+19,I2C1_CallbackReturnReset@funPtr+1
  6538  011432  D802               	call	u14518
  6539  011434  EF26  F08A         	goto	u14519
  6540  011438                     u14518:
  6541  011438  0005               	push	
  6542  01143A  6EFA               	movwf	pclath,c
  6543  01143C  5160               	movf	_I2C1_Status& (0+255),w,b
  6544  01143E  6EFD               	movwf	tosl,c
  6545  011440  5161               	movf	(_I2C1_Status+1)& (0+255),w,b
  6546  011442  6EFE               	movwf	tosh,c
  6547  011444  5162               	movf	(_I2C1_Status+2)& (0+255),w,b
  6548  011446  6EFF               	movwf	tosu,c
  6549  011448  50FA               	movf	pclath,w,c
  6550  01144A  0012               	return		;indir
  6551  01144C                     u14519:
  6552  01144C  6E12               	movwf	??_I2C1_DO_TX_EMPTY^0,c
  6553  01144E  6A13               	clrf	(??_I2C1_DO_TX_EMPTY+1)^0,c
  6554                           
  6555                           ; Switch on 2 bytes has been partitioned into a top level switch of size 1, and 1 sub-sw
      +                          itches
  6556                           ; Switch size 1, requested type "simple"
  6557                           ; Number of cases is 1, Range of values is 0 to 0
  6558                           ; switch strategies available:
  6559                           ; Name         Instructions Cycles
  6560                           ; simple_byte            4     3 (average)
  6561                           ;	Chosen strategy is simple_byte
  6562  011450  5013               	movf	(??_I2C1_DO_TX_EMPTY+1)^0,w,c
  6563  011452  0A00               	xorlw	0	; case 0
  6564  011454  B4D8               	btfsc	status,2,c
  6565  011456  EF2F  F08A         	goto	l13574
  6566  01145A  EF11  F08A         	goto	l12258
  6567  01145E                     l13574:
  6568                           
  6569                           ; Switch size 1, requested type "simple"
  6570                           ; Number of cases is 4, Range of values is 1 to 4
  6571                           ; switch strategies available:
  6572                           ; Name         Instructions Cycles
  6573                           ; simple_byte           13     7 (average)
  6574                           ;	Chosen strategy is simple_byte
  6575  01145E  5012               	movf	??_I2C1_DO_TX_EMPTY^0,w,c
  6576  011460  0A01               	xorlw	1	; case 1
  6577  011462  B4D8               	btfsc	status,2,c
  6578  011464  EF11  F08A         	goto	l12258
  6579  011468  0A03               	xorlw	3	; case 2
  6580  01146A  B4D8               	btfsc	status,2,c
  6581  01146C  EF08  F08A         	goto	l12248
  6582  011470  0A01               	xorlw	1	; case 3
  6583  011472  B4D8               	btfsc	status,2,c
  6584  011474  EF08  F08A         	goto	l12248
  6585  011478  0A07               	xorlw	7	; case 4
  6586  01147A  B4D8               	btfsc	status,2,c
  6587  01147C  EF0C  F08A         	goto	l12252
  6588  011480  EF11  F08A         	goto	l12258
  6589  011484                     l1580:
  6590  011484  0012               	return		;funcret
  6591  011486                     __end_of_I2C1_DO_TX_EMPTY:
  6592                           	callstack 0
  6593                           
  6594 ;; *************** function _I2C1_MasterSetIrq *****************
  6595 ;; Defined at:
  6596 ;;		line 647 in file "mcc_generated_files/i2c1_master.c"
  6597 ;; Parameters:    Size  Location     Type
  6598 ;;		None
  6599 ;; Auto vars:     Size  Location     Type
  6600 ;;		None
  6601 ;; Return value:  Size  Location     Type
  6602 ;;                  1    wreg      void 
  6603 ;; Registers used:
  6604 ;;		None
  6605 ;; Tracked objects:
  6606 ;;		On entry : 0/0
  6607 ;;		On exit  : 0/0
  6608 ;;		Unchanged: 0/0
  6609 ;; Data sizes:     COMRAM   BANK0   BANK1   BANK2   BANK3   BANK4   BANK5   BANK6   BANK7   BANK8   BANK9  BANK10  BANK1
      +1  BANK12  BANK13  BANK14
  6610 ;;      Params:         0       0       0       0       0       0       0       0       0       0       0       0       
      +0       0       0       0
  6611 ;;      Locals:         0       0       0       0       0       0       0       0       0       0       0       0       
      +0       0       0       0
  6612 ;;      Temps:          0       0       0       0       0       0       0       0       0       0       0       0       
      +0       0       0       0
  6613 ;;      Totals:         0       0       0       0       0       0       0       0       0       0       0       0       
      +0       0       0       0
  6614 ;;Total ram usage:        0 bytes
  6615 ;; Hardware stack levels used: 1
  6616 ;; Hardware stack levels required when called: 4
  6617 ;; This function calls:
  6618 ;;		Nothing
  6619 ;; This function is called by:
  6620 ;;		_I2C1_DO_TX_EMPTY
  6621 ;; This function uses a non-reentrant model
  6622 ;;
  6623                           
  6624                           	psect	text48
  6625  011C54                     __ptext48:
  6626                           	callstack 0
  6627  011C54                     _I2C1_MasterSetIrq:
  6628                           	callstack 16
  6629  011C54                     
  6630                           ;mcc_generated_files/i2c1_master.c: 649:     PIR3bits.SSP1IF = 1;
  6631  011C54  010E               	movlb	14	; () banked
  6632  011C56  81CD               	bsf	205,0,b	;volatile
  6633  011C58                     
  6634                           ; BSR set to: 14
  6635  011C58  0012               	return		;funcret
  6636  011C5A                     __end_of_I2C1_MasterSetIrq:
  6637                           	callstack 0
  6638                           
  6639 ;; *************** function _I2C1_MasterIsNack *****************
  6640 ;; Defined at:
  6641 ;;		line 600 in file "mcc_generated_files/i2c1_master.c"
  6642 ;; Parameters:    Size  Location     Type
  6643 ;;		None
  6644 ;; Auto vars:     Size  Location     Type
  6645 ;;		None
  6646 ;; Return value:  Size  Location     Type
  6647 ;;                  1    wreg      _Bool 
  6648 ;; Registers used:
  6649 ;;		wreg
  6650 ;; Tracked objects:
  6651 ;;		On entry : 0/0
  6652 ;;		On exit  : 0/0
  6653 ;;		Unchanged: 0/0
  6654 ;; Data sizes:     COMRAM   BANK0   BANK1   BANK2   BANK3   BANK4   BANK5   BANK6   BANK7   BANK8   BANK9  BANK10  BANK1
      +1  BANK12  BANK13  BANK14
  6655 ;;      Params:         0       0       0       0       0       0       0       0       0       0       0       0       
      +0       0       0       0
  6656 ;;      Locals:         0       0       0       0       0       0       0       0       0       0       0       0       
      +0       0       0       0
  6657 ;;      Temps:          0       0       0       0       0       0       0       0       0       0       0       0       
      +0       0       0       0
  6658 ;;      Totals:         0       0       0       0       0       0       0       0       0       0       0       0       
      +0       0       0       0
  6659 ;;Total ram usage:        0 bytes
  6660 ;; Hardware stack levels used: 1
  6661 ;; Hardware stack levels required when called: 4
  6662 ;; This function calls:
  6663 ;;		Nothing
  6664 ;; This function is called by:
  6665 ;;		_I2C1_MasterFsm
  6666 ;;		_I2C1_DO_TX
  6667 ;; This function uses a non-reentrant model
  6668 ;;
  6669                           
  6670                           	psect	text49
  6671  011B7C                     __ptext49:
  6672                           	callstack 0
  6673  011B7C                     _I2C1_MasterIsNack:
  6674                           	callstack 17
  6675  011B7C                     
  6676                           ;mcc_generated_files/i2c1_master.c: 602:     return SSP1CON2bits.ACKSTAT;
  6677  011B7C  BC97               	btfsc	151,6,c	;volatile
  6678  011B7E  EFC3  F08D         	goto	u14451
  6679  011B82  EFC6  F08D         	goto	u14450
  6680  011B86                     u14451:
  6681  011B86  0E01               	movlw	1
  6682  011B88  EFC7  F08D         	goto	u14456
  6683  011B8C                     u14450:
  6684  011B8C  0E00               	movlw	0
  6685  011B8E                     u14456:
  6686  011B8E  0012               	return		;funcret
  6687  011B90                     __end_of_I2C1_MasterIsNack:
  6688                           	callstack 0
  6689                           
  6690 ;; *************** function _I2C1_MasterSendTxData *****************
  6691 ;; Defined at:
  6692 ;;		line 570 in file "mcc_generated_files/i2c1_master.c"
  6693 ;; Parameters:    Size  Location     Type
  6694 ;;  data            1    wreg     unsigned char 
  6695 ;; Auto vars:     Size  Location     Type
  6696 ;;  data            1    4[COMRAM] unsigned char 
  6697 ;; Return value:  Size  Location     Type
  6698 ;;                  1    wreg      void 
  6699 ;; Registers used:
  6700 ;;		wreg
  6701 ;; Tracked objects:
  6702 ;;		On entry : 0/0
  6703 ;;		On exit  : 0/0
  6704 ;;		Unchanged: 0/0
  6705 ;; Data sizes:     COMRAM   BANK0   BANK1   BANK2   BANK3   BANK4   BANK5   BANK6   BANK7   BANK8   BANK9  BANK10  BANK1
      +1  BANK12  BANK13  BANK14
  6706 ;;      Params:         0       0       0       0       0       0       0       0       0       0       0       0       
      +0       0       0       0
  6707 ;;      Locals:         1       0       0       0       0       0       0       0       0       0       0       0       
      +0       0       0       0
  6708 ;;      Temps:          0       0       0       0       0       0       0       0       0       0       0       0       
      +0       0       0       0
  6709 ;;      Totals:         1       0       0       0       0       0       0       0       0       0       0       0       
      +0       0       0       0
  6710 ;;Total ram usage:        1 bytes
  6711 ;; Hardware stack levels used: 1
  6712 ;; Hardware stack levels required when called: 4
  6713 ;; This function calls:
  6714 ;;		Nothing
  6715 ;; This function is called by:
  6716 ;;		_I2C1_DO_SEND_ADR_READ
  6717 ;;		_I2C1_DO_SEND_ADR_WRITE
  6718 ;;		_I2C1_DO_TX
  6719 ;; This function uses a non-reentrant model
  6720 ;;
  6721                           
  6722                           	psect	text50
  6723  011C4C                     __ptext50:
  6724                           	callstack 0
  6725  011C4C                     _I2C1_MasterSendTxData:
  6726                           	callstack 16
  6727                           
  6728                           ;incstack = 0
  6729                           ;I2C1_MasterSendTxData@data stored from wreg
  6730  011C4C  6E05               	movwf	I2C1_MasterSendTxData@data^0,c
  6731  011C4E                     
  6732                           ;mcc_generated_files/i2c1_master.c: 570: static __attribute__((inline)) void I2C1_Master
      +                          SendTxData(uint8_t data);mcc_generated_files/i2c1_master.c: 571: {;mcc_generated_files/i
      +                          2c1_master.c: 572:     SSP1BUF = data;
  6733  011C4E  C005  FF92         	movff	I2C1_MasterSendTxData@data,3986	;volatile
  6734  011C52  0012               	return		;funcret
  6735  011C54                     __end_of_I2C1_MasterSendTxData:
  6736                           	callstack 0
  6737                           
  6738 ;; *************** function _I2C1_MasterSendAck *****************
  6739 ;; Defined at:
  6740 ;;		line 605 in file "mcc_generated_files/i2c1_master.c"
  6741 ;; Parameters:    Size  Location     Type
  6742 ;;		None
  6743 ;; Auto vars:     Size  Location     Type
  6744 ;;		None
  6745 ;; Return value:  Size  Location     Type
  6746 ;;                  1    wreg      void 
  6747 ;; Registers used:
  6748 ;;		None
  6749 ;; Tracked objects:
  6750 ;;		On entry : 0/0
  6751 ;;		On exit  : 0/0
  6752 ;;		Unchanged: 0/0
  6753 ;; Data sizes:     COMRAM   BANK0   BANK1   BANK2   BANK3   BANK4   BANK5   BANK6   BANK7   BANK8   BANK9  BANK10  BANK1
      +1  BANK12  BANK13  BANK14
  6754 ;;      Params:         0       0       0       0       0       0       0       0       0       0       0       0       
      +0       0       0       0
  6755 ;;      Locals:         0       0       0       0       0       0       0       0       0       0       0       0       
      +0       0       0       0
  6756 ;;      Temps:          0       0       0       0       0       0       0       0       0       0       0       0       
      +0       0       0       0
  6757 ;;      Totals:         0       0       0       0       0       0       0       0       0       0       0       0       
      +0       0       0       0
  6758 ;;Total ram usage:        0 bytes
  6759 ;; Hardware stack levels used: 1
  6760 ;; Hardware stack levels required when called: 4
  6761 ;; This function calls:
  6762 ;;		Nothing
  6763 ;; This function is called by:
  6764 ;;		_I2C1_DO_RX
  6765 ;;		_I2C1_DO_RX_ACK
  6766 ;; This function uses a non-reentrant model
  6767 ;;
  6768                           
  6769                           	psect	text51
  6770  011C5A                     __ptext51:
  6771                           	callstack 0
  6772  011C5A                     _I2C1_MasterSendAck:
  6773                           	callstack 16
  6774  011C5A                     
  6775                           ;mcc_generated_files/i2c1_master.c: 607:     SSP1CON2bits.ACKDT = 0;
  6776  011C5A  9A97               	bcf	151,5,c	;volatile
  6777                           
  6778                           ;mcc_generated_files/i2c1_master.c: 608:     SSP1CON2bits.ACKEN = 1;
  6779  011C5C  8897               	bsf	151,4,c	;volatile
  6780  011C5E  0012               	return		;funcret
  6781  011C60                     __end_of_I2C1_MasterSendAck:
  6782                           	callstack 0
  6783                           
  6784 ;; *************** function _I2C1_MasterGetRxData *****************
  6785 ;; Defined at:
  6786 ;;		line 565 in file "mcc_generated_files/i2c1_master.c"
  6787 ;; Parameters:    Size  Location     Type
  6788 ;;		None
  6789 ;; Auto vars:     Size  Location     Type
  6790 ;;		None
  6791 ;; Return value:  Size  Location     Type
  6792 ;;                  1    wreg      unsigned char 
  6793 ;; Registers used:
  6794 ;;		wreg, status,2
  6795 ;; Tracked objects:
  6796 ;;		On entry : 0/0
  6797 ;;		On exit  : 0/0
  6798 ;;		Unchanged: 0/0
  6799 ;; Data sizes:     COMRAM   BANK0   BANK1   BANK2   BANK3   BANK4   BANK5   BANK6   BANK7   BANK8   BANK9  BANK10  BANK1
      +1  BANK12  BANK13  BANK14
  6800 ;;      Params:         0       0       0       0       0       0       0       0       0       0       0       0       
      +0       0       0       0
  6801 ;;      Locals:         0       0       0       0       0       0       0       0       0       0       0       0       
      +0       0       0       0
  6802 ;;      Temps:          0       0       0       0       0       0       0       0       0       0       0       0       
      +0       0       0       0
  6803 ;;      Totals:         0       0       0       0       0       0       0       0       0       0       0       0       
      +0       0       0       0
  6804 ;;Total ram usage:        0 bytes
  6805 ;; Hardware stack levels used: 1
  6806 ;; Hardware stack levels required when called: 4
  6807 ;; This function calls:
  6808 ;;		Nothing
  6809 ;; This function is called by:
  6810 ;;		_I2C1_DO_RX
  6811 ;; This function uses a non-reentrant model
  6812 ;;
  6813                           
  6814                           	psect	text52
  6815  011C72                     __ptext52:
  6816                           	callstack 0
  6817  011C72                     _I2C1_MasterGetRxData:
  6818                           	callstack 16
  6819  011C72                     
  6820                           ;mcc_generated_files/i2c1_master.c: 567:     return SSP1BUF;
  6821  011C72  5092               	movf	146,w,c	;volatile
  6822  011C74  0012               	return		;funcret
  6823  011C76                     __end_of_I2C1_MasterGetRxData:
  6824                           	callstack 0
  6825                           
  6826 ;; *************** function _I2C1_MasterSendNack *****************
  6827 ;; Defined at:
  6828 ;;		line 611 in file "mcc_generated_files/i2c1_master.c"
  6829 ;; Parameters:    Size  Location     Type
  6830 ;;		None
  6831 ;; Auto vars:     Size  Location     Type
  6832 ;;		None
  6833 ;; Return value:  Size  Location     Type
  6834 ;;                  1    wreg      void 
  6835 ;; Registers used:
  6836 ;;		None
  6837 ;; Tracked objects:
  6838 ;;		On entry : 0/0
  6839 ;;		On exit  : 0/0
  6840 ;;		Unchanged: 0/0
  6841 ;; Data sizes:     COMRAM   BANK0   BANK1   BANK2   BANK3   BANK4   BANK5   BANK6   BANK7   BANK8   BANK9  BANK10  BANK1
      +1  BANK12  BANK13  BANK14
  6842 ;;      Params:         0       0       0       0       0       0       0       0       0       0       0       0       
      +0       0       0       0
  6843 ;;      Locals:         0       0       0       0       0       0       0       0       0       0       0       0       
      +0       0       0       0
  6844 ;;      Temps:          0       0       0       0       0       0       0       0       0       0       0       0       
      +0       0       0       0
  6845 ;;      Totals:         0       0       0       0       0       0       0       0       0       0       0       0       
      +0       0       0       0
  6846 ;;Total ram usage:        0 bytes
  6847 ;; Hardware stack levels used: 1
  6848 ;; Hardware stack levels required when called: 4
  6849 ;; This function calls:
  6850 ;;		Nothing
  6851 ;; This function is called by:
  6852 ;;		_I2C1_DO_RX_NACK_STOP
  6853 ;;		_I2C1_DO_RX_NACK_RESTART
  6854 ;; This function uses a non-reentrant model
  6855 ;;
  6856                           
  6857                           	psect	text53
  6858  011C60                     __ptext53:
  6859                           	callstack 0
  6860  011C60                     _I2C1_MasterSendNack:
  6861                           	callstack 16
  6862  011C60                     
  6863                           ;mcc_generated_files/i2c1_master.c: 613:     SSP1CON2bits.ACKDT = 1;
  6864  011C60  8A97               	bsf	151,5,c	;volatile
  6865                           
  6866                           ;mcc_generated_files/i2c1_master.c: 614:     SSP1CON2bits.ACKEN = 1;
  6867  011C62  8897               	bsf	151,4,c	;volatile
  6868  011C64  0012               	return		;funcret
  6869  011C66                     __end_of_I2C1_MasterSendNack:
  6870                           	callstack 0
  6871                           
  6872 ;; *************** function _I2C1_MasterStartRx *****************
  6873 ;; Defined at:
  6874 ;;		line 585 in file "mcc_generated_files/i2c1_master.c"
  6875 ;; Parameters:    Size  Location     Type
  6876 ;;		None
  6877 ;; Auto vars:     Size  Location     Type
  6878 ;;		None
  6879 ;; Return value:  Size  Location     Type
  6880 ;;                  1    wreg      void 
  6881 ;; Registers used:
  6882 ;;		None
  6883 ;; Tracked objects:
  6884 ;;		On entry : 0/0
  6885 ;;		On exit  : 0/0
  6886 ;;		Unchanged: 0/0
  6887 ;; Data sizes:     COMRAM   BANK0   BANK1   BANK2   BANK3   BANK4   BANK5   BANK6   BANK7   BANK8   BANK9  BANK10  BANK1
      +1  BANK12  BANK13  BANK14
  6888 ;;      Params:         0       0       0       0       0       0       0       0       0       0       0       0       
      +0       0       0       0
  6889 ;;      Locals:         0       0       0       0       0       0       0       0       0       0       0       0       
      +0       0       0       0
  6890 ;;      Temps:          0       0       0       0       0       0       0       0       0       0       0       0       
      +0       0       0       0
  6891 ;;      Totals:         0       0       0       0       0       0       0       0       0       0       0       0       
      +0       0       0       0
  6892 ;;Total ram usage:        0 bytes
  6893 ;; Hardware stack levels used: 1
  6894 ;; Hardware stack levels required when called: 4
  6895 ;; This function calls:
  6896 ;;		Nothing
  6897 ;; This function is called by:
  6898 ;;		_I2C1_DO_RCEN
  6899 ;; This function uses a non-reentrant model
  6900 ;;
  6901                           
  6902                           	psect	text54
  6903  011C76                     __ptext54:
  6904                           	callstack 0
  6905  011C76                     _I2C1_MasterStartRx:
  6906                           	callstack 16
  6907  011C76                     
  6908                           ;mcc_generated_files/i2c1_master.c: 587:     SSP1CON2bits.RCEN = 1;
  6909  011C76  8697               	bsf	151,3,c	;volatile
  6910  011C78  0012               	return		;funcret
  6911  011C7A                     __end_of_I2C1_MasterStartRx:
  6912                           	callstack 0
  6913                           
  6914 ;; *************** function _I2C1_CallbackReturnReset *****************
  6915 ;; Defined at:
  6916 ;;		line 527 in file "mcc_generated_files/i2c1_master.c"
  6917 ;; Parameters:    Size  Location     Type
  6918 ;;  funPtr          2   15[COMRAM] PTR void 
  6919 ;;		 -> I2C1_ReadDataBlock@bufferBlock(4), I2C1_Write2ByteRegister@data(2), I2C1_Write1ByteRegister@data(1), I2C1_Read2B
      +yteRegister@returnValue(2), 
  6920 ;;		 -> NULL(0), I2C1_Read1ByteRegister@returnValue(1), 
  6921 ;; Auto vars:     Size  Location     Type
  6922 ;;		None
  6923 ;; Return value:  Size  Location     Type
  6924 ;;                  1    wreg      enum E360
  6925 ;; Registers used:
  6926 ;;		wreg
  6927 ;; Tracked objects:
  6928 ;;		On entry : 0/0
  6929 ;;		On exit  : 0/0
  6930 ;;		Unchanged: 0/0
  6931 ;; Data sizes:     COMRAM   BANK0   BANK1   BANK2   BANK3   BANK4   BANK5   BANK6   BANK7   BANK8   BANK9  BANK10  BANK1
      +1  BANK12  BANK13  BANK14
  6932 ;;      Params:         2       0       0       0       0       0       0       0       0       0       0       0       
      +0       0       0       0
  6933 ;;      Locals:         0       0       0       0       0       0       0       0       0       0       0       0       
      +0       0       0       0
  6934 ;;      Temps:          0       0       0       0       0       0       0       0       0       0       0       0       
      +0       0       0       0
  6935 ;;      Totals:         2       0       0       0       0       0       0       0       0       0       0       0       
      +0       0       0       0
  6936 ;;Total ram usage:        2 bytes
  6937 ;; Hardware stack levels used: 1
  6938 ;; Hardware stack levels required when called: 4
  6939 ;; This function calls:
  6940 ;;		Nothing
  6941 ;; This function is called by:
  6942 ;;		_I2C1_Open
  6943 ;;		_I2C1_DO_TX
  6944 ;;		_I2C1_DO_RX
  6945 ;;		_I2C1_DO_TX_EMPTY
  6946 ;;		_I2C1_DO_ADDRESS_NACK
  6947 ;;		_I2C1_DO_RX_EMPTY
  6948 ;; This function uses a non-reentrant model
  6949 ;;
  6950                           
  6951                           	psect	text55
  6952  011C7A                     __ptext55:
  6953                           	callstack 0
  6954  011C7A                     _I2C1_CallbackReturnReset:
  6955                           	callstack 16
  6956  011C7A                     
  6957                           ;mcc_generated_files/i2c1_master.c: 527: i2c1_operations_t I2C1_CallbackReturnReset(void
      +                           *funPtr);mcc_generated_files/i2c1_master.c: 528: {;mcc_generated_files/i2c1_master.c: 5
      +                          29:     return I2C1_RESET_LINK;
  6958  011C7A  0E05               	movlw	5
  6959  011C7C  0012               	return		;funcret
  6960  011C7E                     __end_of_I2C1_CallbackReturnReset:
  6961                           	callstack 0
  6962                           
  6963 ;; *************** function _I2C1_CallbackReturnStop *****************
  6964 ;; Defined at:
  6965 ;;		line 522 in file "mcc_generated_files/i2c1_master.c"
  6966 ;; Parameters:    Size  Location     Type
  6967 ;;  funPtr          2   15[COMRAM] PTR void 
  6968 ;;		 -> I2C1_ReadDataBlock@bufferBlock(4), I2C1_Write2ByteRegister@data(2), I2C1_Write1ByteRegister@data(1), I2C1_Read2B
      +yteRegister@returnValue(2), 
  6969 ;;		 -> NULL(0), I2C1_Read1ByteRegister@returnValue(1), 
  6970 ;; Auto vars:     Size  Location     Type
  6971 ;;		None
  6972 ;; Return value:  Size  Location     Type
  6973 ;;                  1    wreg      enum E360
  6974 ;; Registers used:
  6975 ;;		wreg
  6976 ;; Tracked objects:
  6977 ;;		On entry : 0/0
  6978 ;;		On exit  : 0/0
  6979 ;;		Unchanged: 0/0
  6980 ;; Data sizes:     COMRAM   BANK0   BANK1   BANK2   BANK3   BANK4   BANK5   BANK6   BANK7   BANK8   BANK9  BANK10  BANK1
      +1  BANK12  BANK13  BANK14
  6981 ;;      Params:         2       0       0       0       0       0       0       0       0       0       0       0       
      +0       0       0       0
  6982 ;;      Locals:         0       0       0       0       0       0       0       0       0       0       0       0       
      +0       0       0       0
  6983 ;;      Temps:          0       0       0       0       0       0       0       0       0       0       0       0       
      +0       0       0       0
  6984 ;;      Totals:         2       0       0       0       0       0       0       0       0       0       0       0       
      +0       0       0       0
  6985 ;;Total ram usage:        2 bytes
  6986 ;; Hardware stack levels used: 1
  6987 ;; Hardware stack levels required when called: 4
  6988 ;; This function calls:
  6989 ;;		Nothing
  6990 ;; This function is called by:
  6991 ;;		_I2C1_Open
  6992 ;;		_I2C1_SetCallback
  6993 ;;		_I2C1_DO_TX
  6994 ;;		_I2C1_DO_RX
  6995 ;;		_I2C1_DO_TX_EMPTY
  6996 ;;		_I2C1_DO_ADDRESS_NACK
  6997 ;;		_I2C1_DO_RX_EMPTY
  6998 ;; This function uses a non-reentrant model
  6999 ;;
  7000                           
  7001                           	psect	text56
  7002  011C7E                     __ptext56:
  7003                           	callstack 0
  7004  011C7E                     _I2C1_CallbackReturnStop:
  7005                           	callstack 16
  7006  011C7E                     
  7007                           ;mcc_generated_files/i2c1_master.c: 522: i2c1_operations_t I2C1_CallbackReturnStop(void 
      +                          *funPtr);mcc_generated_files/i2c1_master.c: 523: {;mcc_generated_files/i2c1_master.c: 52
      +                          4:     return I2C1_STOP;
  7008  011C7E  0E01               	movlw	1
  7009  011C80  0012               	return		;funcret
  7010  011C82                     __end_of_I2C1_CallbackReturnStop:
  7011                           	callstack 0
  7012                           
  7013 ;; *************** function _rdBlkRegCompleteHandler *****************
  7014 ;; Defined at:
  7015 ;;		line 170 in file "mcc_generated_files/examples/i2c1_master_example.c"
  7016 ;; Parameters:    Size  Location     Type
  7017 ;;  ptr             2   15[COMRAM] PTR void 
  7018 ;;		 -> I2C1_ReadDataBlock@bufferBlock(4), I2C1_Write2ByteRegister@data(2), I2C1_Write1ByteRegister@data(1), I2C1_Read2B
      +yteRegister@returnValue(2), 
  7019 ;;		 -> NULL(0), I2C1_Read1ByteRegister@returnValue(1), 
  7020 ;; Auto vars:     Size  Location     Type
  7021 ;;		None
  7022 ;; Return value:  Size  Location     Type
  7023 ;;                  1    wreg      enum E360
  7024 ;; Registers used:
  7025 ;;		wreg, fsr2l, fsr2h, status,2, status,0, prodl, prodh, cstack
  7026 ;; Tracked objects:
  7027 ;;		On entry : 0/0
  7028 ;;		On exit  : 0/0
  7029 ;;		Unchanged: 0/0
  7030 ;; Data sizes:     COMRAM   BANK0   BANK1   BANK2   BANK3   BANK4   BANK5   BANK6   BANK7   BANK8   BANK9  BANK10  BANK1
      +1  BANK12  BANK13  BANK14
  7031 ;;      Params:         2       0       0       0       0       0       0       0       0       0       0       0       
      +0       0       0       0
  7032 ;;      Locals:         0       0       0       0       0       0       0       0       0       0       0       0       
      +0       0       0       0
  7033 ;;      Temps:          0       0       0       0       0       0       0       0       0       0       0       0       
      +0       0       0       0
  7034 ;;      Totals:         2       0       0       0       0       0       0       0       0       0       0       0       
      +0       0       0       0
  7035 ;;Total ram usage:        2 bytes
  7036 ;; Hardware stack levels used: 1
  7037 ;; Hardware stack levels required when called: 6
  7038 ;; This function calls:
  7039 ;;		_I2C1_SetBuffer
  7040 ;;		_I2C1_SetDataCompleteCallback
  7041 ;; This function is called by:
  7042 ;;		_I2C1_ReadDataBlock
  7043 ;;		_I2C1_DO_TX
  7044 ;;		_I2C1_DO_RX
  7045 ;;		_I2C1_DO_TX_EMPTY
  7046 ;;		_I2C1_DO_ADDRESS_NACK
  7047 ;;		_I2C1_DO_RX_EMPTY
  7048 ;; This function uses a non-reentrant model
  7049 ;;
  7050                           
  7051                           	psect	text57
  7052  011808                     __ptext57:
  7053                           	callstack 0
  7054  011808                     _rdBlkRegCompleteHandler:
  7055                           	callstack 14
  7056  011808                     
  7057                           ;mcc_generated_files/examples/i2c1_master_example.c: 170: static i2c1_operations_t rdBlk
      +                          RegCompleteHandler(void *ptr);mcc_generated_files/examples/i2c1_master_example.c: 171: {
      +                          ;mcc_generated_files/examples/i2c1_master_example.c: 172:     I2C1_SetBuffer(((i2c1_buff
      +                          er_t *)ptr)->data,((i2c1_buffer_t*)ptr)->len);
  7058  011808  EE20 F002          	lfsr	2,2
  7059  01180C  5010               	movf	rdBlkRegCompleteHandler@ptr^0,w,c
  7060  01180E  26D9               	addwf	fsr2l,f,c
  7061  011810  5011               	movf	(rdBlkRegCompleteHandler@ptr+1)^0,w,c
  7062  011812  22DA               	addwfc	fsr2h,f,c
  7063  011814  CFDE F005          	movff	postinc2,I2C1_SetBuffer@buffer
  7064  011818  CFDD F006          	movff	postdec2,I2C1_SetBuffer@buffer+1
  7065  01181C  C010  FFD9         	movff	rdBlkRegCompleteHandler@ptr,fsr2l
  7066  011820  C011  FFDA         	movff	rdBlkRegCompleteHandler@ptr+1,fsr2h
  7067  011824  CFDE F007          	movff	postinc2,I2C1_SetBuffer@bufferSize
  7068  011828  CFDD F008          	movff	postdec2,I2C1_SetBuffer@bufferSize+1
  7069  01182C  EC1E  F08D         	call	_I2C1_SetBuffer	;wreg free
  7070  011830                     
  7071                           ;mcc_generated_files/examples/i2c1_master_example.c: 173:     I2C1_SetDataCompleteCallba
      +                          ck(((void*)0),((void*)0));
  7072  011830  0E00               	movlw	0
  7073  011832  6E0B               	movwf	I2C1_SetDataCompleteCallback@cb^0,c
  7074  011834  0E00               	movlw	0
  7075  011836  6E0C               	movwf	(I2C1_SetDataCompleteCallback@cb+1)^0,c
  7076  011838  0E00               	movlw	0
  7077  01183A  6E0D               	movwf	(I2C1_SetDataCompleteCallback@cb+2)^0,c
  7078  01183C  0E00               	movlw	0
  7079  01183E  6E0E               	movwf	I2C1_SetDataCompleteCallback@ptr^0,c
  7080  011840  0E00               	movlw	0
  7081  011842  6E0F               	movwf	(I2C1_SetDataCompleteCallback@ptr+1)^0,c
  7082  011844  EC7F  F08D         	call	_I2C1_SetDataCompleteCallback	;wreg free
  7083  011848                     
  7084                           ;mcc_generated_files/examples/i2c1_master_example.c: 174:     return I2C1_RESTART_READ;
  7085  011848  0E02               	movlw	2
  7086  01184A  0012               	return		;funcret
  7087  01184C                     __end_of_rdBlkRegCompleteHandler:
  7088                           	callstack 0
  7089                           
  7090 ;; *************** function _wr1RegCompleteHandler *****************
  7091 ;; Defined at:
  7092 ;;		line 156 in file "mcc_generated_files/examples/i2c1_master_example.c"
  7093 ;; Parameters:    Size  Location     Type
  7094 ;;  ptr             2   15[COMRAM] PTR void 
  7095 ;;		 -> I2C1_ReadDataBlock@bufferBlock(4), I2C1_Write2ByteRegister@data(2), I2C1_Write1ByteRegister@data(1), I2C1_Read2B
      +yteRegister@returnValue(2), 
  7096 ;;		 -> NULL(0), I2C1_Read1ByteRegister@returnValue(1), 
  7097 ;; Auto vars:     Size  Location     Type
  7098 ;;		None
  7099 ;; Return value:  Size  Location     Type
  7100 ;;                  1    wreg      enum E360
  7101 ;; Registers used:
  7102 ;;		wreg, fsr2l, fsr2h, status,2, status,0, prodl, prodh, cstack
  7103 ;; Tracked objects:
  7104 ;;		On entry : 0/0
  7105 ;;		On exit  : 0/0
  7106 ;;		Unchanged: 0/0
  7107 ;; Data sizes:     COMRAM   BANK0   BANK1   BANK2   BANK3   BANK4   BANK5   BANK6   BANK7   BANK8   BANK9  BANK10  BANK1
      +1  BANK12  BANK13  BANK14
  7108 ;;      Params:         2       0       0       0       0       0       0       0       0       0       0       0       
      +0       0       0       0
  7109 ;;      Locals:         0       0       0       0       0       0       0       0       0       0       0       0       
      +0       0       0       0
  7110 ;;      Temps:          0       0       0       0       0       0       0       0       0       0       0       0       
      +0       0       0       0
  7111 ;;      Totals:         2       0       0       0       0       0       0       0       0       0       0       0       
      +0       0       0       0
  7112 ;;Total ram usage:        2 bytes
  7113 ;; Hardware stack levels used: 1
  7114 ;; Hardware stack levels required when called: 6
  7115 ;; This function calls:
  7116 ;;		_I2C1_SetBuffer
  7117 ;;		_I2C1_SetDataCompleteCallback
  7118 ;; This function is called by:
  7119 ;;		_I2C1_Write1ByteRegister
  7120 ;;		_I2C1_DO_TX
  7121 ;;		_I2C1_DO_RX
  7122 ;;		_I2C1_DO_TX_EMPTY
  7123 ;;		_I2C1_DO_ADDRESS_NACK
  7124 ;;		_I2C1_DO_RX_EMPTY
  7125 ;; This function uses a non-reentrant model
  7126 ;;
  7127                           
  7128                           	psect	text58
  7129  0118B4                     __ptext58:
  7130                           	callstack 0
  7131  0118B4                     _wr1RegCompleteHandler:
  7132                           	callstack 14
  7133  0118B4                     
  7134                           ;mcc_generated_files/examples/i2c1_master_example.c: 156: static i2c1_operations_t wr1Re
      +                          gCompleteHandler(void *ptr);mcc_generated_files/examples/i2c1_master_example.c: 157: {;m
      +                          cc_generated_files/examples/i2c1_master_example.c: 158:     I2C1_SetBuffer(ptr,1);
  7135  0118B4  C010  F005         	movff	wr1RegCompleteHandler@ptr,I2C1_SetBuffer@buffer
  7136  0118B8  C011  F006         	movff	wr1RegCompleteHandler@ptr+1,I2C1_SetBuffer@buffer+1
  7137  0118BC  0E00               	movlw	0
  7138  0118BE  6E08               	movwf	(I2C1_SetBuffer@bufferSize+1)^0,c
  7139  0118C0  0E01               	movlw	1
  7140  0118C2  6E07               	movwf	I2C1_SetBuffer@bufferSize^0,c
  7141  0118C4  EC1E  F08D         	call	_I2C1_SetBuffer	;wreg free
  7142  0118C8                     
  7143                           ;mcc_generated_files/examples/i2c1_master_example.c: 159:     I2C1_SetDataCompleteCallba
      +                          ck(((void*)0),((void*)0));
  7144  0118C8  0E00               	movlw	0
  7145  0118CA  6E0B               	movwf	I2C1_SetDataCompleteCallback@cb^0,c
  7146  0118CC  0E00               	movlw	0
  7147  0118CE  6E0C               	movwf	(I2C1_SetDataCompleteCallback@cb+1)^0,c
  7148  0118D0  0E00               	movlw	0
  7149  0118D2  6E0D               	movwf	(I2C1_SetDataCompleteCallback@cb+2)^0,c
  7150  0118D4  0E00               	movlw	0
  7151  0118D6  6E0E               	movwf	I2C1_SetDataCompleteCallback@ptr^0,c
  7152  0118D8  0E00               	movlw	0
  7153  0118DA  6E0F               	movwf	(I2C1_SetDataCompleteCallback@ptr+1)^0,c
  7154  0118DC  EC7F  F08D         	call	_I2C1_SetDataCompleteCallback	;wreg free
  7155  0118E0                     
  7156                           ;mcc_generated_files/examples/i2c1_master_example.c: 160:     return I2C1_CONTINUE;
  7157  0118E0  0E04               	movlw	4
  7158  0118E2  0012               	return		;funcret
  7159  0118E4                     __end_of_wr1RegCompleteHandler:
  7160                           	callstack 0
  7161                           
  7162 ;; *************** function _rd2RegCompleteHandler *****************
  7163 ;; Defined at:
  7164 ;;		line 149 in file "mcc_generated_files/examples/i2c1_master_example.c"
  7165 ;; Parameters:    Size  Location     Type
  7166 ;;  ptr             2   15[COMRAM] PTR void 
  7167 ;;		 -> I2C1_ReadDataBlock@bufferBlock(4), I2C1_Write2ByteRegister@data(2), I2C1_Write1ByteRegister@data(1), I2C1_Read2B
      +yteRegister@returnValue(2), 
  7168 ;;		 -> NULL(0), I2C1_Read1ByteRegister@returnValue(1), 
  7169 ;; Auto vars:     Size  Location     Type
  7170 ;;		None
  7171 ;; Return value:  Size  Location     Type
  7172 ;;                  1    wreg      enum E360
  7173 ;; Registers used:
  7174 ;;		wreg, fsr2l, fsr2h, status,2, status,0, prodl, prodh, cstack
  7175 ;; Tracked objects:
  7176 ;;		On entry : 0/0
  7177 ;;		On exit  : 0/0
  7178 ;;		Unchanged: 0/0
  7179 ;; Data sizes:     COMRAM   BANK0   BANK1   BANK2   BANK3   BANK4   BANK5   BANK6   BANK7   BANK8   BANK9  BANK10  BANK1
      +1  BANK12  BANK13  BANK14
  7180 ;;      Params:         2       0       0       0       0       0       0       0       0       0       0       0       
      +0       0       0       0
  7181 ;;      Locals:         0       0       0       0       0       0       0       0       0       0       0       0       
      +0       0       0       0
  7182 ;;      Temps:          0       0       0       0       0       0       0       0       0       0       0       0       
      +0       0       0       0
  7183 ;;      Totals:         2       0       0       0       0       0       0       0       0       0       0       0       
      +0       0       0       0
  7184 ;;Total ram usage:        2 bytes
  7185 ;; Hardware stack levels used: 1
  7186 ;; Hardware stack levels required when called: 6
  7187 ;; This function calls:
  7188 ;;		_I2C1_SetBuffer
  7189 ;;		_I2C1_SetDataCompleteCallback
  7190 ;; This function is called by:
  7191 ;;		_I2C1_Read2ByteRegister
  7192 ;;		_I2C1_DO_TX
  7193 ;;		_I2C1_DO_RX
  7194 ;;		_I2C1_DO_TX_EMPTY
  7195 ;;		_I2C1_DO_ADDRESS_NACK
  7196 ;;		_I2C1_DO_RX_EMPTY
  7197 ;; This function uses a non-reentrant model
  7198 ;;
  7199                           
  7200                           	psect	text59
  7201  0118E4                     __ptext59:
  7202                           	callstack 0
  7203  0118E4                     _rd2RegCompleteHandler:
  7204                           	callstack 14
  7205  0118E4                     
  7206                           ;mcc_generated_files/examples/i2c1_master_example.c: 149: static i2c1_operations_t rd2Re
      +                          gCompleteHandler(void *ptr);mcc_generated_files/examples/i2c1_master_example.c: 150: {;m
      +                          cc_generated_files/examples/i2c1_master_example.c: 151:     I2C1_SetBuffer(ptr,2);
  7207  0118E4  C010  F005         	movff	rd2RegCompleteHandler@ptr,I2C1_SetBuffer@buffer
  7208  0118E8  C011  F006         	movff	rd2RegCompleteHandler@ptr+1,I2C1_SetBuffer@buffer+1
  7209  0118EC  0E00               	movlw	0
  7210  0118EE  6E08               	movwf	(I2C1_SetBuffer@bufferSize+1)^0,c
  7211  0118F0  0E02               	movlw	2
  7212  0118F2  6E07               	movwf	I2C1_SetBuffer@bufferSize^0,c
  7213  0118F4  EC1E  F08D         	call	_I2C1_SetBuffer	;wreg free
  7214  0118F8                     
  7215                           ;mcc_generated_files/examples/i2c1_master_example.c: 152:     I2C1_SetDataCompleteCallba
      +                          ck(((void*)0),((void*)0));
  7216  0118F8  0E00               	movlw	0
  7217  0118FA  6E0B               	movwf	I2C1_SetDataCompleteCallback@cb^0,c
  7218  0118FC  0E00               	movlw	0
  7219  0118FE  6E0C               	movwf	(I2C1_SetDataCompleteCallback@cb+1)^0,c
  7220  011900  0E00               	movlw	0
  7221  011902  6E0D               	movwf	(I2C1_SetDataCompleteCallback@cb+2)^0,c
  7222  011904  0E00               	movlw	0
  7223  011906  6E0E               	movwf	I2C1_SetDataCompleteCallback@ptr^0,c
  7224  011908  0E00               	movlw	0
  7225  01190A  6E0F               	movwf	(I2C1_SetDataCompleteCallback@ptr+1)^0,c
  7226  01190C  EC7F  F08D         	call	_I2C1_SetDataCompleteCallback	;wreg free
  7227  011910                     
  7228                           ;mcc_generated_files/examples/i2c1_master_example.c: 153:     return I2C1_RESTART_READ;
  7229  011910  0E02               	movlw	2
  7230  011912  0012               	return		;funcret
  7231  011914                     __end_of_rd2RegCompleteHandler:
  7232                           	callstack 0
  7233                           
  7234 ;; *************** function _rd1RegCompleteHandler *****************
  7235 ;; Defined at:
  7236 ;;		line 142 in file "mcc_generated_files/examples/i2c1_master_example.c"
  7237 ;; Parameters:    Size  Location     Type
  7238 ;;  ptr             2   15[COMRAM] PTR void 
  7239 ;;		 -> I2C1_ReadDataBlock@bufferBlock(4), I2C1_Write2ByteRegister@data(2), I2C1_Write1ByteRegister@data(1), I2C1_Read2B
      +yteRegister@returnValue(2), 
  7240 ;;		 -> NULL(0), I2C1_Read1ByteRegister@returnValue(1), 
  7241 ;; Auto vars:     Size  Location     Type
  7242 ;;		None
  7243 ;; Return value:  Size  Location     Type
  7244 ;;                  1    wreg      enum E360
  7245 ;; Registers used:
  7246 ;;		wreg, fsr2l, fsr2h, status,2, status,0, prodl, prodh, cstack
  7247 ;; Tracked objects:
  7248 ;;		On entry : 0/0
  7249 ;;		On exit  : 0/0
  7250 ;;		Unchanged: 0/0
  7251 ;; Data sizes:     COMRAM   BANK0   BANK1   BANK2   BANK3   BANK4   BANK5   BANK6   BANK7   BANK8   BANK9  BANK10  BANK1
      +1  BANK12  BANK13  BANK14
  7252 ;;      Params:         2       0       0       0       0       0       0       0       0       0       0       0       
      +0       0       0       0
  7253 ;;      Locals:         0       0       0       0       0       0       0       0       0       0       0       0       
      +0       0       0       0
  7254 ;;      Temps:          0       0       0       0       0       0       0       0       0       0       0       0       
      +0       0       0       0
  7255 ;;      Totals:         2       0       0       0       0       0       0       0       0       0       0       0       
      +0       0       0       0
  7256 ;;Total ram usage:        2 bytes
  7257 ;; Hardware stack levels used: 1
  7258 ;; Hardware stack levels required when called: 6
  7259 ;; This function calls:
  7260 ;;		_I2C1_SetBuffer
  7261 ;;		_I2C1_SetDataCompleteCallback
  7262 ;; This function is called by:
  7263 ;;		_I2C1_Read1ByteRegister
  7264 ;;		_I2C1_DO_TX
  7265 ;;		_I2C1_DO_RX
  7266 ;;		_I2C1_DO_TX_EMPTY
  7267 ;;		_I2C1_DO_ADDRESS_NACK
  7268 ;;		_I2C1_DO_RX_EMPTY
  7269 ;; This function uses a non-reentrant model
  7270 ;;
  7271                           
  7272                           	psect	text60
  7273  011914                     __ptext60:
  7274                           	callstack 0
  7275  011914                     _rd1RegCompleteHandler:
  7276                           	callstack 14
  7277  011914                     
  7278                           ;mcc_generated_files/examples/i2c1_master_example.c: 142: static i2c1_operations_t rd1Re
      +                          gCompleteHandler(void *ptr);mcc_generated_files/examples/i2c1_master_example.c: 143: {;m
      +                          cc_generated_files/examples/i2c1_master_example.c: 144:     I2C1_SetBuffer(ptr,1);
  7279  011914  C010  F005         	movff	rd1RegCompleteHandler@ptr,I2C1_SetBuffer@buffer
  7280  011918  C011  F006         	movff	rd1RegCompleteHandler@ptr+1,I2C1_SetBuffer@buffer+1
  7281  01191C  0E00               	movlw	0
  7282  01191E  6E08               	movwf	(I2C1_SetBuffer@bufferSize+1)^0,c
  7283  011920  0E01               	movlw	1
  7284  011922  6E07               	movwf	I2C1_SetBuffer@bufferSize^0,c
  7285  011924  EC1E  F08D         	call	_I2C1_SetBuffer	;wreg free
  7286  011928                     
  7287                           ;mcc_generated_files/examples/i2c1_master_example.c: 145:     I2C1_SetDataCompleteCallba
      +                          ck(((void*)0),((void*)0));
  7288  011928  0E00               	movlw	0
  7289  01192A  6E0B               	movwf	I2C1_SetDataCompleteCallback@cb^0,c
  7290  01192C  0E00               	movlw	0
  7291  01192E  6E0C               	movwf	(I2C1_SetDataCompleteCallback@cb+1)^0,c
  7292  011930  0E00               	movlw	0
  7293  011932  6E0D               	movwf	(I2C1_SetDataCompleteCallback@cb+2)^0,c
  7294  011934  0E00               	movlw	0
  7295  011936  6E0E               	movwf	I2C1_SetDataCompleteCallback@ptr^0,c
  7296  011938  0E00               	movlw	0
  7297  01193A  6E0F               	movwf	(I2C1_SetDataCompleteCallback@ptr+1)^0,c
  7298  01193C  EC7F  F08D         	call	_I2C1_SetDataCompleteCallback	;wreg free
  7299  011940                     
  7300                           ;mcc_generated_files/examples/i2c1_master_example.c: 146:     return I2C1_RESTART_READ;
  7301  011940  0E02               	movlw	2
  7302  011942  0012               	return		;funcret
  7303  011944                     __end_of_rd1RegCompleteHandler:
  7304                           	callstack 0
  7305                           
  7306 ;; *************** function _wr2RegCompleteHandler *****************
  7307 ;; Defined at:
  7308 ;;		line 163 in file "mcc_generated_files/examples/i2c1_master_example.c"
  7309 ;; Parameters:    Size  Location     Type
  7310 ;;  ptr             2   15[COMRAM] PTR void 
  7311 ;;		 -> I2C1_ReadDataBlock@bufferBlock(4), I2C1_Write2ByteRegister@data(2), I2C1_Write1ByteRegister@data(1), I2C1_Read2B
      +yteRegister@returnValue(2), 
  7312 ;;		 -> NULL(0), I2C1_Read1ByteRegister@returnValue(1), 
  7313 ;; Auto vars:     Size  Location     Type
  7314 ;;		None
  7315 ;; Return value:  Size  Location     Type
  7316 ;;                  1    wreg      enum E360
  7317 ;; Registers used:
  7318 ;;		wreg, fsr2l, fsr2h, status,2, status,0, prodl, prodh, cstack
  7319 ;; Tracked objects:
  7320 ;;		On entry : 0/0
  7321 ;;		On exit  : 0/0
  7322 ;;		Unchanged: 0/0
  7323 ;; Data sizes:     COMRAM   BANK0   BANK1   BANK2   BANK3   BANK4   BANK5   BANK6   BANK7   BANK8   BANK9  BANK10  BANK1
      +1  BANK12  BANK13  BANK14
  7324 ;;      Params:         2       0       0       0       0       0       0       0       0       0       0       0       
      +0       0       0       0
  7325 ;;      Locals:         0       0       0       0       0       0       0       0       0       0       0       0       
      +0       0       0       0
  7326 ;;      Temps:          0       0       0       0       0       0       0       0       0       0       0       0       
      +0       0       0       0
  7327 ;;      Totals:         2       0       0       0       0       0       0       0       0       0       0       0       
      +0       0       0       0
  7328 ;;Total ram usage:        2 bytes
  7329 ;; Hardware stack levels used: 1
  7330 ;; Hardware stack levels required when called: 6
  7331 ;; This function calls:
  7332 ;;		_I2C1_SetBuffer
  7333 ;;		_I2C1_SetDataCompleteCallback
  7334 ;; This function is called by:
  7335 ;;		_I2C1_Write2ByteRegister
  7336 ;;		_I2C1_DO_TX
  7337 ;;		_I2C1_DO_RX
  7338 ;;		_I2C1_DO_TX_EMPTY
  7339 ;;		_I2C1_DO_ADDRESS_NACK
  7340 ;;		_I2C1_DO_RX_EMPTY
  7341 ;; This function uses a non-reentrant model
  7342 ;;
  7343                           
  7344                           	psect	text61
  7345  011944                     __ptext61:
  7346                           	callstack 0
  7347  011944                     _wr2RegCompleteHandler:
  7348                           	callstack 14
  7349  011944                     
  7350                           ;mcc_generated_files/examples/i2c1_master_example.c: 163: static i2c1_operations_t wr2Re
      +                          gCompleteHandler(void *ptr);mcc_generated_files/examples/i2c1_master_example.c: 164: {;m
      +                          cc_generated_files/examples/i2c1_master_example.c: 165:     I2C1_SetBuffer(ptr,2);
  7351  011944  C010  F005         	movff	wr2RegCompleteHandler@ptr,I2C1_SetBuffer@buffer
  7352  011948  C011  F006         	movff	wr2RegCompleteHandler@ptr+1,I2C1_SetBuffer@buffer+1
  7353  01194C  0E00               	movlw	0
  7354  01194E  6E08               	movwf	(I2C1_SetBuffer@bufferSize+1)^0,c
  7355  011950  0E02               	movlw	2
  7356  011952  6E07               	movwf	I2C1_SetBuffer@bufferSize^0,c
  7357  011954  EC1E  F08D         	call	_I2C1_SetBuffer	;wreg free
  7358  011958                     
  7359                           ;mcc_generated_files/examples/i2c1_master_example.c: 166:     I2C1_SetDataCompleteCallba
      +                          ck(((void*)0),((void*)0));
  7360  011958  0E00               	movlw	0
  7361  01195A  6E0B               	movwf	I2C1_SetDataCompleteCallback@cb^0,c
  7362  01195C  0E00               	movlw	0
  7363  01195E  6E0C               	movwf	(I2C1_SetDataCompleteCallback@cb+1)^0,c
  7364  011960  0E00               	movlw	0
  7365  011962  6E0D               	movwf	(I2C1_SetDataCompleteCallback@cb+2)^0,c
  7366  011964  0E00               	movlw	0
  7367  011966  6E0E               	movwf	I2C1_SetDataCompleteCallback@ptr^0,c
  7368  011968  0E00               	movlw	0
  7369  01196A  6E0F               	movwf	(I2C1_SetDataCompleteCallback@ptr+1)^0,c
  7370  01196C  EC7F  F08D         	call	_I2C1_SetDataCompleteCallback	;wreg free
  7371  011970                     
  7372                           ;mcc_generated_files/examples/i2c1_master_example.c: 167:     return I2C1_CONTINUE;
  7373  011970  0E04               	movlw	4
  7374  011972  0012               	return		;funcret
  7375  011974                     __end_of_wr2RegCompleteHandler:
  7376                           	callstack 0
  7377                           
  7378 ;; *************** function _I2C1_SetDataCompleteCallback *****************
  7379 ;; Defined at:
  7380 ;;		line 275 in file "mcc_generated_files/i2c1_master.c"
  7381 ;; Parameters:    Size  Location     Type
  7382 ;;  cb              3   10[COMRAM] PTR FTN(PTR void ,)enum 
  7383 ;;		 -> Absolute function(1), rdBlkRegCompleteHandler(1), wr2RegCompleteHandler(1), wr1RegCompleteHandler(1), 
  7384 ;;		 -> rd2RegCompleteHandler(1), rd1RegCompleteHandler(1), 
  7385 ;;  ptr             2   13[COMRAM] PTR void 
  7386 ;;		 -> I2C1_ReadDataBlock@bufferBlock(4), I2C1_Write2ByteRegister@data(2), I2C1_Write1ByteRegister@data(1), I2C1_Read2B
      +yteRegister@returnValue(2), 
  7387 ;;		 -> NULL(0), I2C1_Read1ByteRegister@returnValue(1), 
  7388 ;; Auto vars:     Size  Location     Type
  7389 ;;		None
  7390 ;; Return value:  Size  Location     Type
  7391 ;;                  1    wreg      void 
  7392 ;; Registers used:
  7393 ;;		wreg, fsr2l, fsr2h, status,2, status,0, prodl, prodh, cstack
  7394 ;; Tracked objects:
  7395 ;;		On entry : 0/0
  7396 ;;		On exit  : 0/0
  7397 ;;		Unchanged: 0/0
  7398 ;; Data sizes:     COMRAM   BANK0   BANK1   BANK2   BANK3   BANK4   BANK5   BANK6   BANK7   BANK8   BANK9  BANK10  BANK1
      +1  BANK12  BANK13  BANK14
  7399 ;;      Params:         5       0       0       0       0       0       0       0       0       0       0       0       
      +0       0       0       0
  7400 ;;      Locals:         0       0       0       0       0       0       0       0       0       0       0       0       
      +0       0       0       0
  7401 ;;      Temps:          0       0       0       0       0       0       0       0       0       0       0       0       
      +0       0       0       0
  7402 ;;      Totals:         5       0       0       0       0       0       0       0       0       0       0       0       
      +0       0       0       0
  7403 ;;Total ram usage:        5 bytes
  7404 ;; Hardware stack levels used: 1
  7405 ;; Hardware stack levels required when called: 5
  7406 ;; This function calls:
  7407 ;;		_I2C1_SetCallback
  7408 ;; This function is called by:
  7409 ;;		_I2C1_Read1ByteRegister
  7410 ;;		_I2C1_Write1ByteRegister
  7411 ;;		_rd1RegCompleteHandler
  7412 ;;		_rd2RegCompleteHandler
  7413 ;;		_wr1RegCompleteHandler
  7414 ;;		_wr2RegCompleteHandler
  7415 ;;		_rdBlkRegCompleteHandler
  7416 ;;		_I2C1_Read2ByteRegister
  7417 ;;		_I2C1_Write2ByteRegister
  7418 ;;		_I2C1_ReadDataBlock
  7419 ;; This function uses a non-reentrant model
  7420 ;;
  7421                           
  7422                           	psect	text62
  7423  011AFE                     __ptext62:
  7424                           	callstack 0
  7425  011AFE                     _I2C1_SetDataCompleteCallback:
  7426                           	callstack 20
  7427  011AFE                     
  7428                           ;mcc_generated_files/i2c1_master.c: 275: void I2C1_SetDataCompleteCallback(i2c1_callback
      +                          _t cb, void *ptr);mcc_generated_files/i2c1_master.c: 276: {;mcc_generated_files/i2c1_mas
      +                          ter.c: 277:     I2C1_SetCallback(I2C1_DATA_COMPLETE, cb, ptr);
  7429  011AFE  C00B  F005         	movff	I2C1_SetDataCompleteCallback@cb,I2C1_SetCallback@cb
  7430  011B02  C00C  F006         	movff	I2C1_SetDataCompleteCallback@cb+1,I2C1_SetCallback@cb+1
  7431  011B06  C00D  F007         	movff	I2C1_SetDataCompleteCallback@cb+2,I2C1_SetCallback@cb+2
  7432  011B0A  C00E  F008         	movff	I2C1_SetDataCompleteCallback@ptr,I2C1_SetCallback@ptr
  7433  011B0E  C00F  F009         	movff	I2C1_SetDataCompleteCallback@ptr+1,I2C1_SetCallback@ptr+1
  7434  011B12  0E00               	movlw	0
  7435  011B14  ECC2  F089         	call	_I2C1_SetCallback
  7436  011B18  0012               	return		;funcret
  7437  011B1A                     __end_of_I2C1_SetDataCompleteCallback:
  7438                           	callstack 0
  7439                           
  7440 ;; *************** function _I2C1_SetCallback *****************
  7441 ;; Defined at:
  7442 ;;		line 300 in file "mcc_generated_files/i2c1_master.c"
  7443 ;; Parameters:    Size  Location     Type
  7444 ;;  idx             1    wreg     enum E9986
  7445 ;;  cb              3    4[COMRAM] PTR FTN(PTR void ,)enum 
  7446 ;;		 -> Absolute function(1), rdBlkRegCompleteHandler(1), wr2RegCompleteHandler(1), wr1RegCompleteHandler(1), 
  7447 ;;		 -> rd2RegCompleteHandler(1), rd1RegCompleteHandler(1), 
  7448 ;;  ptr             2    7[COMRAM] PTR void 
  7449 ;;		 -> I2C1_ReadDataBlock@bufferBlock(4), I2C1_Write2ByteRegister@data(2), I2C1_Write1ByteRegister@data(1), I2C1_Read2B
      +yteRegister@returnValue(2), 
  7450 ;;		 -> NULL(0), I2C1_Read1ByteRegister@returnValue(1), 
  7451 ;; Auto vars:     Size  Location     Type
  7452 ;;  idx             1    9[COMRAM] enum E9986
  7453 ;; Return value:  Size  Location     Type
  7454 ;;                  1    wreg      void 
  7455 ;; Registers used:
  7456 ;;		wreg, fsr2l, fsr2h, status,2, status,0, prodl, prodh
  7457 ;; Tracked objects:
  7458 ;;		On entry : 0/0
  7459 ;;		On exit  : 0/0
  7460 ;;		Unchanged: 0/0
  7461 ;; Data sizes:     COMRAM   BANK0   BANK1   BANK2   BANK3   BANK4   BANK5   BANK6   BANK7   BANK8   BANK9  BANK10  BANK1
      +1  BANK12  BANK13  BANK14
  7462 ;;      Params:         5       0       0       0       0       0       0       0       0       0       0       0       
      +0       0       0       0
  7463 ;;      Locals:         1       0       0       0       0       0       0       0       0       0       0       0       
      +0       0       0       0
  7464 ;;      Temps:          0       0       0       0       0       0       0       0       0       0       0       0       
      +0       0       0       0
  7465 ;;      Totals:         6       0       0       0       0       0       0       0       0       0       0       0       
      +0       0       0       0
  7466 ;;Total ram usage:        6 bytes
  7467 ;; Hardware stack levels used: 1
  7468 ;; Hardware stack levels required when called: 4
  7469 ;; This function calls:
  7470 ;;		Nothing
  7471 ;; This function is called by:
  7472 ;;		_I2C1_SetDataCompleteCallback
  7473 ;;		_I2C1_SetAddressNackCallback
  7474 ;;		_I2C1_SetWriteCollisionCallback
  7475 ;;		_I2C1_SetDataNackCallback
  7476 ;;		_I2C1_SetTimeoutCallback
  7477 ;; This function uses a non-reentrant model
  7478 ;;
  7479                           
  7480                           	psect	text63
  7481  011384                     __ptext63:
  7482                           	callstack 0
  7483  011384                     _I2C1_SetCallback:
  7484                           	callstack 20
  7485                           
  7486                           ;incstack = 0
  7487                           ;I2C1_SetCallback@idx stored from wreg
  7488  011384  6E0A               	movwf	I2C1_SetCallback@idx^0,c
  7489  011386                     
  7490                           ;mcc_generated_files/i2c1_master.c: 300: static void I2C1_SetCallback(i2c1_callbackIndex
      +                          _t idx, i2c1_callback_t cb, void *ptr);mcc_generated_files/i2c1_master.c: 301: {;mcc_gen
      +                          erated_files/i2c1_master.c: 302:     if(cb)
  7491  011386  5005               	movf	I2C1_SetCallback@cb^0,w,c
  7492  011388  1006               	iorwf	(I2C1_SetCallback@cb+1)^0,w,c
  7493  01138A  1007               	iorwf	(I2C1_SetCallback@cb+2)^0,w,c
  7494  01138C  B4D8               	btfsc	status,2,c
  7495  01138E  EFCB  F089         	goto	u14431
  7496  011392  EFCD  F089         	goto	u14430
  7497  011396                     u14431:
  7498  011396  EFE9  F089         	goto	l12030
  7499  01139A                     u14430:
  7500  01139A                     
  7501                           ;mcc_generated_files/i2c1_master.c: 303:     {;mcc_generated_files/i2c1_master.c: 304:  
      +                                 I2C1_Status.callbackTable[idx] = cb;
  7502  01139A  500A               	movf	I2C1_SetCallback@idx^0,w,c
  7503  01139C  0D03               	mullw	3
  7504  01139E  0E60               	movlw	low _I2C1_Status
  7505  0113A0  24F3               	addwf	243,w,c
  7506  0113A2  6ED9               	movwf	fsr2l,c
  7507  0113A4  0E00               	movlw	high _I2C1_Status
  7508  0113A6  20F4               	addwfc	prodh,w,c
  7509  0113A8  6EDA               	movwf	fsr2h,c
  7510  0113AA  C005  FFDE         	movff	I2C1_SetCallback@cb,postinc2
  7511  0113AE  C006  FFDE         	movff	I2C1_SetCallback@cb+1,postinc2
  7512  0113B2  C007  FFDE         	movff	I2C1_SetCallback@cb+2,postinc2
  7513                           
  7514                           ;mcc_generated_files/i2c1_master.c: 305:         I2C1_Status.callbackPayload[idx] = ptr;
  7515  0113B6  500A               	movf	I2C1_SetCallback@idx^0,w,c
  7516  0113B8  0D02               	mullw	2
  7517  0113BA  0E72               	movlw	low (_I2C1_Status+18)
  7518  0113BC  24F3               	addwf	243,w,c
  7519  0113BE  6ED9               	movwf	fsr2l,c
  7520  0113C0  0E00               	movlw	high (_I2C1_Status+18)
  7521  0113C2  20F4               	addwfc	prodh,w,c
  7522  0113C4  6EDA               	movwf	fsr2h,c
  7523  0113C6  C008  FFDE         	movff	I2C1_SetCallback@ptr,postinc2
  7524  0113CA  C009  FFDD         	movff	I2C1_SetCallback@ptr+1,postdec2
  7525                           
  7526                           ;mcc_generated_files/i2c1_master.c: 306:     }
  7527  0113CE  EF03  F08A         	goto	l1524
  7528  0113D2                     l12030:
  7529                           
  7530                           ;mcc_generated_files/i2c1_master.c: 308:     {;mcc_generated_files/i2c1_master.c: 309:  
      +                                 I2C1_Status.callbackTable[idx] = I2C1_CallbackReturnStop;
  7531  0113D2  500A               	movf	I2C1_SetCallback@idx^0,w,c
  7532  0113D4  0D03               	mullw	3
  7533  0113D6  0E60               	movlw	low _I2C1_Status
  7534  0113D8  24F3               	addwf	243,w,c
  7535  0113DA  6ED9               	movwf	fsr2l,c
  7536  0113DC  0E00               	movlw	high _I2C1_Status
  7537  0113DE  20F4               	addwfc	prodh,w,c
  7538  0113E0  6EDA               	movwf	fsr2h,c
  7539  0113E2  0E7E               	movlw	low _I2C1_CallbackReturnStop
  7540  0113E4  6EDE               	movwf	postinc2,c
  7541  0113E6  0E1C               	movlw	high _I2C1_CallbackReturnStop
  7542  0113E8  6EDE               	movwf	postinc2,c
  7543  0113EA  0E01               	movlw	low (_I2C1_CallbackReturnStop shr (0+16))
  7544  0113EC  6EDE               	movwf	postinc2,c
  7545                           
  7546                           ;mcc_generated_files/i2c1_master.c: 310:         I2C1_Status.callbackPayload[idx] = ((vo
      +                          id*)0);
  7547  0113EE  500A               	movf	I2C1_SetCallback@idx^0,w,c
  7548  0113F0  0D02               	mullw	2
  7549  0113F2  0E72               	movlw	low (_I2C1_Status+18)
  7550  0113F4  24F3               	addwf	243,w,c
  7551  0113F6  6ED9               	movwf	fsr2l,c
  7552  0113F8  0E00               	movlw	high (_I2C1_Status+18)
  7553  0113FA  20F4               	addwfc	prodh,w,c
  7554  0113FC  6EDA               	movwf	fsr2h,c
  7555  0113FE  0E00               	movlw	0
  7556  011400  6EDE               	movwf	postinc2,c
  7557  011402  0E00               	movlw	0
  7558  011404  6EDD               	movwf	postdec2,c
  7559  011406                     l1524:
  7560  011406  0012               	return		;funcret
  7561  011408                     __end_of_I2C1_SetCallback:
  7562                           	callstack 0
  7563                           
  7564 ;; *************** function _I2C1_SetBuffer *****************
  7565 ;; Defined at:
  7566 ;;		line 265 in file "mcc_generated_files/i2c1_master.c"
  7567 ;; Parameters:    Size  Location     Type
  7568 ;;  buffer          2    4[COMRAM] PTR void 
  7569 ;;		 -> I2C1_Read1ByteRegister@returnValue.data(3), I2C1_Read2ByteRegister@returnValue.data(3), I2C1_Write1ByteRegister@
      +data.data(3), I2C1_Write2ByteRegister@data.data(3), 
  7570 ;;		 -> I2C1_ReadDataBlock@reg(1), I2C1_ReadDataBlock@bufferBlock(4), bufferBlock.data(3), I2C1_Write2ByteRegister@reg(1
      +), 
  7571 ;;		 -> I2C1_Write2ByteRegister@data(2), I2C1_Write1ByteRegister@reg(1), I2C1_Write1ByteRegister@data(1), I2C1_Read2Byte
      +Register@reg(1), 
  7572 ;;		 -> I2C1_Read2ByteRegister@returnValue(2), NULL(0), I2C1_Read1ByteRegister@reg(1), I2C1_Read1ByteRegister@returnValu
      +e(1), 
  7573 ;;  bufferSize      2    6[COMRAM] unsigned int 
  7574 ;; Auto vars:     Size  Location     Type
  7575 ;;		None
  7576 ;; Return value:  Size  Location     Type
  7577 ;;                  1    wreg      void 
  7578 ;; Registers used:
  7579 ;;		wreg, status,2, status,0
  7580 ;; Tracked objects:
  7581 ;;		On entry : 0/0
  7582 ;;		On exit  : 0/0
  7583 ;;		Unchanged: 0/0
  7584 ;; Data sizes:     COMRAM   BANK0   BANK1   BANK2   BANK3   BANK4   BANK5   BANK6   BANK7   BANK8   BANK9  BANK10  BANK1
      +1  BANK12  BANK13  BANK14
  7585 ;;      Params:         4       0       0       0       0       0       0       0       0       0       0       0       
      +0       0       0       0
  7586 ;;      Locals:         0       0       0       0       0       0       0       0       0       0       0       0       
      +0       0       0       0
  7587 ;;      Temps:          0       0       0       0       0       0       0       0       0       0       0       0       
      +0       0       0       0
  7588 ;;      Totals:         4       0       0       0       0       0       0       0       0       0       0       0       
      +0       0       0       0
  7589 ;;Total ram usage:        4 bytes
  7590 ;; Hardware stack levels used: 1
  7591 ;; Hardware stack levels required when called: 4
  7592 ;; This function calls:
  7593 ;;		Nothing
  7594 ;; This function is called by:
  7595 ;;		_I2C1_Read1ByteRegister
  7596 ;;		_I2C1_Write1ByteRegister
  7597 ;;		_rd1RegCompleteHandler
  7598 ;;		_rd2RegCompleteHandler
  7599 ;;		_wr1RegCompleteHandler
  7600 ;;		_wr2RegCompleteHandler
  7601 ;;		_rdBlkRegCompleteHandler
  7602 ;;		_I2C1_Read2ByteRegister
  7603 ;;		_I2C1_Write2ByteRegister
  7604 ;;		_I2C1_WriteNBytes
  7605 ;;		_I2C1_ReadNBytes
  7606 ;;		_I2C1_ReadDataBlock
  7607 ;; This function uses a non-reentrant model
  7608 ;;
  7609                           
  7610                           	psect	text64
  7611  011A3C                     __ptext64:
  7612                           	callstack 0
  7613  011A3C                     _I2C1_SetBuffer:
  7614                           	callstack 21
  7615  011A3C                     
  7616                           ;mcc_generated_files/i2c1_master.c: 265: void I2C1_SetBuffer(void *buffer, size_t buffer
      +                          Size);mcc_generated_files/i2c1_master.c: 266: {;mcc_generated_files/i2c1_master.c: 267: 
      +                              if(I2C1_Status.bufferFree)
  7617  011A3C  0100               	movlb	0	; () banked
  7618  011A3E  A789               	btfss	(_I2C1_Status+41)& (0+255),3,b
  7619  011A40  EF24  F08D         	goto	u14441
  7620  011A44  EF26  F08D         	goto	u14440
  7621  011A48                     u14441:
  7622  011A48  EF2F  F08D         	goto	l1504
  7623  011A4C                     u14440:
  7624  011A4C                     
  7625                           ; BSR set to: 0
  7626                           ;mcc_generated_files/i2c1_master.c: 268:     {;mcc_generated_files/i2c1_master.c: 269:  
      +                                 I2C1_Status.data_ptr = buffer;
  7627  011A4C  C005  F083         	movff	I2C1_SetBuffer@buffer,_I2C1_Status+35
  7628  011A50  C006  F084         	movff	I2C1_SetBuffer@buffer+1,_I2C1_Status+36
  7629  011A54                     
  7630                           ; BSR set to: 0
  7631                           ;mcc_generated_files/i2c1_master.c: 270:         I2C1_Status.data_length = bufferSize;
  7632  011A54  C007  F085         	movff	I2C1_SetBuffer@bufferSize,_I2C1_Status+37
  7633  011A58  C008  F086         	movff	I2C1_SetBuffer@bufferSize+1,_I2C1_Status+38
  7634  011A5C                     
  7635                           ; BSR set to: 0
  7636                           ;mcc_generated_files/i2c1_master.c: 271:         I2C1_Status.bufferFree = 0;
  7637  011A5C  9789               	bcf	(_I2C1_Status+41)& (0+255),3,b
  7638  011A5E                     l1504:
  7639                           
  7640                           ; BSR set to: 0
  7641  011A5E  0012               	return		;funcret
  7642  011A60                     __end_of_I2C1_SetBuffer:
  7643                           	callstack 0
  7644                           
  7645 ;; *************** function _I2C1_MasterStop *****************
  7646 ;; Defined at:
  7647 ;;		line 595 in file "mcc_generated_files/i2c1_master.c"
  7648 ;; Parameters:    Size  Location     Type
  7649 ;;		None
  7650 ;; Auto vars:     Size  Location     Type
  7651 ;;		None
  7652 ;; Return value:  Size  Location     Type
  7653 ;;                  1    wreg      void 
  7654 ;; Registers used:
  7655 ;;		None
  7656 ;; Tracked objects:
  7657 ;;		On entry : 0/0
  7658 ;;		On exit  : 0/0
  7659 ;;		Unchanged: 0/0
  7660 ;; Data sizes:     COMRAM   BANK0   BANK1   BANK2   BANK3   BANK4   BANK5   BANK6   BANK7   BANK8   BANK9  BANK10  BANK1
      +1  BANK12  BANK13  BANK14
  7661 ;;      Params:         0       0       0       0       0       0       0       0       0       0       0       0       
      +0       0       0       0
  7662 ;;      Locals:         0       0       0       0       0       0       0       0       0       0       0       0       
      +0       0       0       0
  7663 ;;      Temps:          0       0       0       0       0       0       0       0       0       0       0       0       
      +0       0       0       0
  7664 ;;      Totals:         0       0       0       0       0       0       0       0       0       0       0       0       
      +0       0       0       0
  7665 ;;Total ram usage:        0 bytes
  7666 ;; Hardware stack levels used: 1
  7667 ;; Hardware stack levels required when called: 4
  7668 ;; This function calls:
  7669 ;;		Nothing
  7670 ;; This function is called by:
  7671 ;;		_I2C1_DO_SEND_STOP
  7672 ;; This function uses a non-reentrant model
  7673 ;;
  7674                           
  7675                           	psect	text65
  7676  011C82                     __ptext65:
  7677                           	callstack 0
  7678  011C82                     _I2C1_MasterStop:
  7679                           	callstack 15
  7680  011C82                     
  7681                           ;mcc_generated_files/i2c1_master.c: 597:     SSP1CON2bits.PEN = 1;
  7682  011C82  8497               	bsf	151,2,c	;volatile
  7683  011C84  0012               	return		;funcret
  7684  011C86                     __end_of_I2C1_MasterStop:
  7685                           	callstack 0
  7686                           
  7687 ;; *************** function _I2C1_MasterEnableRestart *****************
  7688 ;; Defined at:
  7689 ;;		line 575 in file "mcc_generated_files/i2c1_master.c"
  7690 ;; Parameters:    Size  Location     Type
  7691 ;;		None
  7692 ;; Auto vars:     Size  Location     Type
  7693 ;;		None
  7694 ;; Return value:  Size  Location     Type
  7695 ;;                  1    wreg      void 
  7696 ;; Registers used:
  7697 ;;		None
  7698 ;; Tracked objects:
  7699 ;;		On entry : 0/0
  7700 ;;		On exit  : 0/0
  7701 ;;		Unchanged: 0/0
  7702 ;; Data sizes:     COMRAM   BANK0   BANK1   BANK2   BANK3   BANK4   BANK5   BANK6   BANK7   BANK8   BANK9  BANK10  BANK1
      +1  BANK12  BANK13  BANK14
  7703 ;;      Params:         0       0       0       0       0       0       0       0       0       0       0       0       
      +0       0       0       0
  7704 ;;      Locals:         0       0       0       0       0       0       0       0       0       0       0       0       
      +0       0       0       0
  7705 ;;      Temps:          0       0       0       0       0       0       0       0       0       0       0       0       
      +0       0       0       0
  7706 ;;      Totals:         0       0       0       0       0       0       0       0       0       0       0       0       
      +0       0       0       0
  7707 ;;Total ram usage:        0 bytes
  7708 ;; Hardware stack levels used: 1
  7709 ;; Hardware stack levels required when called: 4
  7710 ;; This function calls:
  7711 ;;		Nothing
  7712 ;; This function is called by:
  7713 ;;		_I2C1_DO_SEND_RESTART_READ
  7714 ;;		_I2C1_DO_SEND_RESTART_WRITE
  7715 ;;		_I2C1_DO_SEND_RESTART
  7716 ;;		_I2C1_DO_RX_EMPTY
  7717 ;; This function uses a non-reentrant model
  7718 ;;
  7719                           
  7720                           	psect	text66
  7721  011C86                     __ptext66:
  7722                           	callstack 0
  7723  011C86                     _I2C1_MasterEnableRestart:
  7724                           	callstack 15
  7725  011C86                     
  7726                           ;mcc_generated_files/i2c1_master.c: 577:     SSP1CON2bits.RSEN = 1;
  7727  011C86  8297               	bsf	151,1,c	;volatile
  7728  011C88  0012               	return		;funcret
  7729  011C8A                     __end_of_I2C1_MasterEnableRestart:
  7730                           	callstack 0
  7731                           
  7732 ;; *************** function _I2C1_MasterStart *****************
  7733 ;; Defined at:
  7734 ;;		line 590 in file "mcc_generated_files/i2c1_master.c"
  7735 ;; Parameters:    Size  Location     Type
  7736 ;;		None
  7737 ;; Auto vars:     Size  Location     Type
  7738 ;;		None
  7739 ;; Return value:  Size  Location     Type
  7740 ;;                  1    wreg      void 
  7741 ;; Registers used:
  7742 ;;		None
  7743 ;; Tracked objects:
  7744 ;;		On entry : 0/0
  7745 ;;		On exit  : 0/0
  7746 ;;		Unchanged: 0/0
  7747 ;; Data sizes:     COMRAM   BANK0   BANK1   BANK2   BANK3   BANK4   BANK5   BANK6   BANK7   BANK8   BANK9  BANK10  BANK1
      +1  BANK12  BANK13  BANK14
  7748 ;;      Params:         0       0       0       0       0       0       0       0       0       0       0       0       
      +0       0       0       0
  7749 ;;      Locals:         0       0       0       0       0       0       0       0       0       0       0       0       
      +0       0       0       0
  7750 ;;      Temps:          0       0       0       0       0       0       0       0       0       0       0       0       
      +0       0       0       0
  7751 ;;      Totals:         0       0       0       0       0       0       0       0       0       0       0       0       
      +0       0       0       0
  7752 ;;Total ram usage:        0 bytes
  7753 ;; Hardware stack levels used: 1
  7754 ;; Hardware stack levels required when called: 4
  7755 ;; This function calls:
  7756 ;;		Nothing
  7757 ;; This function is called by:
  7758 ;;		_I2C1_MasterOperation
  7759 ;; This function uses a non-reentrant model
  7760 ;;
  7761                           
  7762                           	psect	text67
  7763  011C8A                     __ptext67:
  7764                           	callstack 0
  7765  011C8A                     _I2C1_MasterStart:
  7766                           	callstack 19
  7767  011C8A                     
  7768                           ;mcc_generated_files/i2c1_master.c: 592:     SSP1CON2bits.SEN = 1;
  7769  011C8A  8097               	bsf	151,0,c	;volatile
  7770  011C8C  0012               	return		;funcret
  7771  011C8E                     __end_of_I2C1_MasterStart:
  7772                           	callstack 0
  7773                           
  7774 ;; *************** function _I2C1_Close *****************
  7775 ;; Defined at:
  7776 ;;		line 211 in file "mcc_generated_files/i2c1_master.c"
  7777 ;; Parameters:    Size  Location     Type
  7778 ;;		None
  7779 ;; Auto vars:     Size  Location     Type
  7780 ;;  returnValue     1    4[COMRAM] enum E355
  7781 ;; Return value:  Size  Location     Type
  7782 ;;                  1    wreg      enum E355
  7783 ;; Registers used:
  7784 ;;		wreg, status,2, cstack
  7785 ;; Tracked objects:
  7786 ;;		On entry : 0/0
  7787 ;;		On exit  : 0/0
  7788 ;;		Unchanged: 0/0
  7789 ;; Data sizes:     COMRAM   BANK0   BANK1   BANK2   BANK3   BANK4   BANK5   BANK6   BANK7   BANK8   BANK9  BANK10  BANK1
      +1  BANK12  BANK13  BANK14
  7790 ;;      Params:         0       0       0       0       0       0       0       0       0       0       0       0       
      +0       0       0       0
  7791 ;;      Locals:         1       0       0       0       0       0       0       0       0       0       0       0       
      +0       0       0       0
  7792 ;;      Temps:          0       0       0       0       0       0       0       0       0       0       0       0       
      +0       0       0       0
  7793 ;;      Totals:         1       0       0       0       0       0       0       0       0       0       0       0       
      +0       0       0       0
  7794 ;;Total ram usage:        1 bytes
  7795 ;; Hardware stack levels used: 1
  7796 ;; Hardware stack levels required when called: 5
  7797 ;; This function calls:
  7798 ;;		_I2C1_MasterClearIrq
  7799 ;;		_I2C1_MasterClose
  7800 ;;		_I2C1_MasterDisableIrq
  7801 ;; This function is called by:
  7802 ;;		_I2C1_Read1ByteRegister
  7803 ;;		_I2C1_Write1ByteRegister
  7804 ;;		_I2C1_Read2ByteRegister
  7805 ;;		_I2C1_Write2ByteRegister
  7806 ;;		_I2C1_WriteNBytes
  7807 ;;		_I2C1_ReadNBytes
  7808 ;;		_I2C1_ReadDataBlock
  7809 ;; This function uses a non-reentrant model
  7810 ;;
  7811                           
  7812                           	psect	text68
  7813  011974                     __ptext68:
  7814                           	callstack 0
  7815  011974                     _I2C1_Close:
  7816                           	callstack 20
  7817  011974                     
  7818                           ;mcc_generated_files/i2c1_master.c: 213:     i2c1_error_t returnValue = I2C1_BUSY;
  7819  011974  0E01               	movlw	1
  7820  011976  6E05               	movwf	I2C1_Close@returnValue^0,c
  7821  011978                     
  7822                           ;mcc_generated_files/i2c1_master.c: 214:     if(!I2C1_Status.busy)
  7823  011978  0100               	movlb	0	; () banked
  7824  01197A  B389               	btfsc	(_I2C1_Status+41)& (0+255),1,b
  7825  01197C  EFC2  F08C         	goto	u14621
  7826  011980  EFC4  F08C         	goto	u14620
  7827  011984                     u14621:
  7828  011984  EFCE  F08C         	goto	l12424
  7829  011988                     u14620:
  7830  011988                     
  7831                           ; BSR set to: 0
  7832                           ;mcc_generated_files/i2c1_master.c: 215:     {;mcc_generated_files/i2c1_master.c: 216:  
      +                                 I2C1_Status.inUse = 0;
  7833  011988  9589               	bcf	(_I2C1_Status+41)& (0+255),2,b
  7834                           
  7835                           ;mcc_generated_files/i2c1_master.c: 217:         I2C1_Status.address = 0xff;
  7836  01198A  6982               	setf	(_I2C1_Status+34)& (0+255),b
  7837  01198C                     
  7838                           ; BSR set to: 0
  7839                           ;mcc_generated_files/i2c1_master.c: 218:         I2C1_MasterClearIrq();
  7840  01198C  EC36  F08E         	call	_I2C1_MasterClearIrq	;wreg free
  7841                           
  7842                           ;mcc_generated_files/i2c1_master.c: 219:         I2C1_MasterDisableIrq();
  7843  011990  EC33  F08E         	call	_I2C1_MasterDisableIrq	;wreg free
  7844                           
  7845                           ;mcc_generated_files/i2c1_master.c: 220:         I2C1_MasterClose();
  7846  011994  EC47  F08E         	call	_I2C1_MasterClose	;wreg free
  7847  011998                     
  7848                           ;mcc_generated_files/i2c1_master.c: 221:         returnValue = I2C1_Status.error;
  7849  011998  C088  F005         	movff	_I2C1_Status+40,I2C1_Close@returnValue
  7850  01199C                     l12424:
  7851                           
  7852                           ;mcc_generated_files/i2c1_master.c: 223:     return returnValue;
  7853  01199C  5005               	movf	I2C1_Close@returnValue^0,w,c
  7854  01199E  0012               	return		;funcret
  7855  0119A0                     __end_of_I2C1_Close:
  7856                           	callstack 0
  7857                           
  7858 ;; *************** function _I2C1_MasterDisableIrq *****************
  7859 ;; Defined at:
  7860 ;;		line 637 in file "mcc_generated_files/i2c1_master.c"
  7861 ;; Parameters:    Size  Location     Type
  7862 ;;		None
  7863 ;; Auto vars:     Size  Location     Type
  7864 ;;		None
  7865 ;; Return value:  Size  Location     Type
  7866 ;;                  1    wreg      void 
  7867 ;; Registers used:
  7868 ;;		None
  7869 ;; Tracked objects:
  7870 ;;		On entry : 0/0
  7871 ;;		On exit  : 0/0
  7872 ;;		Unchanged: 0/0
  7873 ;; Data sizes:     COMRAM   BANK0   BANK1   BANK2   BANK3   BANK4   BANK5   BANK6   BANK7   BANK8   BANK9  BANK10  BANK1
      +1  BANK12  BANK13  BANK14
  7874 ;;      Params:         0       0       0       0       0       0       0       0       0       0       0       0       
      +0       0       0       0
  7875 ;;      Locals:         0       0       0       0       0       0       0       0       0       0       0       0       
      +0       0       0       0
  7876 ;;      Temps:          0       0       0       0       0       0       0       0       0       0       0       0       
      +0       0       0       0
  7877 ;;      Totals:         0       0       0       0       0       0       0       0       0       0       0       0       
      +0       0       0       0
  7878 ;;Total ram usage:        0 bytes
  7879 ;; Hardware stack levels used: 1
  7880 ;; Hardware stack levels required when called: 4
  7881 ;; This function calls:
  7882 ;;		Nothing
  7883 ;; This function is called by:
  7884 ;;		_I2C1_Close
  7885 ;;		_I2C1_SetTimeOut
  7886 ;; This function uses a non-reentrant model
  7887 ;;
  7888                           
  7889                           	psect	text69
  7890  011C66                     __ptext69:
  7891                           	callstack 0
  7892  011C66                     _I2C1_MasterDisableIrq:
  7893                           	callstack 20
  7894  011C66                     
  7895                           ;mcc_generated_files/i2c1_master.c: 639:     PIE3bits.SSP1IE = 0;
  7896  011C66  010E               	movlb	14	; () banked
  7897  011C68  91C5               	bcf	197,0,b	;volatile
  7898  011C6A                     
  7899                           ; BSR set to: 14
  7900  011C6A  0012               	return		;funcret
  7901  011C6C                     __end_of_I2C1_MasterDisableIrq:
  7902                           	callstack 0
  7903                           
  7904 ;; *************** function _I2C1_MasterClose *****************
  7905 ;; Defined at:
  7906 ;;		line 559 in file "mcc_generated_files/i2c1_master.c"
  7907 ;; Parameters:    Size  Location     Type
  7908 ;;		None
  7909 ;; Auto vars:     Size  Location     Type
  7910 ;;		None
  7911 ;; Return value:  Size  Location     Type
  7912 ;;                  1    wreg      void 
  7913 ;; Registers used:
  7914 ;;		None
  7915 ;; Tracked objects:
  7916 ;;		On entry : 0/0
  7917 ;;		On exit  : 0/0
  7918 ;;		Unchanged: 0/0
  7919 ;; Data sizes:     COMRAM   BANK0   BANK1   BANK2   BANK3   BANK4   BANK5   BANK6   BANK7   BANK8   BANK9  BANK10  BANK1
      +1  BANK12  BANK13  BANK14
  7920 ;;      Params:         0       0       0       0       0       0       0       0       0       0       0       0       
      +0       0       0       0
  7921 ;;      Locals:         0       0       0       0       0       0       0       0       0       0       0       0       
      +0       0       0       0
  7922 ;;      Temps:          0       0       0       0       0       0       0       0       0       0       0       0       
      +0       0       0       0
  7923 ;;      Totals:         0       0       0       0       0       0       0       0       0       0       0       0       
      +0       0       0       0
  7924 ;;Total ram usage:        0 bytes
  7925 ;; Hardware stack levels used: 1
  7926 ;; Hardware stack levels required when called: 4
  7927 ;; This function calls:
  7928 ;;		Nothing
  7929 ;; This function is called by:
  7930 ;;		_I2C1_Close
  7931 ;; This function uses a non-reentrant model
  7932 ;;
  7933                           
  7934                           	psect	text70
  7935  011C8E                     __ptext70:
  7936                           	callstack 0
  7937  011C8E                     _I2C1_MasterClose:
  7938                           	callstack 20
  7939  011C8E                     
  7940                           ;mcc_generated_files/i2c1_master.c: 562:     SSP1CON1bits.SSPEN = 0;
  7941  011C8E  9A96               	bcf	150,5,c	;volatile
  7942  011C90  0012               	return		;funcret
  7943  011C92                     __end_of_I2C1_MasterClose:
  7944                           	callstack 0
  7945                           
  7946 ;; *************** function _I2C1_MasterClearIrq *****************
  7947 ;; Defined at:
  7948 ;;		line 642 in file "mcc_generated_files/i2c1_master.c"
  7949 ;; Parameters:    Size  Location     Type
  7950 ;;		None
  7951 ;; Auto vars:     Size  Location     Type
  7952 ;;		None
  7953 ;; Return value:  Size  Location     Type
  7954 ;;                  1    wreg      void 
  7955 ;; Registers used:
  7956 ;;		None
  7957 ;; Tracked objects:
  7958 ;;		On entry : 0/0
  7959 ;;		On exit  : 0/0
  7960 ;;		Unchanged: 0/0
  7961 ;; Data sizes:     COMRAM   BANK0   BANK1   BANK2   BANK3   BANK4   BANK5   BANK6   BANK7   BANK8   BANK9  BANK10  BANK1
      +1  BANK12  BANK13  BANK14
  7962 ;;      Params:         0       0       0       0       0       0       0       0       0       0       0       0       
      +0       0       0       0
  7963 ;;      Locals:         0       0       0       0       0       0       0       0       0       0       0       0       
      +0       0       0       0
  7964 ;;      Temps:          0       0       0       0       0       0       0       0       0       0       0       0       
      +0       0       0       0
  7965 ;;      Totals:         0       0       0       0       0       0       0       0       0       0       0       0       
      +0       0       0       0
  7966 ;;Total ram usage:        0 bytes
  7967 ;; Hardware stack levels used: 1
  7968 ;; Hardware stack levels required when called: 4
  7969 ;; This function calls:
  7970 ;;		Nothing
  7971 ;; This function is called by:
  7972 ;;		_I2C1_Open
  7973 ;;		_I2C1_Close
  7974 ;;		_I2C1_MasterFsm
  7975 ;; This function uses a non-reentrant model
  7976 ;;
  7977                           
  7978                           	psect	text71
  7979  011C6C                     __ptext71:
  7980                           	callstack 0
  7981  011C6C                     _I2C1_MasterClearIrq:
  7982                           	callstack 20
  7983  011C6C                     
  7984                           ;mcc_generated_files/i2c1_master.c: 644:     PIR3bits.SSP1IF = 0;
  7985  011C6C  010E               	movlb	14	; () banked
  7986  011C6E  91CD               	bcf	205,0,b	;volatile
  7987  011C70                     
  7988                           ; BSR set to: 14
  7989  011C70  0012               	return		;funcret
  7990  011C72                     __end_of_I2C1_MasterClearIrq:
  7991                           	callstack 0
  7992                           
  7993 ;; *************** function _processDRV *****************
  7994 ;; Defined at:
  7995 ;;		line 83 in file "rtcdrv.c"
  7996 ;; Parameters:    Size  Location     Type
  7997 ;;  cmd             1    wreg     unsigned char 
  7998 ;;  argCount        1    4[COMRAM] unsigned char 
  7999 ;; Auto vars:     Size  Location     Type
  8000 ;;  cmd             1    0[COMRAM] unsigned char 
  8001 ;; Return value:  Size  Location     Type
  8002 ;;                  1    wreg      void 
  8003 ;; Registers used:
  8004 ;;		wreg
  8005 ;; Tracked objects:
  8006 ;;		On entry : 0/0
  8007 ;;		On exit  : 0/0
  8008 ;;		Unchanged: 0/0
  8009 ;; Data sizes:     COMRAM   BANK0   BANK1   BANK2   BANK3   BANK4   BANK5   BANK6   BANK7   BANK8   BANK9  BANK10  BANK1
      +1  BANK12  BANK13  BANK14
  8010 ;;      Params:         1       0       0       0       0       0       0       0       0       0       0       0       
      +0       0       0       0
  8011 ;;      Locals:         0       0       0       0       0       0       0       0       0       0       0       0       
      +0       0       0       0
  8012 ;;      Temps:          0       0       0       0       0       0       0       0       0       0       0       0       
      +0       0       0       0
  8013 ;;      Totals:         1       0       0       0       0       0       0       0       0       0       0       0       
      +0       0       0       0
  8014 ;;Total ram usage:        1 bytes
  8015 ;; Hardware stack levels used: 1
  8016 ;; Hardware stack levels required when called: 4
  8017 ;; This function calls:
  8018 ;;		Nothing
  8019 ;; This function is called by:
  8020 ;;		_rtcdrv_poll
  8021 ;; This function uses a non-reentrant model
  8022 ;;
  8023                           
  8024                           	psect	text72
  8025  011C9A                     __ptext72:
  8026                           	callstack 0
  8027  011C9A                     _processDRV:
  8028                           	callstack 25
  8029  011C9A  0012               	return		;funcret
  8030  011C9C                     __end_of_processDRV:
  8031                           	callstack 0
  8032                           
  8033 ;; *************** function _TMR0_StartTimer *****************
  8034 ;; Defined at:
  8035 ;;		line 87 in file "mcc_generated_files/tmr0.c"
  8036 ;; Parameters:    Size  Location     Type
  8037 ;;		None
  8038 ;; Auto vars:     Size  Location     Type
  8039 ;;		None
  8040 ;; Return value:  Size  Location     Type
  8041 ;;                  1    wreg      void 
  8042 ;; Registers used:
  8043 ;;		None
  8044 ;; Tracked objects:
  8045 ;;		On entry : 0/0
  8046 ;;		On exit  : 0/0
  8047 ;;		Unchanged: 0/0
  8048 ;; Data sizes:     COMRAM   BANK0   BANK1   BANK2   BANK3   BANK4   BANK5   BANK6   BANK7   BANK8   BANK9  BANK10  BANK1
      +1  BANK12  BANK13  BANK14
  8049 ;;      Params:         0       0       0       0       0       0       0       0       0       0       0       0       
      +0       0       0       0
  8050 ;;      Locals:         0       0       0       0       0       0       0       0       0       0       0       0       
      +0       0       0       0
  8051 ;;      Temps:          0       0       0       0       0       0       0       0       0       0       0       0       
      +0       0       0       0
  8052 ;;      Totals:         0       0       0       0       0       0       0       0       0       0       0       0       
      +0       0       0       0
  8053 ;;Total ram usage:        0 bytes
  8054 ;; Hardware stack levels used: 1
  8055 ;; Hardware stack levels required when called: 4
  8056 ;; This function calls:
  8057 ;;		Nothing
  8058 ;; This function is called by:
  8059 ;;		_main
  8060 ;; This function uses a non-reentrant model
  8061 ;;
  8062                           
  8063                           	psect	text73
  8064  011C92                     __ptext73:
  8065                           	callstack 0
  8066  011C92                     _TMR0_StartTimer:
  8067                           	callstack 26
  8068  011C92                     
  8069                           ;mcc_generated_files/tmr0.c: 90:     T0CON0bits.T0EN = 1;
  8070  011C92  8ED5               	bsf	213,7,c	;volatile
  8071  011C94  0012               	return		;funcret
  8072  011C96                     __end_of_TMR0_StartTimer:
  8073                           	callstack 0
  8074                           
  8075 ;; *************** function _SYSTEM_Initialize *****************
  8076 ;; Defined at:
  8077 ;;		line 50 in file "mcc_generated_files/mcc.c"
  8078 ;; Parameters:    Size  Location     Type
  8079 ;;		None
  8080 ;; Auto vars:     Size  Location     Type
  8081 ;;		None
  8082 ;; Return value:  Size  Location     Type
  8083 ;;                  1    wreg      void 
  8084 ;; Registers used:
  8085 ;;		wreg, status,2, status,0, cstack
  8086 ;; Tracked objects:
  8087 ;;		On entry : 0/0
  8088 ;;		On exit  : 0/0
  8089 ;;		Unchanged: 0/0
  8090 ;; Data sizes:     COMRAM   BANK0   BANK1   BANK2   BANK3   BANK4   BANK5   BANK6   BANK7   BANK8   BANK9  BANK10  BANK1
      +1  BANK12  BANK13  BANK14
  8091 ;;      Params:         0       0       0       0       0       0       0       0       0       0       0       0       
      +0       0       0       0
  8092 ;;      Locals:         0       0       0       0       0       0       0       0       0       0       0       0       
      +0       0       0       0
  8093 ;;      Temps:          0       0       0       0       0       0       0       0       0       0       0       0       
      +0       0       0       0
  8094 ;;      Totals:         0       0       0       0       0       0       0       0       0       0       0       0       
      +0       0       0       0
  8095 ;;Total ram usage:        0 bytes
  8096 ;; Hardware stack levels used: 1
  8097 ;; Hardware stack levels required when called: 6
  8098 ;; This function calls:
  8099 ;;		_I2C1_Initialize
  8100 ;;		_INTERRUPT_Initialize
  8101 ;;		_OSCILLATOR_Initialize
  8102 ;;		_PIN_MANAGER_Initialize
  8103 ;;		_PMD_Initialize
  8104 ;;		_SPI2_Initialize
  8105 ;;		_TMR0_Initialize
  8106 ;; This function is called by:
  8107 ;;		_main
  8108 ;; This function uses a non-reentrant model
  8109 ;;
  8110                           
  8111                           	psect	text74
  8112  011AC4                     __ptext74:
  8113                           	callstack 0
  8114  011AC4                     _SYSTEM_Initialize:
  8115                           	callstack 24
  8116  011AC4                     
  8117                           ;mcc_generated_files/mcc.c: 52:     INTERRUPT_Initialize();
  8118  011AC4  EC4B  F08E         	call	_INTERRUPT_Initialize	;wreg free
  8119  011AC8                     
  8120                           ;mcc_generated_files/mcc.c: 53:     PMD_Initialize();
  8121  011AC8  EC8D  F08D         	call	_PMD_Initialize	;wreg free
  8122  011ACC                     
  8123                           ;mcc_generated_files/mcc.c: 54:     I2C1_Initialize();
  8124  011ACC  ECA7  F08D         	call	_I2C1_Initialize	;wreg free
  8125  011AD0                     
  8126                           ;mcc_generated_files/mcc.c: 55:     SPI2_Initialize();
  8127  011AD0  EC30  F08D         	call	_SPI2_Initialize	;wreg free
  8128  011AD4                     
  8129                           ;mcc_generated_files/mcc.c: 56:     PIN_MANAGER_Initialize();
  8130  011AD4  ECBC  F08A         	call	_PIN_MANAGER_Initialize	;wreg free
  8131  011AD8                     
  8132                           ;mcc_generated_files/mcc.c: 57:     OSCILLATOR_Initialize();
  8133  011AD8  EC9B  F08D         	call	_OSCILLATOR_Initialize	;wreg free
  8134  011ADC                     
  8135                           ;mcc_generated_files/mcc.c: 58:     TMR0_Initialize();
  8136  011ADC  ECE4  F08C         	call	_TMR0_Initialize	;wreg free
  8137  011AE0  0012               	return		;funcret
  8138  011AE2                     __end_of_SYSTEM_Initialize:
  8139                           	callstack 0
  8140                           
  8141 ;; *************** function _TMR0_Initialize *****************
  8142 ;; Defined at:
  8143 ;;		line 61 in file "mcc_generated_files/tmr0.c"
  8144 ;; Parameters:    Size  Location     Type
  8145 ;;		None
  8146 ;; Auto vars:     Size  Location     Type
  8147 ;;		None
  8148 ;; Return value:  Size  Location     Type
  8149 ;;                  1    wreg      void 
  8150 ;; Registers used:
  8151 ;;		wreg, status,2, status,0, cstack
  8152 ;; Tracked objects:
  8153 ;;		On entry : 0/0
  8154 ;;		On exit  : 0/0
  8155 ;;		Unchanged: 0/0
  8156 ;; Data sizes:     COMRAM   BANK0   BANK1   BANK2   BANK3   BANK4   BANK5   BANK6   BANK7   BANK8   BANK9  BANK10  BANK1
      +1  BANK12  BANK13  BANK14
  8157 ;;      Params:         0       0       0       0       0       0       0       0       0       0       0       0       
      +0       0       0       0
  8158 ;;      Locals:         0       0       0       0       0       0       0       0       0       0       0       0       
      +0       0       0       0
  8159 ;;      Temps:          0       0       0       0       0       0       0       0       0       0       0       0       
      +0       0       0       0
  8160 ;;      Totals:         0       0       0       0       0       0       0       0       0       0       0       0       
      +0       0       0       0
  8161 ;;Total ram usage:        0 bytes
  8162 ;; Hardware stack levels used: 1
  8163 ;; Hardware stack levels required when called: 5
  8164 ;; This function calls:
  8165 ;;		_TMR0_SetInterruptHandler
  8166 ;; This function is called by:
  8167 ;;		_SYSTEM_Initialize
  8168 ;; This function uses a non-reentrant model
  8169 ;;
  8170                           
  8171                           	psect	text75
  8172  0119C8                     __ptext75:
  8173                           	callstack 0
  8174  0119C8                     _TMR0_Initialize:
  8175                           	callstack 24
  8176  0119C8                     
  8177                           ;mcc_generated_files/tmr0.c: 66:     T0CON1 = 0x80;
  8178  0119C8  0E80               	movlw	128
  8179  0119CA  6ED6               	movwf	214,c	;volatile
  8180                           
  8181                           ;mcc_generated_files/tmr0.c: 69:     TMR0H = 0x1E;
  8182  0119CC  0E1E               	movlw	30
  8183  0119CE  6ED4               	movwf	212,c	;volatile
  8184                           
  8185                           ;mcc_generated_files/tmr0.c: 72:     TMR0L = 0x00;
  8186  0119D0  0E00               	movlw	0
  8187  0119D2  6ED3               	movwf	211,c	;volatile
  8188  0119D4                     
  8189                           ;mcc_generated_files/tmr0.c: 75:     PIR0bits.TMR0IF = 0;
  8190  0119D4  010E               	movlb	14	; () banked
  8191  0119D6  9BCA               	bcf	202,5,b	;volatile
  8192  0119D8                     
  8193                           ; BSR set to: 14
  8194                           ;mcc_generated_files/tmr0.c: 78:     PIE0bits.TMR0IE = 1;
  8195  0119D8  8BC2               	bsf	194,5,b	;volatile
  8196  0119DA                     
  8197                           ; BSR set to: 14
  8198                           ;mcc_generated_files/tmr0.c: 81:     TMR0_SetInterruptHandler(TMR0_DefaultInterruptHandl
      +                          er);
  8199  0119DA  0E9C               	movlw	low _TMR0_DefaultInterruptHandler
  8200  0119DC  6E05               	movwf	TMR0_SetInterruptHandler@InterruptHandler^0,c
  8201  0119DE  0E1C               	movlw	high _TMR0_DefaultInterruptHandler
  8202  0119E0  6E06               	movwf	(TMR0_SetInterruptHandler@InterruptHandler+1)^0,c
  8203  0119E2  0E01               	movlw	low (_TMR0_DefaultInterruptHandler shr (0+16))
  8204  0119E4  6E07               	movwf	(TMR0_SetInterruptHandler@InterruptHandler+2)^0,c
  8205  0119E6  ECE1  F08D         	call	_TMR0_SetInterruptHandler	;wreg free
  8206  0119EA                     
  8207                           ;mcc_generated_files/tmr0.c: 84:     T0CON0 = 0x80;
  8208  0119EA  0E80               	movlw	128
  8209  0119EC  6ED5               	movwf	213,c	;volatile
  8210  0119EE  0012               	return		;funcret
  8211  0119F0                     __end_of_TMR0_Initialize:
  8212                           	callstack 0
  8213                           
  8214 ;; *************** function _TMR0_SetInterruptHandler *****************
  8215 ;; Defined at:
  8216 ;;		line 142 in file "mcc_generated_files/tmr0.c"
  8217 ;; Parameters:    Size  Location     Type
  8218 ;;  InterruptHan    3    4[COMRAM] PTR FTN()void 
  8219 ;;		 -> TMR0_DefaultInterruptHandler(1), DRVA_TMR_ms(1), 
  8220 ;; Auto vars:     Size  Location     Type
  8221 ;;		None
  8222 ;; Return value:  Size  Location     Type
  8223 ;;                  1    wreg      void 
  8224 ;; Registers used:
  8225 ;;		wreg, status,2, status,0
  8226 ;; Tracked objects:
  8227 ;;		On entry : 0/0
  8228 ;;		On exit  : 0/0
  8229 ;;		Unchanged: 0/0
  8230 ;; Data sizes:     COMRAM   BANK0   BANK1   BANK2   BANK3   BANK4   BANK5   BANK6   BANK7   BANK8   BANK9  BANK10  BANK1
      +1  BANK12  BANK13  BANK14
  8231 ;;      Params:         3       0       0       0       0       0       0       0       0       0       0       0       
      +0       0       0       0
  8232 ;;      Locals:         0       0       0       0       0       0       0       0       0       0       0       0       
      +0       0       0       0
  8233 ;;      Temps:          0       0       0       0       0       0       0       0       0       0       0       0       
      +0       0       0       0
  8234 ;;      Totals:         3       0       0       0       0       0       0       0       0       0       0       0       
      +0       0       0       0
  8235 ;;Total ram usage:        3 bytes
  8236 ;; Hardware stack levels used: 1
  8237 ;; Hardware stack levels required when called: 4
  8238 ;; This function calls:
  8239 ;;		Nothing
  8240 ;; This function is called by:
  8241 ;;		_TMR0_Initialize
  8242 ;;		_main
  8243 ;; This function uses a non-reentrant model
  8244 ;;
  8245                           
  8246                           	psect	text76
  8247  011BC2                     __ptext76:
  8248                           	callstack 0
  8249  011BC2                     _TMR0_SetInterruptHandler:
  8250                           	callstack 26
  8251  011BC2                     
  8252                           ;mcc_generated_files/tmr0.c: 143:     TMR0_InterruptHandler = InterruptHandler;
  8253  011BC2  C005  F0FC         	movff	TMR0_SetInterruptHandler@InterruptHandler,_TMR0_InterruptHandler
  8254  011BC6  C006  F0FD         	movff	TMR0_SetInterruptHandler@InterruptHandler+1,_TMR0_InterruptHandler+1
  8255  011BCA  C007  F0FE         	movff	TMR0_SetInterruptHandler@InterruptHandler+2,_TMR0_InterruptHandler+2
  8256  011BCE  0012               	return		;funcret
  8257  011BD0                     __end_of_TMR0_SetInterruptHandler:
  8258                           	callstack 0
  8259                           
  8260 ;; *************** function _SPI2_Initialize *****************
  8261 ;; Defined at:
  8262 ;;		line 62 in file "mcc_generated_files/spi2.c"
  8263 ;; Parameters:    Size  Location     Type
  8264 ;;		None
  8265 ;; Auto vars:     Size  Location     Type
  8266 ;;		None
  8267 ;; Return value:  Size  Location     Type
  8268 ;;                  1    wreg      void 
  8269 ;; Registers used:
  8270 ;;		wreg, status,2
  8271 ;; Tracked objects:
  8272 ;;		On entry : 0/0
  8273 ;;		On exit  : 0/0
  8274 ;;		Unchanged: 0/0
  8275 ;; Data sizes:     COMRAM   BANK0   BANK1   BANK2   BANK3   BANK4   BANK5   BANK6   BANK7   BANK8   BANK9  BANK10  BANK1
      +1  BANK12  BANK13  BANK14
  8276 ;;      Params:         0       0       0       0       0       0       0       0       0       0       0       0       
      +0       0       0       0
  8277 ;;      Locals:         0       0       0       0       0       0       0       0       0       0       0       0       
      +0       0       0       0
  8278 ;;      Temps:          0       0       0       0       0       0       0       0       0       0       0       0       
      +0       0       0       0
  8279 ;;      Totals:         0       0       0       0       0       0       0       0       0       0       0       0       
      +0       0       0       0
  8280 ;;Total ram usage:        0 bytes
  8281 ;; Hardware stack levels used: 1
  8282 ;; Hardware stack levels required when called: 4
  8283 ;; This function calls:
  8284 ;;		Nothing
  8285 ;; This function is called by:
  8286 ;;		_SYSTEM_Initialize
  8287 ;; This function uses a non-reentrant model
  8288 ;;
  8289                           
  8290                           	psect	text77
  8291  011A60                     __ptext77:
  8292                           	callstack 0
  8293  011A60                     _SPI2_Initialize:
  8294                           	callstack 25
  8295  011A60                     
  8296                           ;mcc_generated_files/spi2.c: 65:     SSP2CLKPPS = 9;
  8297  011A60  0E09               	movlw	9
  8298  011A62  010E               	movlb	14	; () banked
  8299  011A64  6F8F               	movwf	143,b	;volatile
  8300                           
  8301                           ;mcc_generated_files/spi2.c: 66:     SSP2DATPPS = 10;
  8302  011A66  0E0A               	movlw	10
  8303  011A68  6F90               	movwf	144,b	;volatile
  8304                           
  8305                           ;mcc_generated_files/spi2.c: 67:     RB1PPS = 17;
  8306  011A6A  0E11               	movlw	17
  8307  011A6C  6FF0               	movwf	240,b	;volatile
  8308                           
  8309                           ;mcc_generated_files/spi2.c: 68:     RB3PPS = 18;
  8310  011A6E  0E12               	movlw	18
  8311  011A70  6FF2               	movwf	242,b	;volatile
  8312                           
  8313                           ;mcc_generated_files/spi2.c: 70:     SSP2STAT = 0x40;
  8314  011A72  0E40               	movlw	64
  8315  011A74  6F95               	movwf	149,b	;volatile
  8316                           
  8317                           ;mcc_generated_files/spi2.c: 71:     SSP2CON1 = 0x0A;
  8318  011A76  0E0A               	movlw	10
  8319  011A78  6F96               	movwf	150,b	;volatile
  8320                           
  8321                           ;mcc_generated_files/spi2.c: 72:     SSP2ADD = 0x9F;
  8322  011A7A  0E9F               	movlw	159
  8323  011A7C  6F93               	movwf	147,b	;volatile
  8324  011A7E                     
  8325                           ; BSR set to: 14
  8326                           ;mcc_generated_files/spi2.c: 73:     TRISBbits.TRISB1 = 0;
  8327  011A7E  9289               	bcf	137,1,c	;volatile
  8328  011A80                     
  8329                           ; BSR set to: 14
  8330                           ;mcc_generated_files/spi2.c: 74:     SSP2CON1bits.SSPEN = 0;
  8331  011A80  9B96               	bcf	150,5,b	;volatile
  8332  011A82                     
  8333                           ; BSR set to: 14
  8334  011A82  0012               	return		;funcret
  8335  011A84                     __end_of_SPI2_Initialize:
  8336                           	callstack 0
  8337                           
  8338 ;; *************** function _PMD_Initialize *****************
  8339 ;; Defined at:
  8340 ;;		line 75 in file "mcc_generated_files/mcc.c"
  8341 ;; Parameters:    Size  Location     Type
  8342 ;;		None
  8343 ;; Auto vars:     Size  Location     Type
  8344 ;;		None
  8345 ;; Return value:  Size  Location     Type
  8346 ;;                  1    wreg      void 
  8347 ;; Registers used:
  8348 ;;		wreg, status,2
  8349 ;; Tracked objects:
  8350 ;;		On entry : 0/0
  8351 ;;		On exit  : 0/0
  8352 ;;		Unchanged: 0/0
  8353 ;; Data sizes:     COMRAM   BANK0   BANK1   BANK2   BANK3   BANK4   BANK5   BANK6   BANK7   BANK8   BANK9  BANK10  BANK1
      +1  BANK12  BANK13  BANK14
  8354 ;;      Params:         0       0       0       0       0       0       0       0       0       0       0       0       
      +0       0       0       0
  8355 ;;      Locals:         0       0       0       0       0       0       0       0       0       0       0       0       
      +0       0       0       0
  8356 ;;      Temps:          0       0       0       0       0       0       0       0       0       0       0       0       
      +0       0       0       0
  8357 ;;      Totals:         0       0       0       0       0       0       0       0       0       0       0       0       
      +0       0       0       0
  8358 ;;Total ram usage:        0 bytes
  8359 ;; Hardware stack levels used: 1
  8360 ;; Hardware stack levels required when called: 4
  8361 ;; This function calls:
  8362 ;;		Nothing
  8363 ;; This function is called by:
  8364 ;;		_SYSTEM_Initialize
  8365 ;; This function uses a non-reentrant model
  8366 ;;
  8367                           
  8368                           	psect	text78
  8369  011B1A                     __ptext78:
  8370                           	callstack 0
  8371  011B1A                     _PMD_Initialize:
  8372                           	callstack 25
  8373  011B1A                     
  8374                           ;mcc_generated_files/mcc.c: 78:     PMD0 = 0x00;
  8375  011B1A  0E00               	movlw	0
  8376  011B1C  010E               	movlb	14	; () banked
  8377  011B1E  6FE1               	movwf	225,b	;volatile
  8378                           
  8379                           ;mcc_generated_files/mcc.c: 80:     PMD1 = 0x00;
  8380  011B20  0E00               	movlw	0
  8381  011B22  6FE2               	movwf	226,b	;volatile
  8382                           
  8383                           ;mcc_generated_files/mcc.c: 82:     PMD2 = 0x00;
  8384  011B24  0E00               	movlw	0
  8385  011B26  6FE3               	movwf	227,b	;volatile
  8386                           
  8387                           ;mcc_generated_files/mcc.c: 84:     PMD3 = 0x00;
  8388  011B28  0E00               	movlw	0
  8389  011B2A  6FE4               	movwf	228,b	;volatile
  8390                           
  8391                           ;mcc_generated_files/mcc.c: 86:     PMD4 = 0x00;
  8392  011B2C  0E00               	movlw	0
  8393  011B2E  6FE5               	movwf	229,b	;volatile
  8394                           
  8395                           ;mcc_generated_files/mcc.c: 88:     PMD5 = 0x00;
  8396  011B30  0E00               	movlw	0
  8397  011B32  6FE6               	movwf	230,b	;volatile
  8398  011B34                     
  8399                           ; BSR set to: 14
  8400  011B34  0012               	return		;funcret
  8401  011B36                     __end_of_PMD_Initialize:
  8402                           	callstack 0
  8403                           
  8404 ;; *************** function _PIN_MANAGER_Initialize *****************
  8405 ;; Defined at:
  8406 ;;		line 55 in file "mcc_generated_files/pin_manager.c"
  8407 ;; Parameters:    Size  Location     Type
  8408 ;;		None
  8409 ;; Auto vars:     Size  Location     Type
  8410 ;;		None
  8411 ;; Return value:  Size  Location     Type
  8412 ;;                  1    wreg      void 
  8413 ;; Registers used:
  8414 ;;		wreg, status,2
  8415 ;; Tracked objects:
  8416 ;;		On entry : 0/0
  8417 ;;		On exit  : 0/0
  8418 ;;		Unchanged: 0/0
  8419 ;; Data sizes:     COMRAM   BANK0   BANK1   BANK2   BANK3   BANK4   BANK5   BANK6   BANK7   BANK8   BANK9  BANK10  BANK1
      +1  BANK12  BANK13  BANK14
  8420 ;;      Params:         0       0       0       0       0       0       0       0       0       0       0       0       
      +0       0       0       0
  8421 ;;      Locals:         0       0       0       0       0       0       0       0       0       0       0       0       
      +0       0       0       0
  8422 ;;      Temps:          0       0       0       0       0       0       0       0       0       0       0       0       
      +0       0       0       0
  8423 ;;      Totals:         0       0       0       0       0       0       0       0       0       0       0       0       
      +0       0       0       0
  8424 ;;Total ram usage:        0 bytes
  8425 ;; Hardware stack levels used: 1
  8426 ;; Hardware stack levels required when called: 4
  8427 ;; This function calls:
  8428 ;;		Nothing
  8429 ;; This function is called by:
  8430 ;;		_SYSTEM_Initialize
  8431 ;; This function uses a non-reentrant model
  8432 ;;
  8433                           
  8434                           	psect	text79
  8435  011578                     __ptext79:
  8436                           	callstack 0
  8437  011578                     _PIN_MANAGER_Initialize:
  8438                           	callstack 25
  8439  011578                     
  8440                           ;mcc_generated_files/pin_manager.c: 60:     LATA = 0x00;
  8441  011578  0E00               	movlw	0
  8442  01157A  6E83               	movwf	131,c	;volatile
  8443                           
  8444                           ;mcc_generated_files/pin_manager.c: 61:     LATB = 0x10;
  8445  01157C  0E10               	movlw	16
  8446  01157E  6E84               	movwf	132,c	;volatile
  8447                           
  8448                           ;mcc_generated_files/pin_manager.c: 62:     LATC = 0x19;
  8449  011580  0E19               	movlw	25
  8450  011582  6E85               	movwf	133,c	;volatile
  8451  011584                     
  8452                           ;mcc_generated_files/pin_manager.c: 67:     TRISA = 0xFF;
  8453  011584  6888               	setf	136,c	;volatile
  8454                           
  8455                           ;mcc_generated_files/pin_manager.c: 68:     TRISB = 0xE5;
  8456  011586  0EE5               	movlw	229
  8457  011588  6E89               	movwf	137,c	;volatile
  8458                           
  8459                           ;mcc_generated_files/pin_manager.c: 69:     TRISC = 0xFE;
  8460  01158A  0EFE               	movlw	254
  8461  01158C  6E8A               	movwf	138,c	;volatile
  8462                           
  8463                           ;mcc_generated_files/pin_manager.c: 74:     ANSELC = 0xE4;
  8464  01158E  0EE4               	movlw	228
  8465  011590  010F               	movlb	15	; () banked
  8466  011592  6F21               	movwf	33,b	;volatile
  8467                           
  8468                           ;mcc_generated_files/pin_manager.c: 75:     ANSELB = 0xC1;
  8469  011594  0EC1               	movlw	193
  8470  011596  6F19               	movwf	25,b	;volatile
  8471                           
  8472                           ;mcc_generated_files/pin_manager.c: 76:     ANSELA = 0x00;
  8473  011598  0E00               	movlw	0
  8474  01159A  6F11               	movwf	17,b	;volatile
  8475                           
  8476                           ;mcc_generated_files/pin_manager.c: 81:     WPUE = 0x00;
  8477  01159C  0E00               	movlw	0
  8478  01159E  6F2D               	movwf	45,b	;volatile
  8479                           
  8480                           ;mcc_generated_files/pin_manager.c: 82:     WPUB = 0x00;
  8481  0115A0  0E00               	movlw	0
  8482  0115A2  6F18               	movwf	24,b	;volatile
  8483                           
  8484                           ;mcc_generated_files/pin_manager.c: 83:     WPUA = 0x00;
  8485  0115A4  0E00               	movlw	0
  8486  0115A6  6F10               	movwf	16,b	;volatile
  8487                           
  8488                           ;mcc_generated_files/pin_manager.c: 84:     WPUC = 0x00;
  8489  0115A8  0E00               	movlw	0
  8490  0115AA  6F20               	movwf	32,b	;volatile
  8491                           
  8492                           ;mcc_generated_files/pin_manager.c: 89:     ODCONA = 0x00;
  8493  0115AC  0E00               	movlw	0
  8494  0115AE  6F0F               	movwf	15,b	;volatile
  8495                           
  8496                           ;mcc_generated_files/pin_manager.c: 90:     ODCONB = 0x00;
  8497  0115B0  0E00               	movlw	0
  8498  0115B2  6F17               	movwf	23,b	;volatile
  8499                           
  8500                           ;mcc_generated_files/pin_manager.c: 91:     ODCONC = 0x00;
  8501  0115B4  0E00               	movlw	0
  8502  0115B6  6F1F               	movwf	31,b	;volatile
  8503  0115B8                     
  8504                           ; BSR set to: 15
  8505                           ;mcc_generated_files/pin_manager.c: 96:     SLRCONA = 0xFF;
  8506  0115B8  690E               	setf	14,b	;volatile
  8507  0115BA                     
  8508                           ; BSR set to: 15
  8509                           ;mcc_generated_files/pin_manager.c: 97:     SLRCONB = 0xFF;
  8510  0115BA  6916               	setf	22,b	;volatile
  8511  0115BC                     
  8512                           ; BSR set to: 15
  8513                           ;mcc_generated_files/pin_manager.c: 98:     SLRCONC = 0xFF;
  8514  0115BC  691E               	setf	30,b	;volatile
  8515  0115BE                     
  8516                           ; BSR set to: 15
  8517                           ;mcc_generated_files/pin_manager.c: 103:     INLVLA = 0xFF;
  8518  0115BE  690D               	setf	13,b	;volatile
  8519  0115C0                     
  8520                           ; BSR set to: 15
  8521                           ;mcc_generated_files/pin_manager.c: 104:     INLVLB = 0xFF;
  8522  0115C0  6915               	setf	21,b	;volatile
  8523  0115C2                     
  8524                           ; BSR set to: 15
  8525                           ;mcc_generated_files/pin_manager.c: 105:     INLVLC = 0xFF;
  8526  0115C2  691D               	setf	29,b	;volatile
  8527                           
  8528                           ;mcc_generated_files/pin_manager.c: 106:     INLVLE = 0x08;
  8529  0115C4  0E08               	movlw	8
  8530  0115C6  6F2A               	movwf	42,b	;volatile
  8531  0115C8                     
  8532                           ; BSR set to: 15
  8533                           ;mcc_generated_files/pin_manager.c: 114:     PIE0bits.IOCIE = 1;
  8534  0115C8  010E               	movlb	14	; () banked
  8535  0115CA  89C2               	bsf	194,4,b	;volatile
  8536                           
  8537                           ;mcc_generated_files/pin_manager.c: 117:     SSP2DATPPS = 0x0A;
  8538  0115CC  0E0A               	movlw	10
  8539  0115CE  6F90               	movwf	144,b	;volatile
  8540                           
  8541                           ;mcc_generated_files/pin_manager.c: 118:     SSP1CLKPPS = 0x13;
  8542  0115D0  0E13               	movlw	19
  8543  0115D2  6FB7               	movwf	183,b	;volatile
  8544                           
  8545                           ;mcc_generated_files/pin_manager.c: 119:     RB1PPS = 0x11;
  8546  0115D4  0E11               	movlw	17
  8547  0115D6  6FF0               	movwf	240,b	;volatile
  8548                           
  8549                           ;mcc_generated_files/pin_manager.c: 120:     RC3PPS = 0x0F;
  8550  0115D8  0E0F               	movlw	15
  8551  0115DA  6FFA               	movwf	250,b	;volatile
  8552                           
  8553                           ;mcc_generated_files/pin_manager.c: 121:     RC4PPS = 0x10;
  8554  0115DC  0E10               	movlw	16
  8555  0115DE  6FFB               	movwf	251,b	;volatile
  8556                           
  8557                           ;mcc_generated_files/pin_manager.c: 122:     RB3PPS = 0x12;
  8558  0115E0  0E12               	movlw	18
  8559  0115E2  6FF2               	movwf	242,b	;volatile
  8560                           
  8561                           ;mcc_generated_files/pin_manager.c: 123:     SSP1DATPPS = 0x14;
  8562  0115E4  0E14               	movlw	20
  8563  0115E6  6FB8               	movwf	184,b	;volatile
  8564                           
  8565                           ;mcc_generated_files/pin_manager.c: 124:     SSP2CLKPPS = 0x09;
  8566  0115E8  0E09               	movlw	9
  8567  0115EA  6F8F               	movwf	143,b	;volatile
  8568  0115EC                     
  8569                           ; BSR set to: 14
  8570  0115EC  0012               	return		;funcret
  8571  0115EE                     __end_of_PIN_MANAGER_Initialize:
  8572                           	callstack 0
  8573                           
  8574 ;; *************** function _OSCILLATOR_Initialize *****************
  8575 ;; Defined at:
  8576 ;;		line 61 in file "mcc_generated_files/mcc.c"
  8577 ;; Parameters:    Size  Location     Type
  8578 ;;		None
  8579 ;; Auto vars:     Size  Location     Type
  8580 ;;		None
  8581 ;; Return value:  Size  Location     Type
  8582 ;;                  1    wreg      void 
  8583 ;; Registers used:
  8584 ;;		wreg, status,2
  8585 ;; Tracked objects:
  8586 ;;		On entry : 0/0
  8587 ;;		On exit  : 0/0
  8588 ;;		Unchanged: 0/0
  8589 ;; Data sizes:     COMRAM   BANK0   BANK1   BANK2   BANK3   BANK4   BANK5   BANK6   BANK7   BANK8   BANK9  BANK10  BANK1
      +1  BANK12  BANK13  BANK14
  8590 ;;      Params:         0       0       0       0       0       0       0       0       0       0       0       0       
      +0       0       0       0
  8591 ;;      Locals:         0       0       0       0       0       0       0       0       0       0       0       0       
      +0       0       0       0
  8592 ;;      Temps:          0       0       0       0       0       0       0       0       0       0       0       0       
      +0       0       0       0
  8593 ;;      Totals:         0       0       0       0       0       0       0       0       0       0       0       0       
      +0       0       0       0
  8594 ;;Total ram usage:        0 bytes
  8595 ;; Hardware stack levels used: 1
  8596 ;; Hardware stack levels required when called: 4
  8597 ;; This function calls:
  8598 ;;		Nothing
  8599 ;; This function is called by:
  8600 ;;		_SYSTEM_Initialize
  8601 ;; This function uses a non-reentrant model
  8602 ;;
  8603                           
  8604                           	psect	text80
  8605  011B36                     __ptext80:
  8606                           	callstack 0
  8607  011B36                     _OSCILLATOR_Initialize:
  8608                           	callstack 25
  8609  011B36                     
  8610                           ;mcc_generated_files/mcc.c: 64:     OSCCON1 = 0x60;
  8611  011B36  0E60               	movlw	96
  8612  011B38  010E               	movlb	14	; () banked
  8613  011B3A  6FD8               	movwf	216,b	;volatile
  8614                           
  8615                           ;mcc_generated_files/mcc.c: 66:     OSCCON3 = 0x00;
  8616  011B3C  0E00               	movlw	0
  8617  011B3E  6FDA               	movwf	218,b	;volatile
  8618                           
  8619                           ;mcc_generated_files/mcc.c: 68:     OSCEN = 0x00;
  8620  011B40  0E00               	movlw	0
  8621  011B42  6FDC               	movwf	220,b	;volatile
  8622                           
  8623                           ;mcc_generated_files/mcc.c: 70:     OSCFRQ = 0x08;
  8624  011B44  0E08               	movlw	8
  8625  011B46  6FDE               	movwf	222,b	;volatile
  8626                           
  8627                           ;mcc_generated_files/mcc.c: 72:     OSCTUNE = 0x00;
  8628  011B48  0E00               	movlw	0
  8629  011B4A  6FDD               	movwf	221,b	;volatile
  8630  011B4C                     
  8631                           ; BSR set to: 14
  8632  011B4C  0012               	return		;funcret
  8633  011B4E                     __end_of_OSCILLATOR_Initialize:
  8634                           	callstack 0
  8635                           
  8636 ;; *************** function _INTERRUPT_Initialize *****************
  8637 ;; Defined at:
  8638 ;;		line 52 in file "mcc_generated_files/interrupt_manager.c"
  8639 ;; Parameters:    Size  Location     Type
  8640 ;;		None
  8641 ;; Auto vars:     Size  Location     Type
  8642 ;;		None
  8643 ;; Return value:  Size  Location     Type
  8644 ;;                  1    wreg      void 
  8645 ;; Registers used:
  8646 ;;		None
  8647 ;; Tracked objects:
  8648 ;;		On entry : 0/0
  8649 ;;		On exit  : 0/0
  8650 ;;		Unchanged: 0/0
  8651 ;; Data sizes:     COMRAM   BANK0   BANK1   BANK2   BANK3   BANK4   BANK5   BANK6   BANK7   BANK8   BANK9  BANK10  BANK1
      +1  BANK12  BANK13  BANK14
  8652 ;;      Params:         0       0       0       0       0       0       0       0       0       0       0       0       
      +0       0       0       0
  8653 ;;      Locals:         0       0       0       0       0       0       0       0       0       0       0       0       
      +0       0       0       0
  8654 ;;      Temps:          0       0       0       0       0       0       0       0       0       0       0       0       
      +0       0       0       0
  8655 ;;      Totals:         0       0       0       0       0       0       0       0       0       0       0       0       
      +0       0       0       0
  8656 ;;Total ram usage:        0 bytes
  8657 ;; Hardware stack levels used: 1
  8658 ;; Hardware stack levels required when called: 4
  8659 ;; This function calls:
  8660 ;;		Nothing
  8661 ;; This function is called by:
  8662 ;;		_SYSTEM_Initialize
  8663 ;; This function uses a non-reentrant model
  8664 ;;
  8665                           
  8666                           	psect	text81
  8667  011C96                     __ptext81:
  8668                           	callstack 0
  8669  011C96                     _INTERRUPT_Initialize:
  8670                           	callstack 25
  8671  011C96                     
  8672                           ;mcc_generated_files/interrupt_manager.c: 55:     INTCONbits.IPEN = 0;
  8673  011C96  9AF2               	bcf	242,5,c	;volatile
  8674  011C98  0012               	return		;funcret
  8675  011C9A                     __end_of_INTERRUPT_Initialize:
  8676                           	callstack 0
  8677                           
  8678 ;; *************** function _I2C1_Initialize *****************
  8679 ;; Defined at:
  8680 ;;		line 168 in file "mcc_generated_files/i2c1_master.c"
  8681 ;; Parameters:    Size  Location     Type
  8682 ;;		None
  8683 ;; Auto vars:     Size  Location     Type
  8684 ;;		None
  8685 ;; Return value:  Size  Location     Type
  8686 ;;                  1    wreg      void 
  8687 ;; Registers used:
  8688 ;;		wreg, status,2
  8689 ;; Tracked objects:
  8690 ;;		On entry : 0/0
  8691 ;;		On exit  : 0/0
  8692 ;;		Unchanged: 0/0
  8693 ;; Data sizes:     COMRAM   BANK0   BANK1   BANK2   BANK3   BANK4   BANK5   BANK6   BANK7   BANK8   BANK9  BANK10  BANK1
      +1  BANK12  BANK13  BANK14
  8694 ;;      Params:         0       0       0       0       0       0       0       0       0       0       0       0       
      +0       0       0       0
  8695 ;;      Locals:         0       0       0       0       0       0       0       0       0       0       0       0       
      +0       0       0       0
  8696 ;;      Temps:          0       0       0       0       0       0       0       0       0       0       0       0       
      +0       0       0       0
  8697 ;;      Totals:         0       0       0       0       0       0       0       0       0       0       0       0       
      +0       0       0       0
  8698 ;;Total ram usage:        0 bytes
  8699 ;; Hardware stack levels used: 1
  8700 ;; Hardware stack levels required when called: 4
  8701 ;; This function calls:
  8702 ;;		Nothing
  8703 ;; This function is called by:
  8704 ;;		_SYSTEM_Initialize
  8705 ;; This function uses a non-reentrant model
  8706 ;;
  8707                           
  8708                           	psect	text82
  8709  011B4E                     __ptext82:
  8710                           	callstack 0
  8711  011B4E                     _I2C1_Initialize:
  8712                           	callstack 25
  8713  011B4E                     
  8714                           ;mcc_generated_files/i2c1_master.c: 170:     SSP1STAT = 0x80;
  8715  011B4E  0E80               	movlw	128
  8716  011B50  6E95               	movwf	149,c	;volatile
  8717                           
  8718                           ;mcc_generated_files/i2c1_master.c: 171:     SSP1CON1 = 0x08;
  8719  011B52  0E08               	movlw	8
  8720  011B54  6E96               	movwf	150,c	;volatile
  8721                           
  8722                           ;mcc_generated_files/i2c1_master.c: 172:     SSP1CON2 = 0x00;
  8723  011B56  0E00               	movlw	0
  8724  011B58  6E97               	movwf	151,c	;volatile
  8725                           
  8726                           ;mcc_generated_files/i2c1_master.c: 173:     SSP1CON3 = 0x08;
  8727  011B5A  0E08               	movlw	8
  8728  011B5C  6E98               	movwf	152,c	;volatile
  8729                           
  8730                           ;mcc_generated_files/i2c1_master.c: 174:     SSP1ADD = 0x9F;
  8731  011B5E  0E9F               	movlw	159
  8732  011B60  6E93               	movwf	147,c	;volatile
  8733  011B62                     
  8734                           ;mcc_generated_files/i2c1_master.c: 175:     SSP1CON1bits.SSPEN = 0;
  8735  011B62  9A96               	bcf	150,5,c	;volatile
  8736  011B64  0012               	return		;funcret
  8737  011B66                     __end_of_I2C1_Initialize:
  8738                           	callstack 0
  8739                           
  8740 ;; *************** function _INTERRUPT_InterruptManager *****************
  8741 ;; Defined at:
  8742 ;;		line 58 in file "mcc_generated_files/interrupt_manager.c"
  8743 ;; Parameters:    Size  Location     Type
  8744 ;;		None
  8745 ;; Auto vars:     Size  Location     Type
  8746 ;;		None
  8747 ;; Return value:  Size  Location     Type
  8748 ;;                  1    wreg      void 
  8749 ;; Registers used:
  8750 ;;		wreg, status,2, status,0, pcl, pclath, pclatu, tosl, cstack
  8751 ;; Tracked objects:
  8752 ;;		On entry : 0/0
  8753 ;;		On exit  : 0/0
  8754 ;;		Unchanged: 0/0
  8755 ;; Data sizes:     COMRAM   BANK0   BANK1   BANK2   BANK3   BANK4   BANK5   BANK6   BANK7   BANK8   BANK9  BANK10  BANK1
      +1  BANK12  BANK13  BANK14
  8756 ;;      Params:         0       0       0       0       0       0       0       0       0       0       0       0       
      +0       0       0       0
  8757 ;;      Locals:         0       0       0       0       0       0       0       0       0       0       0       0       
      +0       0       0       0
  8758 ;;      Temps:          2       0       0       0       0       0       0       0       0       0       0       0       
      +0       0       0       0
  8759 ;;      Totals:         2       0       0       0       0       0       0       0       0       0       0       0       
      +0       0       0       0
  8760 ;;Total ram usage:        2 bytes
  8761 ;; Hardware stack levels used: 1
  8762 ;; Hardware stack levels required when called: 3
  8763 ;; This function calls:
  8764 ;;		_PIN_MANAGER_IOC
  8765 ;;		_TMR0_ISR
  8766 ;; This function is called by:
  8767 ;;		Interrupt level 2
  8768 ;; This function uses a non-reentrant model
  8769 ;;
  8770                           
  8771                           	psect	intcode
  8772  000008                     __pintcode:
  8773                           	callstack 0
  8774  000008                     _INTERRUPT_InterruptManager:
  8775                           	callstack 14
  8776                           
  8777                           ;incstack = 0
  8778  000008  825B               	bsf	int$flags,1,c	;set compiler interrupt flag (level 2)
  8779  00000A  CFFA F003          	movff	pclath,??_INTERRUPT_InterruptManager
  8780  00000E  CFFB F004          	movff	pclatu,??_INTERRUPT_InterruptManager+1
  8781  000012                     
  8782                           ;mcc_generated_files/interrupt_manager.c: 61:     if(PIE0bits.TMR0IE == 1 && PIR0bits.TM
      +                          R0IF == 1)
  8783  000012  010E               	movlb	14	; () banked
  8784  000014  ABC2               	btfss	194,5,b	;volatile
  8785  000016  EF0F  F000         	goto	i2u1436_41
  8786  00001A  EF11  F000         	goto	i2u1436_40
  8787  00001E                     i2u1436_41:
  8788  00001E  EF1C  F000         	goto	i2l1847
  8789  000022                     i2u1436_40:
  8790  000022                     
  8791                           ; BSR set to: 14
  8792  000022  ABCA               	btfss	202,5,b	;volatile
  8793  000024  EF16  F000         	goto	i2u1437_41
  8794  000028  EF18  F000         	goto	i2u1437_40
  8795  00002C                     i2u1437_41:
  8796  00002C  EF1C  F000         	goto	i2l1847
  8797  000030                     i2u1437_40:
  8798  000030                     
  8799                           ; BSR set to: 14
  8800                           ;mcc_generated_files/interrupt_manager.c: 62:     {;mcc_generated_files/interrupt_manage
      +                          r.c: 63:         TMR0_ISR();
  8801  000030  EC01  F08E         	call	_TMR0_ISR	;wreg free
  8802                           
  8803                           ;mcc_generated_files/interrupt_manager.c: 64:     }
  8804  000034  EF2C  F000         	goto	i2l1851
  8805  000038                     i2l1847:
  8806                           
  8807                           ; BSR set to: 14
  8808  000038  A9C2               	btfss	194,4,b	;volatile
  8809  00003A  EF21  F000         	goto	i2u1438_41
  8810  00003E  EF23  F000         	goto	i2u1438_40
  8811  000042                     i2u1438_41:
  8812  000042  EF2C  F000         	goto	i2l1851
  8813  000046                     i2u1438_40:
  8814  000046                     
  8815                           ; BSR set to: 14
  8816  000046  A9CA               	btfss	202,4,b	;volatile
  8817  000048  EF28  F000         	goto	i2u1439_41
  8818  00004C  EF2A  F000         	goto	i2u1439_40
  8819  000050                     i2u1439_41:
  8820  000050  EF2C  F000         	goto	i2l1851
  8821  000054                     i2u1439_40:
  8822  000054                     
  8823                           ; BSR set to: 14
  8824                           ;mcc_generated_files/interrupt_manager.c: 66:     {;mcc_generated_files/interrupt_manage
      +                          r.c: 67:         PIN_MANAGER_IOC();
  8825  000054  EC4F  F08E         	call	_PIN_MANAGER_IOC	;wreg free
  8826  000058                     i2l1851:
  8827  000058  C004  FFFB         	movff	??_INTERRUPT_InterruptManager+1,pclatu
  8828  00005C  C003  FFFA         	movff	??_INTERRUPT_InterruptManager,pclath
  8829  000060  925B               	bcf	int$flags,1,c	;clear compiler interrupt flag (level 2)
  8830  000062  0011               	retfie		f
  8831  000064                     __end_of_INTERRUPT_InterruptManager:
  8832                           	callstack 0
  8833                           
  8834 ;; *************** function _TMR0_ISR *****************
  8835 ;; Defined at:
  8836 ;;		line 121 in file "mcc_generated_files/tmr0.c"
  8837 ;; Parameters:    Size  Location     Type
  8838 ;;		None
  8839 ;; Auto vars:     Size  Location     Type
  8840 ;;		None
  8841 ;; Return value:  Size  Location     Type
  8842 ;;                  1    wreg      void 
  8843 ;; Registers used:
  8844 ;;		wreg, status,2, status,0, pcl, pclath, pclatu, tosl, cstack
  8845 ;; Tracked objects:
  8846 ;;		On entry : 0/0
  8847 ;;		On exit  : 0/0
  8848 ;;		Unchanged: 0/0
  8849 ;; Data sizes:     COMRAM   BANK0   BANK1   BANK2   BANK3   BANK4   BANK5   BANK6   BANK7   BANK8   BANK9  BANK10  BANK1
      +1  BANK12  BANK13  BANK14
  8850 ;;      Params:         0       0       0       0       0       0       0       0       0       0       0       0       
      +0       0       0       0
  8851 ;;      Locals:         0       0       0       0       0       0       0       0       0       0       0       0       
      +0       0       0       0
  8852 ;;      Temps:          0       0       0       0       0       0       0       0       0       0       0       0       
      +0       0       0       0
  8853 ;;      Totals:         0       0       0       0       0       0       0       0       0       0       0       0       
      +0       0       0       0
  8854 ;;Total ram usage:        0 bytes
  8855 ;; Hardware stack levels used: 1
  8856 ;; Hardware stack levels required when called: 2
  8857 ;; This function calls:
  8858 ;;		_TMR0_CallBack
  8859 ;; This function is called by:
  8860 ;;		_INTERRUPT_InterruptManager
  8861 ;; This function uses a non-reentrant model
  8862 ;;
  8863                           
  8864                           	psect	text84
  8865  011C02                     __ptext84:
  8866                           	callstack 0
  8867  011C02                     _TMR0_ISR:
  8868                           	callstack 14
  8869  011C02                     
  8870                           ;mcc_generated_files/tmr0.c: 124:     PIR0bits.TMR0IF = 0;
  8871  011C02  010E               	movlb	14	; () banked
  8872  011C04  9BCA               	bcf	202,5,b	;volatile
  8873  011C06                     
  8874                           ; BSR set to: 14
  8875                           ;mcc_generated_files/tmr0.c: 127:     TMR0_CallBack();
  8876  011C06  EC41  F08C         	call	_TMR0_CallBack	;wreg free
  8877  011C0A  0012               	return		;funcret
  8878  011C0C                     __end_of_TMR0_ISR:
  8879                           	callstack 0
  8880                           
  8881 ;; *************** function _TMR0_CallBack *****************
  8882 ;; Defined at:
  8883 ;;		line 132 in file "mcc_generated_files/tmr0.c"
  8884 ;; Parameters:    Size  Location     Type
  8885 ;;		None
  8886 ;; Auto vars:     Size  Location     Type
  8887 ;;		None
  8888 ;; Return value:  Size  Location     Type
  8889 ;;                  1    wreg      void 
  8890 ;; Registers used:
  8891 ;;		wreg, status,2, status,0, pcl, pclath, pclatu, tosl, cstack
  8892 ;; Tracked objects:
  8893 ;;		On entry : 0/0
  8894 ;;		On exit  : 0/0
  8895 ;;		Unchanged: 0/0
  8896 ;; Data sizes:     COMRAM   BANK0   BANK1   BANK2   BANK3   BANK4   BANK5   BANK6   BANK7   BANK8   BANK9  BANK10  BANK1
      +1  BANK12  BANK13  BANK14
  8897 ;;      Params:         0       0       0       0       0       0       0       0       0       0       0       0       
      +0       0       0       0
  8898 ;;      Locals:         0       0       0       0       0       0       0       0       0       0       0       0       
      +0       0       0       0
  8899 ;;      Temps:          0       0       0       0       0       0       0       0       0       0       0       0       
      +0       0       0       0
  8900 ;;      Totals:         0       0       0       0       0       0       0       0       0       0       0       0       
      +0       0       0       0
  8901 ;;Total ram usage:        0 bytes
  8902 ;; Hardware stack levels used: 1
  8903 ;; Hardware stack levels required when called: 1
  8904 ;; This function calls:
  8905 ;;		Absolute function
  8906 ;;		_DRVA_TMR_ms
  8907 ;;		_TMR0_DefaultInterruptHandler
  8908 ;; This function is called by:
  8909 ;;		_TMR0_ISR
  8910 ;; This function uses a non-reentrant model
  8911 ;;
  8912                           
  8913                           	psect	text85
  8914  011882                     __ptext85:
  8915                           	callstack 0
  8916  011882                     _TMR0_CallBack:
  8917                           	callstack 14
  8918  011882                     
  8919                           ;mcc_generated_files/tmr0.c: 136:     if(TMR0_InterruptHandler)
  8920  011882  0100               	movlb	0	; () banked
  8921  011884  51FC               	movf	_TMR0_InterruptHandler& (0+255),w,b
  8922  011886  11FD               	iorwf	(_TMR0_InterruptHandler+1)& (0+255),w,b
  8923  011888  11FE               	iorwf	(_TMR0_InterruptHandler+2)& (0+255),w,b
  8924  01188A  B4D8               	btfsc	status,2,c
  8925  01188C  EF4A  F08C         	goto	i2u1079_41
  8926  011890  EF4C  F08C         	goto	i2u1079_40
  8927  011894                     i2u1079_41:
  8928  011894  EF59  F08C         	goto	i2l1823
  8929  011898                     i2u1079_40:
  8930  011898                     
  8931                           ; BSR set to: 0
  8932                           ;mcc_generated_files/tmr0.c: 137:     {;mcc_generated_files/tmr0.c: 138:         TMR0_In
      +                          terruptHandler();
  8933  011898  D802               	call	i2u1080_48
  8934  01189A  EF59  F08C         	goto	i2u1080_49
  8935  01189E                     i2u1080_48:
  8936  01189E  0005               	push	
  8937  0118A0  6EFA               	movwf	pclath,c
  8938  0118A2  51FC               	movf	_TMR0_InterruptHandler& (0+255),w,b
  8939  0118A4  6EFD               	movwf	tosl,c
  8940  0118A6  51FD               	movf	(_TMR0_InterruptHandler+1)& (0+255),w,b
  8941  0118A8  6EFE               	movwf	tosh,c
  8942  0118AA  51FE               	movf	(_TMR0_InterruptHandler+2)& (0+255),w,b
  8943  0118AC  6EFF               	movwf	tosu,c
  8944  0118AE  50FA               	movf	pclath,w,c
  8945  0118B0  0012               	return		;indir
  8946  0118B2                     i2u1080_49:
  8947  0118B2                     i2l1823:
  8948  0118B2  0012               	return		;funcret
  8949  0118B4                     __end_of_TMR0_CallBack:
  8950                           	callstack 0
  8951                           
  8952 ;; *************** function _DRVA_TMR_ms *****************
  8953 ;; Defined at:
  8954 ;;		line 189 in file "mcc_generated_files/fatfs/drva.c"
  8955 ;; Parameters:    Size  Location     Type
  8956 ;;		None
  8957 ;; Auto vars:     Size  Location     Type
  8958 ;;  n               2    0[COMRAM] unsigned int 
  8959 ;; Return value:  Size  Location     Type
  8960 ;;                  1    wreg      void 
  8961 ;; Registers used:
  8962 ;;		wreg, status,2, status,0
  8963 ;; Tracked objects:
  8964 ;;		On entry : 0/0
  8965 ;;		On exit  : 0/0
  8966 ;;		Unchanged: 0/0
  8967 ;; Data sizes:     COMRAM   BANK0   BANK1   BANK2   BANK3   BANK4   BANK5   BANK6   BANK7   BANK8   BANK9  BANK10  BANK1
      +1  BANK12  BANK13  BANK14
  8968 ;;      Params:         0       0       0       0       0       0       0       0       0       0       0       0       
      +0       0       0       0
  8969 ;;      Locals:         2       0       0       0       0       0       0       0       0       0       0       0       
      +0       0       0       0
  8970 ;;      Temps:          0       0       0       0       0       0       0       0       0       0       0       0       
      +0       0       0       0
  8971 ;;      Totals:         2       0       0       0       0       0       0       0       0       0       0       0       
      +0       0       0       0
  8972 ;;Total ram usage:        2 bytes
  8973 ;; Hardware stack levels used: 1
  8974 ;; This function calls:
  8975 ;;		Nothing
  8976 ;; This function is called by:
  8977 ;;		_main
  8978 ;;		_TMR0_CallBack
  8979 ;; This function uses a non-reentrant model
  8980 ;;
  8981                           
  8982                           	psect	text86
  8983  011772                     __ptext86:
  8984                           	callstack 0
  8985  011772                     _DRVA_TMR_ms:
  8986                           	callstack 14
  8987  011772                     
  8988                           ;mcc_generated_files/fatfs/drva.c: 190:  UINT n;;mcc_generated_files/fatfs/drva.c: 191: 
      +                           n = Timer1;
  8989  011772  C058  F001         	movff	_Timer1,DRVA_TMR_ms@n	;volatile
  8990  011776  C059  F002         	movff	_Timer1+1,DRVA_TMR_ms@n+1	;volatile
  8991  01177A                     
  8992                           ;mcc_generated_files/fatfs/drva.c: 192:  if (n) Timer1 = --n;
  8993  01177A  5001               	movf	DRVA_TMR_ms@n^0,w,c
  8994  01177C  1002               	iorwf	(DRVA_TMR_ms@n+1)^0,w,c
  8995  01177E  B4D8               	btfsc	status,2,c
  8996  011780  EFC4  F08B         	goto	i2u907_41
  8997  011784  EFC6  F08B         	goto	i2u907_40
  8998  011788                     i2u907_41:
  8999  011788  EFCD  F08B         	goto	i2l8988
  9000  01178C                     i2u907_40:
  9001  01178C  0601               	decf	DRVA_TMR_ms@n^0,f,c
  9002  01178E  A0D8               	btfss	status,0,c
  9003  011790  0602               	decf	(DRVA_TMR_ms@n+1)^0,f,c
  9004  011792  C001  F058         	movff	DRVA_TMR_ms@n,_Timer1	;volatile
  9005  011796  C002  F059         	movff	DRVA_TMR_ms@n+1,_Timer1+1	;volatile
  9006  01179A                     i2l8988:
  9007                           
  9008                           ;mcc_generated_files/fatfs/drva.c: 193:  n = Timer2;
  9009  01179A  C0A6  F001         	movff	_Timer2,DRVA_TMR_ms@n	;volatile
  9010  01179E  C0A7  F002         	movff	_Timer2+1,DRVA_TMR_ms@n+1	;volatile
  9011  0117A2                     
  9012                           ;mcc_generated_files/fatfs/drva.c: 194:  if (n) Timer2 = --n;
  9013  0117A2  5001               	movf	DRVA_TMR_ms@n^0,w,c
  9014  0117A4  1002               	iorwf	(DRVA_TMR_ms@n+1)^0,w,c
  9015  0117A6  B4D8               	btfsc	status,2,c
  9016  0117A8  EFD8  F08B         	goto	i2u908_41
  9017  0117AC  EFDA  F08B         	goto	i2u908_40
  9018  0117B0                     i2u908_41:
  9019  0117B0  EFE1  F08B         	goto	i2l185
  9020  0117B4                     i2u908_40:
  9021  0117B4  0601               	decf	DRVA_TMR_ms@n^0,f,c
  9022  0117B6  A0D8               	btfss	status,0,c
  9023  0117B8  0602               	decf	(DRVA_TMR_ms@n+1)^0,f,c
  9024  0117BA  C001  F0A6         	movff	DRVA_TMR_ms@n,_Timer2	;volatile
  9025  0117BE  C002  F0A7         	movff	DRVA_TMR_ms@n+1,_Timer2+1	;volatile
  9026  0117C2                     i2l185:
  9027  0117C2  0012               	return		;funcret
  9028  0117C4                     __end_of_DRVA_TMR_ms:
  9029                           	callstack 0
  9030                           
  9031 ;; *************** function _TMR0_DefaultInterruptHandler *****************
  9032 ;; Defined at:
  9033 ;;		line 146 in file "mcc_generated_files/tmr0.c"
  9034 ;; Parameters:    Size  Location     Type
  9035 ;;		None
  9036 ;; Auto vars:     Size  Location     Type
  9037 ;;		None
  9038 ;; Return value:  Size  Location     Type
  9039 ;;                  1    wreg      void 
  9040 ;; Registers used:
  9041 ;;		None
  9042 ;; Tracked objects:
  9043 ;;		On entry : 0/0
  9044 ;;		On exit  : 0/0
  9045 ;;		Unchanged: 0/0
  9046 ;; Data sizes:     COMRAM   BANK0   BANK1   BANK2   BANK3   BANK4   BANK5   BANK6   BANK7   BANK8   BANK9  BANK10  BANK1
      +1  BANK12  BANK13  BANK14
  9047 ;;      Params:         0       0       0       0       0       0       0       0       0       0       0       0       
      +0       0       0       0
  9048 ;;      Locals:         0       0       0       0       0       0       0       0       0       0       0       0       
      +0       0       0       0
  9049 ;;      Temps:          0       0       0       0       0       0       0       0       0       0       0       0       
      +0       0       0       0
  9050 ;;      Totals:         0       0       0       0       0       0       0       0       0       0       0       0       
      +0       0       0       0
  9051 ;;Total ram usage:        0 bytes
  9052 ;; Hardware stack levels used: 1
  9053 ;; This function calls:
  9054 ;;		Nothing
  9055 ;; This function is called by:
  9056 ;;		_TMR0_Initialize
  9057 ;;		_TMR0_CallBack
  9058 ;; This function uses a non-reentrant model
  9059 ;;
  9060                           
  9061                           	psect	text87
  9062  011C9C                     __ptext87:
  9063                           	callstack 0
  9064  011C9C                     _TMR0_DefaultInterruptHandler:
  9065                           	callstack 14
  9066  011C9C  0012               	return		;funcret
  9067  011C9E                     __end_of_TMR0_DefaultInterruptHandler:
  9068                           	callstack 0
  9069                           
  9070 ;; *************** function _PIN_MANAGER_IOC *****************
  9071 ;; Defined at:
  9072 ;;		line 127 in file "mcc_generated_files/pin_manager.c"
  9073 ;; Parameters:    Size  Location     Type
  9074 ;;		None
  9075 ;; Auto vars:     Size  Location     Type
  9076 ;;		None
  9077 ;; Return value:  Size  Location     Type
  9078 ;;                  1    wreg      void 
  9079 ;; Registers used:
  9080 ;;		None
  9081 ;; Tracked objects:
  9082 ;;		On entry : 0/0
  9083 ;;		On exit  : 0/0
  9084 ;;		Unchanged: 0/0
  9085 ;; Data sizes:     COMRAM   BANK0   BANK1   BANK2   BANK3   BANK4   BANK5   BANK6   BANK7   BANK8   BANK9  BANK10  BANK1
      +1  BANK12  BANK13  BANK14
  9086 ;;      Params:         0       0       0       0       0       0       0       0       0       0       0       0       
      +0       0       0       0
  9087 ;;      Locals:         0       0       0       0       0       0       0       0       0       0       0       0       
      +0       0       0       0
  9088 ;;      Temps:          0       0       0       0       0       0       0       0       0       0       0       0       
      +0       0       0       0
  9089 ;;      Totals:         0       0       0       0       0       0       0       0       0       0       0       0       
      +0       0       0       0
  9090 ;;Total ram usage:        0 bytes
  9091 ;; Hardware stack levels used: 1
  9092 ;; This function calls:
  9093 ;;		Nothing
  9094 ;; This function is called by:
  9095 ;;		_INTERRUPT_InterruptManager
  9096 ;; This function uses a non-reentrant model
  9097 ;;
  9098                           
  9099                           	psect	text88
  9100  011C9E                     __ptext88:
  9101                           	callstack 0
  9102  011C9E                     _PIN_MANAGER_IOC:
  9103                           	callstack 16
  9104  011C9E  0012               	return		;funcret
  9105  011CA0                     __end_of_PIN_MANAGER_IOC:
  9106                           	callstack 0
  9107                           
  9108                           	psect	text89
  9109  000000                     __ptext89:
  9110                           	callstack 0
  9111  000000                     
  9112                           	psect	rparam
  9113  0000                     
  9114                           	psect	temp
  9115  00005B                     btemp:
  9116                           	callstack 0
  9117  00005B                     	ds	1
  9118  0000                     int$flags	set	btemp
  9119  0000                     wtemp8	set	btemp+1
  9120  0000                     ttemp5	set	btemp+1
  9121  0000                     ttemp6	set	btemp+4
  9122  0000                     ttemp7	set	btemp+8
  9123                           
  9124                           	psect	idloc
  9125                           
  9126                           ;Config register IDLOC0 @ 0x200000
  9127                           ;	unspecified, using default values
  9128  200000                     	org	2097152
  9129  200000  0FFF               	dw	4095
  9130                           
  9131                           ;Config register IDLOC1 @ 0x200002
  9132                           ;	unspecified, using default values
  9133  200002                     	org	2097154
  9134  200002  0FFF               	dw	4095
  9135                           
  9136                           ;Config register IDLOC2 @ 0x200004
  9137                           ;	unspecified, using default values
  9138  200004                     	org	2097156
  9139  200004  0FFF               	dw	4095
  9140                           
  9141                           ;Config register IDLOC3 @ 0x200006
  9142                           ;	unspecified, using default values
  9143  200006                     	org	2097158
  9144  200006  0FFF               	dw	4095
  9145                           
  9146                           ;Config register IDLOC4 @ 0x200008
  9147                           ;	unspecified, using default values
  9148  200008                     	org	2097160
  9149  200008  0FFF               	dw	4095
  9150                           
  9151                           ;Config register IDLOC5 @ 0x20000A
  9152                           ;	unspecified, using default values
  9153  20000A                     	org	2097162
  9154  20000A  0FFF               	dw	4095
  9155                           
  9156                           ;Config register IDLOC6 @ 0x20000C
  9157                           ;	unspecified, using default values
  9158  20000C                     	org	2097164
  9159  20000C  0FFF               	dw	4095
  9160                           
  9161                           ;Config register IDLOC7 @ 0x20000E
  9162                           ;	unspecified, using default values
  9163  20000E                     	org	2097166
  9164  20000E  0FFF               	dw	4095
  9165                           
  9166                           	psect	config
  9167                           
  9168                           ;Config register CONFIG1L @ 0x300000
  9169                           ;	External Oscillator mode Selection bits
  9170                           ;	FEXTOSC = OFF, Oscillator not enabled
  9171                           ;	Power-up default value for COSC bits
  9172                           ;	RSTOSC = HFINTOSC_64MHZ, HFINTOSC with HFFRQ = 64 MHz and CDIV = 1:1
  9173  300000                     	org	3145728
  9174  300000  8C                 	db	140
  9175                           
  9176                           ;Config register CONFIG1H @ 0x300001
  9177                           ;	Clock Out Enable bit
  9178                           ;	CLKOUTEN = OFF, CLKOUT function is disabled
  9179                           ;	Clock Switch Enable bit
  9180                           ;	CSWEN = ON, Writing to NOSC and NDIV is allowed
  9181                           ;	Fail-Safe Clock Monitor Enable bit
  9182                           ;	FCMEN = ON, Fail-Safe Clock Monitor enabled
  9183  300001                     	org	3145729
  9184  300001  FF                 	db	255
  9185                           
  9186                           ;Config register CONFIG2L @ 0x300002
  9187                           ;	Master Clear Enable bit
  9188                           ;	MCLRE = EXTMCLR, If LVP = 0, MCLR pin is MCLR; If LVP = 1, RE3 pin function is MCLR
  9189                           ;	Power-up Timer Enable bit
  9190                           ;	PWRTE = OFF, Power up timer disabled
  9191                           ;	Low-power BOR enable bit
  9192                           ;	LPBOREN = OFF, ULPBOR disabled
  9193                           ;	Brown-out Reset Enable bits
  9194                           ;	BOREN = SBORDIS, Brown-out Reset enabled , SBOREN bit is ignored
  9195  300002                     	org	3145730
  9196  300002  FF                 	db	255
  9197                           
  9198                           ;Config register CONFIG2H @ 0x300003
  9199                           ;	Brown Out Reset Voltage selection bits
  9200                           ;	BORV = VBOR_2P45, Brown-out Reset Voltage (VBOR) set to 2.45V
  9201                           ;	ZCD Disable bit
  9202                           ;	ZCD = OFF, ZCD disabled. ZCD can be enabled by setting the ZCDSEN bit of ZCDCON
  9203                           ;	PPSLOCK bit One-Way Set Enable bit
  9204                           ;	PPS1WAY = ON, PPSLOCK bit can be cleared and set only once; PPS registers remain locke
      +                          d after one clear/set cycle
  9205                           ;	Stack Full/Underflow Reset Enable bit
  9206                           ;	STVREN = ON, Stack full/underflow will cause Reset
  9207                           ;	Debugger Enable bit
  9208                           ;	DEBUG = OFF, Background debugger disabled
  9209                           ;	Extended Instruction Set Enable bit
  9210                           ;	XINST = OFF, Extended Instruction Set and Indexed Addressing Mode disabled
  9211  300003                     	org	3145731
  9212  300003  FF                 	db	255
  9213                           
  9214                           ;Config register CONFIG3L @ 0x300004
  9215                           ;	WDT Period Select bits
  9216                           ;	WDTCPS = WDTCPS_31, Divider ratio 1:65536; software control of WDTPS
  9217                           ;	WDT operating mode
  9218                           ;	WDTE = OFF, WDT Disabled
  9219  300004                     	org	3145732
  9220  300004  9F                 	db	159
  9221                           
  9222                           ;Config register CONFIG3H @ 0x300005
  9223                           ;	WDT Window Select bits
  9224                           ;	WDTCWS = WDTCWS_7, window always open (100%); software control; keyed access not requi
      +                          red
  9225                           ;	WDT input clock selector
  9226                           ;	WDTCCS = SC, Software Control
  9227  300005                     	org	3145733
  9228  300005  FF                 	db	255
  9229                           
  9230                           ;Config register CONFIG4L @ 0x300006
  9231                           ;	Write Protection Block 0
  9232                           ;	WRT0 = OFF, Block 0 (000800-003FFFh) not write-protected
  9233                           ;	Write Protection Block 1
  9234                           ;	WRT1 = OFF, Block 1 (004000-007FFFh) not write-protected
  9235                           ;	Write Protection Block 2
  9236                           ;	WRT2 = OFF, Block 2 (008000-00BFFFh) not write-protected
  9237                           ;	Write Protection Block 3
  9238                           ;	WRT3 = OFF, Block 3 (00C000-00FFFFh) not write-protected
  9239                           ;	Write Protection Block 4
  9240                           ;	WRT4 = OFF, Block 4 (010000-013FFFh) not write-protected
  9241                           ;	Write Protection Block 5
  9242                           ;	WRT5 = OFF, Block 5 (014000-017FFFh) not write-protected
  9243                           ;	Write Protection Block 6
  9244                           ;	WRT6 = OFF, Block 6 (018000-01BFFFh) not write-protected
  9245                           ;	Write Protection Block 7
  9246                           ;	WRT7 = OFF, Block 7 (01C000-01FFFFh) not write-protected
  9247  300006                     	org	3145734
  9248  300006  FF                 	db	255
  9249                           
  9250                           ;Config register CONFIG4H @ 0x300007
  9251                           ;	Configuration Register Write Protection bit
  9252                           ;	WRTC = OFF, Configuration registers (300000-30000Bh) not write-protected
  9253                           ;	Boot Block Write Protection bit
  9254                           ;	WRTB = OFF, Boot Block (000000-0007FFh) not write-protected
  9255                           ;	Data EEPROM Write Protection bit
  9256                           ;	WRTD = OFF, Data EEPROM not write-protected
  9257                           ;	Scanner Enable bit
  9258                           ;	SCANE = ON, Scanner module is available for use, SCANMD bit can control the module
  9259                           ;	Low Voltage Programming Enable bit
  9260                           ;	LVP = ON, Low voltage programming enabled. MCLR/VPP pin function is MCLR. MCLRE config
      +                          uration bit is ignored
  9261  300007                     	org	3145735
  9262  300007  FF                 	db	255
  9263                           
  9264                           ;Config register CONFIG5L @ 0x300008
  9265                           ;	UserNVM Program Memory Code Protection bit
  9266                           ;	CP = OFF, UserNVM code protection disabled
  9267                           ;	DataNVM Memory Code Protection bit
  9268                           ;	CPD = OFF, DataNVM code protection disabled
  9269  300008                     	org	3145736
  9270  300008  FF                 	db	255
  9271                           
  9272                           ;Config register CONFIG5H @ 0x300009
  9273                           ;	unspecified, using default values
  9274  300009                     	org	3145737
  9275  300009  FF                 	db	255
  9276                           
  9277                           ;Config register CONFIG6L @ 0x30000A
  9278                           ;	Table Read Protection Block 0
  9279                           ;	EBTR0 = OFF, Block 0 (000800-003FFFh) not protected from table reads executed in other
      +                           blocks
  9280                           ;	Table Read Protection Block 1
  9281                           ;	EBTR1 = OFF, Block 1 (004000-007FFFh) not protected from table reads executed in other
      +                           blocks
  9282                           ;	Table Read Protection Block 2
  9283                           ;	EBTR2 = OFF, Block 2 (008000-00BFFFh) not protected from table reads executed in other
      +                           blocks
  9284                           ;	Table Read Protection Block 3
  9285                           ;	EBTR3 = OFF, Block 3 (00C000-00FFFFh) not protected from table reads executed in other
      +                           blocks
  9286                           ;	Table Read Protection Block 4
  9287                           ;	EBTR4 = OFF, Block 4 (010000-013FFFh) not protected from table reads executed in other
      +                           blocks
  9288                           ;	Table Read Protection Block 5
  9289                           ;	EBTR5 = OFF, Block 5 (014000-017FFFh) not protected from table reads executed in other
      +                           blocks
  9290                           ;	Table Read Protection Block 6
  9291                           ;	EBTR6 = OFF, Block 6 (018000-01BFFFh) not protected from table reads executed in other
      +                           blocks
  9292                           ;	Table Read Protection Block 7
  9293                           ;	EBTR7 = OFF, Block 7 (01C000-01FFFFh) not protected from table reads executed in other
      +                           blocks
  9294  30000A                     	org	3145738
  9295  30000A  FF                 	db	255
  9296                           
  9297                           ;Config register CONFIG6H @ 0x30000B
  9298                           ;	Boot Block Table Read Protection bit
  9299                           ;	EBTRB = OFF, Boot Block (000000-0007FFh) not protected from table reads executed in ot
      +                          her blocks
  9300  30000B                     	org	3145739
  9301  30000B  FF                 	db	255
  9302                           tosu	equ	0xFFF
  9303                           tosh	equ	0xFFE
  9304                           tosl	equ	0xFFD
  9305                           stkptr	equ	0xFFC
  9306                           pclatu	equ	0xFFB
  9307                           pclath	equ	0xFFA
  9308                           pcl	equ	0xFF9
  9309                           tblptru	equ	0xFF8
  9310                           tblptrh	equ	0xFF7
  9311                           tblptrl	equ	0xFF6
  9312                           tablat	equ	0xFF5
  9313                           prodh	equ	0xFF4
  9314                           prodl	equ	0xFF3
  9315                           indf0	equ	0xFEF
  9316                           postinc0	equ	0xFEE
  9317                           postdec0	equ	0xFED
  9318                           preinc0	equ	0xFEC
  9319                           plusw0	equ	0xFEB
  9320                           fsr0h	equ	0xFEA
  9321                           fsr0l	equ	0xFE9
  9322                           wreg	equ	0xFE8
  9323                           indf1	equ	0xFE7
  9324                           postinc1	equ	0xFE6
  9325                           postdec1	equ	0xFE5
  9326                           preinc1	equ	0xFE4
  9327                           plusw1	equ	0xFE3
  9328                           fsr1h	equ	0xFE2
  9329                           fsr1l	equ	0xFE1
  9330                           bsr	equ	0xFE0
  9331                           indf2	equ	0xFDF
  9332                           postinc2	equ	0xFDE
  9333                           postdec2	equ	0xFDD
  9334                           preinc2	equ	0xFDC
  9335                           plusw2	equ	0xFDB
  9336                           fsr2h	equ	0xFDA
  9337                           fsr2l	equ	0xFD9
  9338                           status	equ	0xFD8

Data Sizes:
    Strings     97
    Constant    202
    Data        13
    BSS         1216
    Persistent  3
    Stack       0

Auto Spaces:
    Space          Size  Autos    Used
    COMRAM           94     85      90
    BANK0           160     41     159
    BANK1           256      0       0
    BANK2           256      0       0
    BANK3           256      0       0
    BANK4           256      0       0
    BANK5           256      0       0
    BANK6           256      0       0
    BANK7           256      0       0
    BANK8           256      0       0
    BANK9           256      0       0
    BANK10          256      0       0
    BANK11          256      0       0
    BANK12          256      0       0
    BANK13          256      0       0
    BANK14          136      0       0

Pointer List with Targets:

    __heap_hi.......next	PTR struct chunk size(2) Largest target is 0

    __heap_hi.....next	PTR struct chunk size(2) Largest target is 0

    __heap_hi...next	PTR struct chunk size(2) Largest target is 0

    f_open@dj.fs	PTR struct . size(2) Largest target is 0
		 -> drive(BIGRAM[563]), NULL(NULL[0]), 

    f_chdir@dj.fs	PTR struct . size(2) Largest target is 0
		 -> drive(BIGRAM[563]), NULL(NULL[0]), 

    f_getcwd@dj.fs	PTR struct . size(2) Largest target is 0
		 -> drive(BIGRAM[563]), NULL(NULL[0]), 

    f_stat@dj.fs	PTR struct . size(2) Largest target is 0
		 -> drive(BIGRAM[563]), NULL(NULL[0]), 

    f_unlink@dj.fs	PTR struct . size(2) Largest target is 0
		 -> drive(BIGRAM[563]), NULL(NULL[0]), 

    f_unlink@sdj.fs	PTR struct . size(2) Largest target is 0
		 -> drive(BIGRAM[563]), NULL(NULL[0]), 

    f_mkdir@dj.fs	PTR struct . size(2) Largest target is 0
		 -> drive(BIGRAM[563]), NULL(NULL[0]), 

    f_rename@djo.fs	PTR struct . size(2) Largest target is 0
		 -> drive(BIGRAM[563]), NULL(NULL[0]), 

    f_rename@djn.fs	PTR struct . size(2) Largest target is 0
		 -> drive(BIGRAM[563]), NULL(NULL[0]), 

    f_getlabel@dj.fs	PTR struct . size(2) Largest target is 0
		 -> drive(BIGRAM[563]), NULL(NULL[0]), 

    f_setlabel@dj.fs	PTR struct . size(2) Largest target is 0
		 -> drive(BIGRAM[563]), NULL(NULL[0]), 

    file.fs	PTR struct . size(2) Largest target is 0
		 -> drive(BIGRAM[563]), NULL(NULL[0]), 

    I2C1_Read1ByteRegister@returnValue.data	PTR unsigned char  size(2) Largest target is 0

    I2C1_Read2ByteRegister@returnValue.data	PTR unsigned char  size(2) Largest target is 0

    I2C1_Write1ByteRegister@data.data	PTR unsigned char  size(2) Largest target is 0

    I2C1_Write2ByteRegister@data.data	PTR unsigned char  size(2) Largest target is 0

    I2C1_DO_TX$5321$0	PTR void  size(2) Largest target is 5
		 -> I2C1_ReadDataBlock@bufferBlock(COMRAM[4]), I2C1_Write2ByteRegister@data(COMRAM[2]), I2C1_Write1ByteRegister@data(COMRAM[1]), I2C1_Read2ByteRegister@returnValue(COMRAM[2]), 
		 -> NULL(NULL[0]), I2C1_Read1ByteRegister@returnValue(COMRAM[1]), 

    I2C1_DO_RX$5327$0	PTR void  size(2) Largest target is 5
		 -> I2C1_ReadDataBlock@bufferBlock(COMRAM[4]), I2C1_Write2ByteRegister@data(COMRAM[2]), I2C1_Write1ByteRegister@data(COMRAM[1]), I2C1_Read2ByteRegister@returnValue(COMRAM[2]), 
		 -> NULL(NULL[0]), I2C1_Read1ByteRegister@returnValue(COMRAM[1]), 

    I2C1_DO_TX_EMPTY$5333$0	PTR void  size(2) Largest target is 5
		 -> I2C1_ReadDataBlock@bufferBlock(COMRAM[4]), I2C1_Write2ByteRegister@data(COMRAM[2]), I2C1_Write1ByteRegister@data(COMRAM[1]), I2C1_Read2ByteRegister@returnValue(COMRAM[2]), 
		 -> NULL(NULL[0]), I2C1_Read1ByteRegister@returnValue(COMRAM[1]), 

    I2C1_DO_RX_EMPTY$5339$0	PTR void  size(2) Largest target is 5
		 -> I2C1_ReadDataBlock@bufferBlock(COMRAM[4]), I2C1_Write2ByteRegister@data(COMRAM[2]), I2C1_Write1ByteRegister@data(COMRAM[1]), I2C1_Read2ByteRegister@returnValue(COMRAM[2]), 
		 -> NULL(NULL[0]), I2C1_Read1ByteRegister@returnValue(COMRAM[1]), 

    I2C1_DO_TX_EMPTY$5338	PTR void  size(2) Largest target is 5
		 -> I2C1_ReadDataBlock@bufferBlock(COMRAM[4]), I2C1_Write2ByteRegister@data(COMRAM[2]), I2C1_Write1ByteRegister@data(COMRAM[1]), I2C1_Read2ByteRegister@returnValue(COMRAM[2]), 
		 -> NULL(NULL[0]), I2C1_Read1ByteRegister@returnValue(COMRAM[1]), 

    I2C1_DO_TX_EMPTY$5333	PTR FTN(PTR void ,)enum E360 size(3) Largest target is 1
		 -> I2C1_CallbackReturnReset(), I2C1_CallbackReturnStop(), Absolute function(), rdBlkRegCompleteHandler(), 
		 -> wr2RegCompleteHandler(), wr1RegCompleteHandler(), rd2RegCompleteHandler(), rd1RegCompleteHandler(), 

    I2C1_DO_RX$5332	PTR void  size(2) Largest target is 5
		 -> I2C1_ReadDataBlock@bufferBlock(COMRAM[4]), I2C1_Write2ByteRegister@data(COMRAM[2]), I2C1_Write1ByteRegister@data(COMRAM[1]), I2C1_Read2ByteRegister@returnValue(COMRAM[2]), 
		 -> NULL(NULL[0]), I2C1_Read1ByteRegister@returnValue(COMRAM[1]), 

    I2C1_DO_RX$5327	PTR FTN(PTR void ,)enum E360 size(3) Largest target is 1
		 -> I2C1_CallbackReturnReset(), I2C1_CallbackReturnStop(), Absolute function(), rdBlkRegCompleteHandler(), 
		 -> wr2RegCompleteHandler(), wr1RegCompleteHandler(), rd2RegCompleteHandler(), rd1RegCompleteHandler(), 

    I2C1_DO_TX$5326	PTR void  size(2) Largest target is 5
		 -> I2C1_ReadDataBlock@bufferBlock(COMRAM[4]), I2C1_Write2ByteRegister@data(COMRAM[2]), I2C1_Write1ByteRegister@data(COMRAM[1]), I2C1_Read2ByteRegister@returnValue(COMRAM[2]), 
		 -> NULL(NULL[0]), I2C1_Read1ByteRegister@returnValue(COMRAM[1]), 

    I2C1_DO_TX$5321	PTR FTN(PTR void ,)enum E360 size(3) Largest target is 1
		 -> I2C1_CallbackReturnReset(), I2C1_CallbackReturnStop(), Absolute function(), rdBlkRegCompleteHandler(), 
		 -> wr2RegCompleteHandler(), wr1RegCompleteHandler(), rd2RegCompleteHandler(), rd1RegCompleteHandler(), 

    I2C1_MasterFsm$5320	const PTR FTN()enum E9968 size(3) Largest target is 1
		 -> I2C1_DO_ADDRESS_NACK(), I2C1_DO_RESET(), I2C1_DO_RX_NACK_RESTART(), I2C1_DO_RX_NACK_STOP(), 
		 -> I2C1_DO_RX_ACK(), I2C1_DO_SEND_STOP(), I2C1_DO_SEND_RESTART(), I2C1_DO_SEND_RESTART_WRITE(), 
		 -> I2C1_DO_SEND_RESTART_READ(), I2C1_DO_TX_EMPTY(), I2C1_DO_RCEN(), I2C1_DO_RX(), 
		 -> I2C1_DO_TX(), I2C1_DO_SEND_ADR_WRITE(), I2C1_DO_SEND_ADR_READ(), I2C1_DO_IDLE(), 

    I2C1_CallbackReturnStop@funPtr	PTR void  size(2) Largest target is 5
		 -> I2C1_ReadDataBlock@bufferBlock(COMRAM[4]), I2C1_Write2ByteRegister@data(COMRAM[2]), I2C1_Write1ByteRegister@data(COMRAM[1]), I2C1_Read2ByteRegister@returnValue(COMRAM[2]), 
		 -> NULL(NULL[0]), I2C1_Read1ByteRegister@returnValue(COMRAM[1]), 

    I2C1_CallbackReturnReset@funPtr	PTR void  size(2) Largest target is 5
		 -> I2C1_ReadDataBlock@bufferBlock(COMRAM[4]), I2C1_Write2ByteRegister@data(COMRAM[2]), I2C1_Write1ByteRegister@data(COMRAM[1]), I2C1_Read2ByteRegister@returnValue(COMRAM[2]), 
		 -> NULL(NULL[0]), I2C1_Read1ByteRegister@returnValue(COMRAM[1]), 

    cb$0	PTR void  size(2) Largest target is 5
		 -> I2C1_ReadDataBlock@bufferBlock(COMRAM[4]), I2C1_Write2ByteRegister@data(COMRAM[2]), I2C1_Write1ByteRegister@data(COMRAM[1]), I2C1_Read2ByteRegister@returnValue(COMRAM[2]), 
		 -> NULL(NULL[0]), I2C1_Read1ByteRegister@returnValue(COMRAM[1]), 

    Absolute function$0	PTR void  size(2) Largest target is 5
		 -> I2C1_ReadDataBlock@bufferBlock(COMRAM[4]), I2C1_Write2ByteRegister@data(COMRAM[2]), I2C1_Write1ByteRegister@data(COMRAM[1]), I2C1_Read2ByteRegister@returnValue(COMRAM[2]), 
		 -> NULL(NULL[0]), I2C1_Read1ByteRegister@returnValue(COMRAM[1]), 

    cb$0	PTR void  size(2) Largest target is 5
		 -> I2C1_ReadDataBlock@bufferBlock(COMRAM[4]), I2C1_Write2ByteRegister@data(COMRAM[2]), I2C1_Write1ByteRegister@data(COMRAM[1]), I2C1_Read2ByteRegister@returnValue(COMRAM[2]), 
		 -> NULL(NULL[0]), I2C1_Read1ByteRegister@returnValue(COMRAM[1]), 

    ?___simple_search_fl...next	PTR struct chunk size(2) Largest target is 0

    ?_ReadClock.__tm_zone	PTR const unsigned char  size(2) Largest target is 0

    S2795$0$0	PTR void  size(2) Largest target is 5
		 -> I2C1_ReadDataBlock@bufferBlock(COMRAM[4]), I2C1_Write2ByteRegister@data(COMRAM[2]), I2C1_Write1ByteRegister@data(COMRAM[1]), I2C1_Read2ByteRegister@returnValue(COMRAM[2]), 
		 -> NULL(NULL[0]), I2C1_Read1ByteRegister@returnValue(COMRAM[1]), 

    strlen@s	PTR const unsigned char  size(2) Largest target is 27
		 -> asctime@buf(BANK0[27]), 

    strlen@a	PTR const unsigned char  size(2) Largest target is 27
		 -> asctime@buf(BANK0[27]), 

    __expand_heap@new_brkp	PTR unsigned char  size(2) Largest target is 0
		 -> __heap_hi(UNKNOWN), NULL(NULL[0]), 

    brkp	PTR unsigned char  size(2) Largest target is 0
		 -> __heap_hi(UNKNOWN), NULL(NULL[0]), 

    __expand_heap@pn	PTR unsigned int  size(2) Largest target is 2
		 -> malloc@m(COMRAM[2]), 

    malloc@sz	PTR unsigned int  size(2) Largest target is 3719
		 -> __heap_hi..(UNKNOWN), __heap_hi(UNKNOWN), RAM(DATA[3719]), NULL(NULL[0]), 

    sp____expand_heap	PTR void  size(2) Largest target is 0
		 -> __heap_hi(UNKNOWN), NULL(NULL[0]), 

    malloc@new	PTR unsigned char  size(2) Largest target is 3719
		 -> __heap_hi(UNKNOWN), RAM(DATA[3719]), NULL(NULL[0]), 

    malloc@end	PTR unsigned char  size(2) Largest target is 3719
		 -> __heap_hi(UNKNOWN), RAM(DATA[3719]), NULL(NULL[0]), 

    malloc@cur	PTR unsigned char  size(2) Largest target is 3719
		 -> __heap_hi(UNKNOWN), RAM(DATA[3719]), NULL(NULL[0]), 

    malloc@p	PTR void  size(2) Largest target is 3719
		 -> __heap_hi..(UNKNOWN), __heap_hi(UNKNOWN), RAM(DATA[3719]), NULL(NULL[0]), 

    free@c.....next	PTR struct chunk size(2) Largest target is 0

    free@c...next	PTR struct chunk size(2) Largest target is 0

    free@c	PTR struct chunk size(2) Largest target is 3719
		 -> __heap_hi..(UNKNOWN), __heap_hi(UNKNOWN), RAM(DATA[3719]), NULL(NULL[0]), 

    free@ptr	PTR void  size(2) Largest target is 3719
		 -> __heap_hi..(UNKNOWN), __heap_hi(UNKNOWN), RAM(DATA[3719]), NULL(NULL[0]), 

    free@cptr	PTR unsigned char  size(2) Largest target is 3719
		 -> __heap_hi..(UNKNOWN), __heap_hi(UNKNOWN), RAM(DATA[3719]), NULL(NULL[0]), 

    __simple_search_fl@best_last.....next	PTR struct chunk size(2) Largest target is 0

    __simple_search_fl@split.....next	PTR struct chunk size(2) Largest target is 0

    __simple_search_fl@split...next	PTR struct chunk size(2) Largest target is 0

    __simple_search_fl@split	PTR struct chunk size(2) Largest target is 3719
		 -> __heap_hi..(UNKNOWN), __heap_hi(UNKNOWN), RAM(DATA[3719]), NULL(NULL[0]), 

    __simple_search_fl@next...next	PTR struct chunk size(2) Largest target is 0

    __simple_search_fl@next	PTR struct chunk size(2) Largest target is 3719
		 -> __heap_hi..(UNKNOWN), __heap_hi(UNKNOWN), RAM(DATA[3719]), NULL(NULL[0]), 

    __simple_search_fl@best_last...next	PTR struct chunk size(2) Largest target is 0

    __simple_search_fl@best...next	PTR struct chunk size(2) Largest target is 0

    sp____simple_search_fl...next	PTR struct chunk size(2) Largest target is 0

    __freelist...next	PTR struct chunk size(2) Largest target is 0

    __simple_search_fl@last.....next	PTR struct chunk size(2) Largest target is 0

    __simple_search_fl@last...next	PTR struct chunk size(2) Largest target is 0

    S4732$next	PTR struct chunk size(2) Largest target is 0

    __simple_search_fl@c...next	PTR struct chunk size(2) Largest target is 0

    __simple_search_fl@c	PTR struct chunk size(2) Largest target is 3719
		 -> __heap_hi..(UNKNOWN), __heap_hi(UNKNOWN), RAM(DATA[3719]), NULL(NULL[0]), 

    sp____simple_search_fl	PTR void  size(2) Largest target is 3719
		 -> __heap_hi..(UNKNOWN), __heap_hi(UNKNOWN), RAM(DATA[3719]), NULL(NULL[0]), 

    __freelist	PTR struct chunk size(2) Largest target is 3719
		 -> __heap_hi..(UNKNOWN), __heap_hi(UNKNOWN), RAM(DATA[3719]), NULL(NULL[0]), 

    __simple_search_fl@last	PTR struct chunk size(2) Largest target is 3719
		 -> __heap_hi..(UNKNOWN), __heap_hi(UNKNOWN), RAM(DATA[3719]), NULL(NULL[0]), 

    __simple_search_fl@best_last	PTR struct chunk size(2) Largest target is 3719
		 -> __heap_hi..(UNKNOWN), __heap_hi(UNKNOWN), RAM(DATA[3719]), NULL(NULL[0]), 

    __simple_search_fl@best	PTR struct chunk size(2) Largest target is 3719
		 -> __heap_hi..(UNKNOWN), __heap_hi(UNKNOWN), RAM(DATA[3719]), NULL(NULL[0]), 

    asctime@cp	PTR unsigned char  size(2) Largest target is 27
		 -> asctime@buf(BANK0[27]), 

    asctime@tim.__tm_zone	PTR const unsigned char  size(2) Largest target is 0

    asctime@tim	PTR const struct tm size(2) Largest target is 25
		 -> rtcGetAClk@t(BANK0[24]), 

    asctime@s	PTR const unsigned char  size(2) Largest target is 37
		 -> STR_11(CODE[37]), STR_10(CODE[22]), 

    put2d@cp	PTR unsigned char  size(2) Largest target is 27
		 -> asctime@buf(BANK0[27]), 

    rtcSetClk@buffer	PTR unsigned char  size(2) Largest target is 3719
		 -> __heap_hi..(UNKNOWN), __heap_hi(UNKNOWN), RAM(DATA[3719]), NULL(NULL[0]), 

    sp__malloc	PTR void  size(2) Largest target is 3719
		 -> __heap_hi..(UNKNOWN), __heap_hi(UNKNOWN), RAM(DATA[3719]), NULL(NULL[0]), 

    rtcSetClk@argBuffer	PTR unsigned char  size(2) Largest target is 3719
		 -> __heap_hi..(UNKNOWN), __heap_hi(UNKNOWN), RAM(DATA[3719]), NULL(NULL[0]), 

    t.__tm_zone	PTR const unsigned char  size(2) Largest target is 0

    sp__asctime	PTR unsigned char  size(2) Largest target is 27
		 -> asctime@buf(BANK0[27]), 

    rtcGetAClk@bufferOut	PTR unsigned char  size(2) Largest target is 27
		 -> asctime@buf(BANK0[27]), 

    t.__tm_zone	PTR const unsigned char  size(2) Largest target is 0

    getArgs@buffer	PTR unsigned char  size(2) Largest target is 3719
		 -> __heap_hi..(UNKNOWN), __heap_hi(UNKNOWN), RAM(DATA[3719]), NULL(NULL[0]), 

    getBuffer@buffer	PTR unsigned char  size(2) Largest target is 3719
		 -> __heap_hi..(UNKNOWN), __heap_hi(UNKNOWN), RAM(DATA[3719]), NULL(NULL[0]), 

    sendBuffer@buff	PTR unsigned char  size(2) Largest target is 27
		 -> asctime@buf(BANK0[27]), rtcGetClk@bufferOut(BANK0[8]), sendBufferLen@outbuff(COMRAM[2]), 

    t.__tm_zone	PTR const unsigned char  size(2) Largest target is 0

    TMR0_SetInterruptHandler@InterruptHandler	PTR FTN()void  size(3) Largest target is 1
		 -> TMR0_DefaultInterruptHandler(), DRVA_TMR_ms(), 

    TMR0_InterruptHandler	PTR FTN()void  size(3) Largest target is 1
		 -> TMR0_DefaultInterruptHandler(), Absolute function(), DRVA_TMR_ms(), 

    I2C1_SetCallback@ptr	PTR void  size(2) Largest target is 5
		 -> I2C1_ReadDataBlock@bufferBlock(COMRAM[4]), I2C1_Write2ByteRegister@data(COMRAM[2]), I2C1_Write1ByteRegister@data(COMRAM[1]), I2C1_Read2ByteRegister@returnValue(COMRAM[2]), 
		 -> NULL(NULL[0]), I2C1_Read1ByteRegister@returnValue(COMRAM[1]), 

    I2C1_SetCallback@cb	PTR FTN(PTR void ,)enum E360 size(3) Largest target is 1
		 -> Absolute function(), rdBlkRegCompleteHandler(), wr2RegCompleteHandler(), wr1RegCompleteHandler(), 
		 -> rd2RegCompleteHandler(), rd1RegCompleteHandler(), 

    I2C1_SetAddressNackCallback@ptr	PTR void  size(2) Largest target is 0
		 -> NULL(NULL[0]), 

    I2C1_SetAddressNackCallback@cb	PTR FTN(PTR void ,)enum E360 size(3) Largest target is 1
		 -> Absolute function(), 

    I2C1_SetDataCompleteCallback@ptr	PTR void  size(2) Largest target is 5
		 -> I2C1_ReadDataBlock@bufferBlock(COMRAM[4]), I2C1_Write2ByteRegister@data(COMRAM[2]), I2C1_Write1ByteRegister@data(COMRAM[1]), I2C1_Read2ByteRegister@returnValue(COMRAM[2]), 
		 -> NULL(NULL[0]), I2C1_Read1ByteRegister@returnValue(COMRAM[1]), 

    I2C1_SetDataCompleteCallback@cb	PTR FTN(PTR void ,)enum E360 size(3) Largest target is 1
		 -> Absolute function(), rdBlkRegCompleteHandler(), wr2RegCompleteHandler(), wr1RegCompleteHandler(), 
		 -> rd2RegCompleteHandler(), rd1RegCompleteHandler(), 

    I2C1_SetBuffer@buffer	PTR void  size(2) Largest target is 5
		 -> I2C1_Read1ByteRegister@returnValue.data(COMRAM[3]), I2C1_Read2ByteRegister@returnValue.data(COMRAM[3]), I2C1_Write1ByteRegister@data.data(COMRAM[3]), I2C1_Write2ByteRegister@data.data(COMRAM[3]), 
		 -> I2C1_ReadDataBlock@reg(COMRAM[1]), I2C1_ReadDataBlock@bufferBlock(COMRAM[4]), bufferBlock.data(COMRAM[3]), I2C1_Write2ByteRegister@reg(COMRAM[1]), 
		 -> I2C1_Write2ByteRegister@data(COMRAM[2]), I2C1_Write1ByteRegister@reg(COMRAM[1]), I2C1_Write1ByteRegister@data(COMRAM[1]), I2C1_Read2ByteRegister@reg(COMRAM[1]), 
		 -> I2C1_Read2ByteRegister@returnValue(COMRAM[2]), NULL(NULL[0]), I2C1_Read1ByteRegister@reg(COMRAM[1]), I2C1_Read1ByteRegister@returnValue(COMRAM[1]), 

    S2795$data_ptr	PTR unsigned char  size(2) Largest target is 5
		 -> I2C1_ReadDataBlock@reg(COMRAM[1]), I2C1_ReadDataBlock@bufferBlock(COMRAM[4]), I2C1_Write2ByteRegister@reg(COMRAM[1]), I2C1_Write2ByteRegister@data(COMRAM[2]), 
		 -> I2C1_Write1ByteRegister@reg(COMRAM[1]), I2C1_Write1ByteRegister@data(COMRAM[1]), I2C1_Read2ByteRegister@reg(COMRAM[1]), I2C1_Read2ByteRegister@returnValue(COMRAM[2]), 
		 -> NULL(NULL[0]), I2C1_Read1ByteRegister@reg(COMRAM[1]), I2C1_Read1ByteRegister@returnValue(COMRAM[1]), 

    I2C1_Status.data_ptr	PTR unsigned char  size(2) Largest target is 5
		 -> I2C1_Read1ByteRegister@returnValue.data(COMRAM[3]), I2C1_Read2ByteRegister@returnValue.data(COMRAM[3]), I2C1_Write1ByteRegister@data.data(COMRAM[3]), I2C1_Write2ByteRegister@data.data(COMRAM[3]), 
		 -> I2C1_ReadDataBlock@reg(COMRAM[1]), I2C1_ReadDataBlock@bufferBlock(COMRAM[4]), bufferBlock.data(COMRAM[3]), I2C1_Write2ByteRegister@reg(COMRAM[1]), 
		 -> I2C1_Write2ByteRegister@data(COMRAM[2]), I2C1_Write1ByteRegister@reg(COMRAM[1]), I2C1_Write1ByteRegister@data(COMRAM[1]), I2C1_Read2ByteRegister@reg(COMRAM[1]), 
		 -> I2C1_Read2ByteRegister@returnValue(COMRAM[2]), NULL(NULL[0]), I2C1_Read1ByteRegister@reg(COMRAM[1]), I2C1_Read1ByteRegister@returnValue(COMRAM[1]), 

    S2795$callbackPayload	PTR void [6] size(2) Largest target is 5
		 -> I2C1_ReadDataBlock@bufferBlock(COMRAM[4]), I2C1_Write2ByteRegister@data(COMRAM[2]), I2C1_Write1ByteRegister@data(COMRAM[1]), I2C1_Read2ByteRegister@returnValue(COMRAM[2]), 
		 -> NULL(NULL[0]), I2C1_Read1ByteRegister@returnValue(COMRAM[1]), 

    I2C1_Status.callbackPayload	PTR void [6] size(2) Largest target is 5
		 -> I2C1_ReadDataBlock@bufferBlock(COMRAM[4]), I2C1_Write2ByteRegister@data(COMRAM[2]), I2C1_Write1ByteRegister@data(COMRAM[1]), I2C1_Read2ByteRegister@returnValue(COMRAM[2]), 
		 -> NULL(NULL[0]), I2C1_Read1ByteRegister@returnValue(COMRAM[1]), 

    S2795$callbackTable	PTR FTN(PTR void ,)enum E360[6] size(3) Largest target is 1
		 -> I2C1_CallbackReturnReset(), I2C1_CallbackReturnStop(), Absolute function(), rdBlkRegCompleteHandler(), 
		 -> wr2RegCompleteHandler(), wr1RegCompleteHandler(), rd2RegCompleteHandler(), rd1RegCompleteHandler(), 

    I2C1_Status.callbackTable	PTR FTN(PTR void ,)enum E360[6] size(3) Largest target is 1
		 -> I2C1_CallbackReturnReset(), I2C1_CallbackReturnStop(), Absolute function(), rdBlkRegCompleteHandler(), 
		 -> wr2RegCompleteHandler(), wr1RegCompleteHandler(), rd2RegCompleteHandler(), rd1RegCompleteHandler(), 

    i2c1_fsmStateTable	const PTR FTN()enum E9968[16] size(3) Largest target is 1
		 -> I2C1_DO_ADDRESS_NACK(), I2C1_DO_RESET(), I2C1_DO_RX_NACK_RESTART(), I2C1_DO_RX_NACK_STOP(), 
		 -> I2C1_DO_RX_ACK(), I2C1_DO_SEND_STOP(), I2C1_DO_SEND_RESTART(), I2C1_DO_SEND_RESTART_WRITE(), 
		 -> I2C1_DO_SEND_RESTART_READ(), I2C1_DO_TX_EMPTY(), I2C1_DO_RCEN(), I2C1_DO_RX(), 
		 -> I2C1_DO_TX(), I2C1_DO_SEND_ADR_WRITE(), I2C1_DO_SEND_ADR_READ(), I2C1_DO_IDLE(), 

    S2566tm$__tm_zone	PTR const unsigned char  size(2) Largest target is 0

    clk.__tm_zone	PTR const unsigned char  size(2) Largest target is 0

    file.dir_ptr	PTR unsigned char  size(2) Largest target is 563
		 -> drive(BIGRAM[563]), NULL(NULL[0]), 

    file.obj.fs	PTR struct . size(2) Largest target is 563
		 -> drive(BIGRAM[563]), NULL(NULL[0]), 

    dj.pat	PTR const unsigned char  size(2) Largest target is 0

    dj.dir	PTR unsigned char  size(2) Largest target is 563
		 -> drive(BIGRAM[563]), NULL(NULL[0]), 

    dj.obj.fs	PTR struct . size(2) Largest target is 563
		 -> drive(BIGRAM[563]), NULL(NULL[0]), 

    dj.pat	PTR const unsigned char  size(2) Largest target is 0

    dj.dir	PTR unsigned char  size(2) Largest target is 563
		 -> drive(BIGRAM[563]), NULL(NULL[0]), 

    dj.obj.fs	PTR struct . size(2) Largest target is 563
		 -> drive(BIGRAM[563]), NULL(NULL[0]), 

    djn.pat	PTR const unsigned char  size(2) Largest target is 0

    djn.dir	PTR unsigned char  size(2) Largest target is 563
		 -> drive(BIGRAM[563]), NULL(NULL[0]), 

    djn.obj.fs	PTR struct . size(2) Largest target is 563
		 -> drive(BIGRAM[563]), NULL(NULL[0]), 

    djo.pat	PTR const unsigned char  size(2) Largest target is 0

    djo.dir	PTR unsigned char  size(2) Largest target is 563
		 -> drive(BIGRAM[563]), NULL(NULL[0]), 

    djo.obj.fs	PTR struct . size(2) Largest target is 563
		 -> drive(BIGRAM[563]), NULL(NULL[0]), 

    dj.pat	PTR const unsigned char  size(2) Largest target is 0

    dj.dir	PTR unsigned char  size(2) Largest target is 563
		 -> drive(BIGRAM[563]), NULL(NULL[0]), 

    dj.obj.fs	PTR struct . size(2) Largest target is 563
		 -> drive(BIGRAM[563]), NULL(NULL[0]), 

    sdj.pat	PTR const unsigned char  size(2) Largest target is 0

    sdj.dir	PTR unsigned char  size(2) Largest target is 563
		 -> drive(BIGRAM[563]), NULL(NULL[0]), 

    sdj.obj.fs	PTR struct . size(2) Largest target is 563
		 -> drive(BIGRAM[563]), NULL(NULL[0]), 

    dj.pat	PTR const unsigned char  size(2) Largest target is 0

    dj.dir	PTR unsigned char  size(2) Largest target is 563
		 -> drive(BIGRAM[563]), NULL(NULL[0]), 

    dj.obj.fs	PTR struct . size(2) Largest target is 563
		 -> drive(BIGRAM[563]), NULL(NULL[0]), 

    f_truncate@fp.dir_ptr	PTR unsigned char  size(2) Largest target is 563
		 -> drive(BIGRAM[563]), NULL(NULL[0]), 

    f_truncate@fp.obj.fs	PTR struct . size(2) Largest target is 563
		 -> drive(BIGRAM[563]), NULL(NULL[0]), 

    obj.fs	PTR struct . size(2) Largest target is 563
		 -> drive(BIGRAM[563]), NULL(NULL[0]), 

    dj.pat	PTR const unsigned char  size(2) Largest target is 0

    dj.dir	PTR unsigned char  size(2) Largest target is 563
		 -> drive(BIGRAM[563]), NULL(NULL[0]), 

    dj.obj.fs	PTR struct . size(2) Largest target is 563
		 -> drive(BIGRAM[563]), NULL(NULL[0]), 

    f_findfirst@dp.pat	PTR const unsigned char  size(2) Largest target is 0

    f_findfirst@dp.dir	PTR unsigned char  size(2) Largest target is 563
		 -> drive(BIGRAM[563]), NULL(NULL[0]), 

    f_findfirst@dp.obj.fs	PTR struct . size(2) Largest target is 563
		 -> drive(BIGRAM[563]), NULL(NULL[0]), 

    f_findnext@dp.pat	PTR const unsigned char  size(2) Largest target is 0

    f_findnext@dp.dir	PTR unsigned char  size(2) Largest target is 563
		 -> drive(BIGRAM[563]), NULL(NULL[0]), 

    f_findnext@dp.obj.fs	PTR struct . size(2) Largest target is 563
		 -> drive(BIGRAM[563]), NULL(NULL[0]), 

    f_readdir@dp.pat	PTR const unsigned char  size(2) Largest target is 0

    f_readdir@dp.dir	PTR unsigned char  size(2) Largest target is 563
		 -> drive(BIGRAM[563]), NULL(NULL[0]), 

    f_readdir@dp.obj.fs	PTR struct . size(2) Largest target is 563
		 -> drive(BIGRAM[563]), NULL(NULL[0]), 

    f_closedir@dp.pat	PTR const unsigned char  size(2) Largest target is 0

    f_closedir@dp.dir	PTR unsigned char  size(2) Largest target is 563
		 -> drive(BIGRAM[563]), NULL(NULL[0]), 

    f_closedir@dp.obj.fs	PTR struct . size(2) Largest target is 563
		 -> drive(BIGRAM[563]), NULL(NULL[0]), 

    f_opendir@dp.pat	PTR const unsigned char  size(2) Largest target is 0

    f_opendir@dp.dir	PTR unsigned char  size(2) Largest target is 563
		 -> drive(BIGRAM[563]), NULL(NULL[0]), 

    f_opendir@dp.obj.fs	PTR struct . size(2) Largest target is 563
		 -> drive(BIGRAM[563]), NULL(NULL[0]), 

    f_lseek@fp.dir_ptr	PTR unsigned char  size(2) Largest target is 563
		 -> drive(BIGRAM[563]), NULL(NULL[0]), 

    f_lseek@fp.obj.fs	PTR struct . size(2) Largest target is 563
		 -> drive(BIGRAM[563]), NULL(NULL[0]), 

    dj.pat	PTR const unsigned char  size(2) Largest target is 0

    dj.dir	PTR unsigned char  size(2) Largest target is 563
		 -> drive(BIGRAM[563]), NULL(NULL[0]), 

    dj.obj.fs	PTR struct . size(2) Largest target is 563
		 -> drive(BIGRAM[563]), NULL(NULL[0]), 

    dj.pat	PTR const unsigned char  size(2) Largest target is 0

    dj.dir	PTR unsigned char  size(2) Largest target is 563
		 -> drive(BIGRAM[563]), NULL(NULL[0]), 

    dj.obj.fs	PTR struct . size(2) Largest target is 563
		 -> drive(BIGRAM[563]), NULL(NULL[0]), 

    f_close@fp.dir_ptr	PTR unsigned char  size(2) Largest target is 563
		 -> drive(BIGRAM[563]), NULL(NULL[0]), 

    f_close@fp.obj.fs	PTR struct . size(2) Largest target is 563
		 -> drive(BIGRAM[563]), NULL(NULL[0]), 

    f_sync@fp.dir_ptr	PTR unsigned char  size(2) Largest target is 563
		 -> drive(BIGRAM[563]), NULL(NULL[0]), 

    f_sync@fp.obj.fs	PTR struct . size(2) Largest target is 563
		 -> drive(BIGRAM[563]), NULL(NULL[0]), 

    f_write@fp.dir_ptr	PTR unsigned char  size(2) Largest target is 563
		 -> drive(BIGRAM[563]), NULL(NULL[0]), 

    f_write@fp.obj.fs	PTR struct . size(2) Largest target is 563
		 -> drive(BIGRAM[563]), NULL(NULL[0]), 

    f_read@fp.dir_ptr	PTR unsigned char  size(2) Largest target is 563
		 -> drive(BIGRAM[563]), NULL(NULL[0]), 

    f_read@fp.obj.fs	PTR struct . size(2) Largest target is 563
		 -> drive(BIGRAM[563]), NULL(NULL[0]), 

    S425$dir_ptr	PTR unsigned char  size(2) Largest target is 563
		 -> drive(BIGRAM[563]), NULL(NULL[0]), 

    f_open@fp.dir_ptr	PTR unsigned char  size(2) Largest target is 563
		 -> drive(BIGRAM[563]), NULL(NULL[0]), 

    f_open@fp.obj.fs	PTR struct . size(2) Largest target is 563
		 -> drive(BIGRAM[563]), NULL(NULL[0]), 

    dj.pat	PTR const unsigned char  size(2) Largest target is 0

    dj.dir	PTR unsigned char  size(2) Largest target is 563
		 -> drive(BIGRAM[563]), NULL(NULL[0]), 

    dj.obj.fs	PTR struct . size(2) Largest target is 563
		 -> drive(BIGRAM[563]), NULL(NULL[0]), 

    validate@obj.fs	PTR struct . size(2) Largest target is 563
		 -> drive(BIGRAM[563]), NULL(NULL[0]), 

    FatFs	PTR struct .[1] size(2) Largest target is 563
		 -> drive(BIGRAM[563]), NULL(NULL[0]), 

    follow_path@dp.pat	PTR const unsigned char  size(2) Largest target is 0

    follow_path@dp.dir	PTR unsigned char  size(2) Largest target is 563
		 -> drive(BIGRAM[563]), NULL(NULL[0]), 

    follow_path@dp.obj.fs	PTR struct . size(2) Largest target is 563
		 -> drive(BIGRAM[563]), NULL(NULL[0]), 

    create_name@dp.pat	PTR const unsigned char  size(2) Largest target is 0

    create_name@dp.dir	PTR unsigned char  size(2) Largest target is 563
		 -> drive(BIGRAM[563]), NULL(NULL[0]), 

    create_name@dp.obj.fs	PTR struct . size(2) Largest target is 563
		 -> drive(BIGRAM[563]), NULL(NULL[0]), 

    get_fileinfo@dp.pat	PTR const unsigned char  size(2) Largest target is 0

    get_fileinfo@dp.dir	PTR unsigned char  size(2) Largest target is 563
		 -> drive(BIGRAM[563]), NULL(NULL[0]), 

    get_fileinfo@dp.obj.fs	PTR struct . size(2) Largest target is 563
		 -> drive(BIGRAM[563]), NULL(NULL[0]), 

    dir_remove@dp.pat	PTR const unsigned char  size(2) Largest target is 0

    dir_remove@dp.dir	PTR unsigned char  size(2) Largest target is 563
		 -> drive(BIGRAM[563]), NULL(NULL[0]), 

    dir_remove@dp.obj.fs	PTR struct . size(2) Largest target is 563
		 -> drive(BIGRAM[563]), NULL(NULL[0]), 

    dir_register@dp.pat	PTR const unsigned char  size(2) Largest target is 0

    dir_register@dp.dir	PTR unsigned char  size(2) Largest target is 563
		 -> drive(BIGRAM[563]), NULL(NULL[0]), 

    dir_register@dp.obj.fs	PTR struct . size(2) Largest target is 563
		 -> drive(BIGRAM[563]), NULL(NULL[0]), 

    dir_find@dp.pat	PTR const unsigned char  size(2) Largest target is 0

    dir_find@dp.dir	PTR unsigned char  size(2) Largest target is 563
		 -> drive(BIGRAM[563]), NULL(NULL[0]), 

    dir_find@dp.obj.fs	PTR struct . size(2) Largest target is 563
		 -> drive(BIGRAM[563]), NULL(NULL[0]), 

    dir_read@dp.pat	PTR const unsigned char  size(2) Largest target is 0

    dir_read@dp.dir	PTR unsigned char  size(2) Largest target is 563
		 -> drive(BIGRAM[563]), NULL(NULL[0]), 

    dir_read@dp.obj.fs	PTR struct . size(2) Largest target is 563
		 -> drive(BIGRAM[563]), NULL(NULL[0]), 

    dir_alloc@dp.pat	PTR const unsigned char  size(2) Largest target is 0

    dir_alloc@dp.dir	PTR unsigned char  size(2) Largest target is 563
		 -> drive(BIGRAM[563]), NULL(NULL[0]), 

    dir_alloc@dp.obj.fs	PTR struct . size(2) Largest target is 563
		 -> drive(BIGRAM[563]), NULL(NULL[0]), 

    dir_next@dp.pat	PTR const unsigned char  size(2) Largest target is 0

    dir_next@dp.dir	PTR unsigned char  size(2) Largest target is 563
		 -> drive(BIGRAM[563]), NULL(NULL[0]), 

    dir_next@dp.obj.fs	PTR struct . size(2) Largest target is 563
		 -> drive(BIGRAM[563]), NULL(NULL[0]), 

    S401$pat	PTR const unsigned char  size(2) Largest target is 0

    dir_sdi@dp.pat	PTR const unsigned char  size(2) Largest target is 0

    S401$dir	PTR unsigned char  size(2) Largest target is 563
		 -> drive(BIGRAM[563]), NULL(NULL[0]), 

    dir_sdi@dp.dir	PTR unsigned char  size(2) Largest target is 563
		 -> drive(BIGRAM[563]), NULL(NULL[0]), 

    dir_sdi@dp.obj.fs	PTR struct . size(2) Largest target is 563
		 -> drive(BIGRAM[563]), NULL(NULL[0]), 

    create_chain@obj.fs	PTR struct . size(2) Largest target is 563
		 -> drive(BIGRAM[563]), NULL(NULL[0]), 

    remove_chain@obj.fs	PTR struct . size(2) Largest target is 563
		 -> drive(BIGRAM[563]), NULL(NULL[0]), 

    S394$fs	PTR struct . size(2) Largest target is 563
		 -> drive(BIGRAM[563]), NULL(NULL[0]), 

    get_fat@obj.fs	PTR struct . size(2) Largest target is 563
		 -> drive(BIGRAM[563]), NULL(NULL[0]), 

    rdBlkRegCompleteHandler@ptr.data	PTR unsigned char  size(2) Largest target is 0

    rdBlkRegCompleteHandler@ptr	PTR void  size(2) Largest target is 5
		 -> I2C1_ReadDataBlock@bufferBlock(COMRAM[4]), I2C1_Write2ByteRegister@data(COMRAM[2]), I2C1_Write1ByteRegister@data(COMRAM[1]), I2C1_Read2ByteRegister@returnValue(COMRAM[2]), 
		 -> NULL(NULL[0]), I2C1_Read1ByteRegister@returnValue(COMRAM[1]), 

    wr2RegCompleteHandler@ptr	PTR void  size(2) Largest target is 5
		 -> I2C1_ReadDataBlock@bufferBlock(COMRAM[4]), I2C1_Write2ByteRegister@data(COMRAM[2]), I2C1_Write1ByteRegister@data(COMRAM[1]), I2C1_Read2ByteRegister@returnValue(COMRAM[2]), 
		 -> NULL(NULL[0]), I2C1_Read1ByteRegister@returnValue(COMRAM[1]), 

    wr1RegCompleteHandler@ptr	PTR void  size(2) Largest target is 5
		 -> I2C1_ReadDataBlock@bufferBlock(COMRAM[4]), I2C1_Write2ByteRegister@data(COMRAM[2]), I2C1_Write1ByteRegister@data(COMRAM[1]), I2C1_Read2ByteRegister@returnValue(COMRAM[2]), 
		 -> NULL(NULL[0]), I2C1_Read1ByteRegister@returnValue(COMRAM[1]), 

    rd2RegCompleteHandler@ptr	PTR void  size(2) Largest target is 5
		 -> I2C1_ReadDataBlock@bufferBlock(COMRAM[4]), I2C1_Write2ByteRegister@data(COMRAM[2]), I2C1_Write1ByteRegister@data(COMRAM[1]), I2C1_Read2ByteRegister@returnValue(COMRAM[2]), 
		 -> NULL(NULL[0]), I2C1_Read1ByteRegister@returnValue(COMRAM[1]), 

    rd1RegCompleteHandler@ptr	PTR void  size(2) Largest target is 5
		 -> I2C1_ReadDataBlock@bufferBlock(COMRAM[4]), I2C1_Write2ByteRegister@data(COMRAM[2]), I2C1_Write1ByteRegister@data(COMRAM[1]), I2C1_Read2ByteRegister@returnValue(COMRAM[2]), 
		 -> NULL(NULL[0]), I2C1_Read1ByteRegister@returnValue(COMRAM[1]), 

    S96$data	PTR unsigned char  size(2) Largest target is 0

    bufferBlock.data	PTR unsigned char  size(2) Largest target is 0


Critical Paths under _main in COMRAM

    _processRTC->_rtcGetAClk
    _rtcSetClk->_SetClock
    _malloc->___simple_search_fl
    _getArgs->_getBuffer
    _SetClock->_I2C1_Write1ByteRegister
    _rtcGetClk->_ReadClock
    _rtcGetAClk->_ReadClock
    _sendBufferLen->_sendBuffer
    _asctime->_put2d
    _put2d->___awdiv
    _ReadClock->_I2C1_Read1ByteRegister
    _I2C1_SetAddressNackCallback->_I2C1_SetCallback
    _I2C1_MasterWrite->_I2C1_MasterOperation
    _I2C1_MasterFsm->_I2C1_DO_ADDRESS_NACK
    _I2C1_MasterFsm->_I2C1_DO_RX
    _I2C1_MasterFsm->_I2C1_DO_TX
    _I2C1_MasterFsm->_I2C1_DO_TX_EMPTY
    _I2C1_DO_TX_EMPTY->_I2C1_CallbackReturnReset
    _I2C1_DO_TX_EMPTY->_I2C1_CallbackReturnStop
    _I2C1_DO_TX_EMPTY->_rd1RegCompleteHandler
    _I2C1_DO_TX_EMPTY->_rd2RegCompleteHandler
    _I2C1_DO_TX_EMPTY->_rdBlkRegCompleteHandler
    _I2C1_DO_TX_EMPTY->_wr1RegCompleteHandler
    _I2C1_DO_TX_EMPTY->_wr2RegCompleteHandler
    _I2C1_DO_TX->_I2C1_CallbackReturnReset
    _I2C1_DO_TX->_I2C1_CallbackReturnStop
    _I2C1_DO_TX->_rd1RegCompleteHandler
    _I2C1_DO_TX->_rd2RegCompleteHandler
    _I2C1_DO_TX->_rdBlkRegCompleteHandler
    _I2C1_DO_TX->_wr1RegCompleteHandler
    _I2C1_DO_TX->_wr2RegCompleteHandler
    _I2C1_DO_SEND_ADR_WRITE->_I2C1_MasterSendTxData
    _I2C1_DO_RX->_I2C1_CallbackReturnReset
    _I2C1_DO_RX->_I2C1_CallbackReturnStop
    _I2C1_DO_RX->_rd1RegCompleteHandler
    _I2C1_DO_RX->_rd2RegCompleteHandler
    _I2C1_DO_RX->_rdBlkRegCompleteHandler
    _I2C1_DO_RX->_wr1RegCompleteHandler
    _I2C1_DO_RX->_wr2RegCompleteHandler
    _I2C1_DO_ADDRESS_NACK->_I2C1_CallbackReturnReset
    _I2C1_DO_ADDRESS_NACK->_I2C1_CallbackReturnStop
    _I2C1_DO_ADDRESS_NACK->_rd1RegCompleteHandler
    _I2C1_DO_ADDRESS_NACK->_rd2RegCompleteHandler
    _I2C1_DO_ADDRESS_NACK->_rdBlkRegCompleteHandler
    _I2C1_DO_ADDRESS_NACK->_wr1RegCompleteHandler
    _I2C1_DO_ADDRESS_NACK->_wr2RegCompleteHandler
    _wr2RegCompleteHandler->_I2C1_SetDataCompleteCallback
    _wr1RegCompleteHandler->_I2C1_SetDataCompleteCallback
    _rdBlkRegCompleteHandler->_I2C1_SetDataCompleteCallback
    _rd2RegCompleteHandler->_I2C1_SetDataCompleteCallback
    _rd1RegCompleteHandler->_I2C1_SetDataCompleteCallback
    _I2C1_SetDataCompleteCallback->_I2C1_SetCallback
    _TMR0_Initialize->_TMR0_SetInterruptHandler

Critical Paths under _INTERRUPT_InterruptManager in COMRAM

    _TMR0_CallBack->_DRVA_TMR_ms

Critical Paths under _main in BANK0

    _main->_rtcdrv_poll
    _rtcdrv_poll->_processRTC
    _processRTC->_rtcGetClk

Critical Paths under _INTERRUPT_InterruptManager in BANK0

    None.

Critical Paths under _main in BANK1

    None.

Critical Paths under _INTERRUPT_InterruptManager in BANK1

    None.

Critical Paths under _main in BANK2

    None.

Critical Paths under _INTERRUPT_InterruptManager in BANK2

    None.

Critical Paths under _main in BANK3

    None.

Critical Paths under _INTERRUPT_InterruptManager in BANK3

    None.

Critical Paths under _main in BANK4

    None.

Critical Paths under _INTERRUPT_InterruptManager in BANK4

    None.

Critical Paths under _main in BANK5

    None.

Critical Paths under _INTERRUPT_InterruptManager in BANK5

    None.

Critical Paths under _main in BANK6

    None.

Critical Paths under _INTERRUPT_InterruptManager in BANK6

    None.

Critical Paths under _main in BANK7

    None.

Critical Paths under _INTERRUPT_InterruptManager in BANK7

    None.

Critical Paths under _main in BANK8

    None.

Critical Paths under _INTERRUPT_InterruptManager in BANK8

    None.

Critical Paths under _main in BANK9

    None.

Critical Paths under _INTERRUPT_InterruptManager in BANK9

    None.

Critical Paths under _main in BANK10

    None.

Critical Paths under _INTERRUPT_InterruptManager in BANK10

    None.

Critical Paths under _main in BANK11

    None.

Critical Paths under _INTERRUPT_InterruptManager in BANK11

    None.

Critical Paths under _main in BANK12

    None.

Critical Paths under _INTERRUPT_InterruptManager in BANK12

    None.

Critical Paths under _main in BANK13

    None.

Critical Paths under _INTERRUPT_InterruptManager in BANK13

    None.

Critical Paths under _main in BANK14

    None.

Critical Paths under _INTERRUPT_InterruptManager in BANK14

    None.

Call Graph Tables:

 ---------------------------------------------------------------------------------
 (Depth) Function   	        Calls       Base Space   Used Autos Params    Refs
 ---------------------------------------------------------------------------------
 (0) _main                                                 0     0      0  427439
                  _SYSTEM_Initialize
           _TMR0_SetInterruptHandler
                    _TMR0_StartTimer
                        _rtcdrv_poll
 ---------------------------------------------------------------------------------
 (1) _rtcdrv_poll                                          5     5      0  427039
                                             36 BANK0      5     5      0
                         _processDRV
                         _processRTC
 ---------------------------------------------------------------------------------
 (2) _processRTC                                           4     3      1  426656
                                             32 BANK0      4     3      1
                         _rtcGetAClk
                          _rtcGetClk
                          _rtcSetClk
 ---------------------------------------------------------------------------------
 (3) _rtcSetClk                                            6     6      0  141324
                                             49 COMRAM     6     6      0
                           _SetClock
                               _free
                            _getArgs
                          _getBuffer
                             _malloc
 ---------------------------------------------------------------------------------
 (4) _malloc                                              14    12      2    2518
                                             24 COMRAM    12    10      2
                      ___expand_heap
                 ___simple_search_fl
 ---------------------------------------------------------------------------------
 (5) ___simple_search_fl                                  20    18      2    1287
                                              4 COMRAM    20    18      2
 ---------------------------------------------------------------------------------
 (5) ___expand_heap                                        8     6      2     299
                                              4 COMRAM     8     6      2
 ---------------------------------------------------------------------------------
 (4) _getArgs                                              4     0      4     952
                                             14 COMRAM     4     0      4
                          _getBuffer
 ---------------------------------------------------------------------------------
 (4) _getBuffer                                           10     6      4     682
                                              4 COMRAM    10     6      4
 ---------------------------------------------------------------------------------
 (4) _free                                                10     8      2     617
                                              4 COMRAM    10     8      2
 ---------------------------------------------------------------------------------
 (4) _SetClock                                            25    19      6  136053
                                             24 COMRAM    25    19      6
            _I2C1_Write1ByteRegister
                            ___awdiv
 ---------------------------------------------------------------------------------
 (5) _I2C1_Write1ByteRegister                              3     1      2  131787
                                             21 COMRAM     3     1      2
                         _I2C1_Close
                   _I2C1_MasterWrite
                          _I2C1_Open
        _I2C1_SetAddressNackCallback
                     _I2C1_SetBuffer
       _I2C1_SetDataCompleteCallback
 ---------------------------------------------------------------------------------
 (3) _rtcGetClk                                           32    32      0  137218
                                              0 BANK0     32    32      0
                          _ReadClock
                            ___awdiv
                         _sendBuffer
                      _sendBufferLen
 ---------------------------------------------------------------------------------
 (3) _rtcGetAClk                                          30    30      0  147948
                                             83 COMRAM     2     2      0
                                              0 BANK0     28    28      0
                          _ReadClock
                            _asctime
                         _sendBuffer
                      _sendBufferLen
                             _strlen
 ---------------------------------------------------------------------------------
 (4) _strlen                                               4     2      2     234
                                              4 COMRAM     4     2      2
 ---------------------------------------------------------------------------------
 (4) _sendBufferLen                                        4     2      2    1373
                                             18 COMRAM     4     2      2
                         _sendBuffer
 ---------------------------------------------------------------------------------
 (5) _sendBuffer                                          14    10      4    1026
                                              4 COMRAM    14    10      4
 ---------------------------------------------------------------------------------
 (4) _asctime                                              8     6      2   13292
                                             17 COMRAM     8     6      2
                            ___awdiv
                            ___awmod
                             ___wmul
                              _put2d
 ---------------------------------------------------------------------------------
 (5) _put2d                                                5     0      5    5984
                                             12 COMRAM     5     0      5
                            ___awdiv
                            ___awmod
 ---------------------------------------------------------------------------------
 (6) ___awmod                                              6     2      4     765
                                              4 COMRAM     6     2      4
 ---------------------------------------------------------------------------------
 (5) ___awdiv                                              8     4      4    2441
                                              4 COMRAM     8     4      4
 ---------------------------------------------------------------------------------
 (5) ___wmul                                               6     2      4    3240
                                              4 COMRAM     6     2      4
 ---------------------------------------------------------------------------------
 (4) _ReadClock                                           59    35     24  131773
                                             24 COMRAM    59    35     24
             _I2C1_Read1ByteRegister
 ---------------------------------------------------------------------------------
 (5) _I2C1_Read1ByteRegister                               3     2      1  131093
                                             21 COMRAM     3     2      1
                         _I2C1_Close
                   _I2C1_MasterWrite
                          _I2C1_Open
        _I2C1_SetAddressNackCallback
                     _I2C1_SetBuffer
       _I2C1_SetDataCompleteCallback
 ---------------------------------------------------------------------------------
 (6) _I2C1_SetAddressNackCallback                          5     0      5    2567
                                             10 COMRAM     5     0      5
                   _I2C1_SetCallback
 ---------------------------------------------------------------------------------
 (6) _I2C1_Open                                            2     2      0      68
                                              4 COMRAM     2     2      0
                _I2C1_MasterClearIrq
                    _I2C1_MasterOpen
 ---------------------------------------------------------------------------------
 (7) _I2C1_MasterOpen                                      0     0      0       0
 ---------------------------------------------------------------------------------
 (6) _I2C1_MasterWrite                                     0     0      0  121585
               _I2C1_MasterOperation
 ---------------------------------------------------------------------------------
 (7) _I2C1_MasterOperation                                 2     2      0  121585
                                             19 COMRAM     2     2      0
                   _I2C1_MasterStart
                        _I2C1_Poller
 ---------------------------------------------------------------------------------
 (8) _I2C1_Poller                                          0     0      0  121517
                     _I2C1_MasterFsm
            _I2C1_MasterWaitForEvent
 ---------------------------------------------------------------------------------
 (9) _I2C1_MasterWaitForEvent                              0     0      0       0
 ---------------------------------------------------------------------------------
 (9) _I2C1_MasterFsm                                       0     0      0  121517
               _I2C1_DO_ADDRESS_NACK *
                       _I2C1_DO_IDLE *
                       _I2C1_DO_RCEN *
                      _I2C1_DO_RESET *
                         _I2C1_DO_RX *
                     _I2C1_DO_RX_ACK *
            _I2C1_DO_RX_NACK_RESTART *
               _I2C1_DO_RX_NACK_STOP *
              _I2C1_DO_SEND_ADR_READ *
             _I2C1_DO_SEND_ADR_WRITE *
               _I2C1_DO_SEND_RESTART *
          _I2C1_DO_SEND_RESTART_READ *
         _I2C1_DO_SEND_RESTART_WRITE *
                  _I2C1_DO_SEND_STOP *
                         _I2C1_DO_TX *
                   _I2C1_DO_TX_EMPTY *
                _I2C1_MasterClearIrq
                  _I2C1_MasterIsNack
 ---------------------------------------------------------------------------------
 (10) _I2C1_DO_TX_EMPTY                                    2     2      0   30356
                                             17 COMRAM     2     2      0
                   Absolute function *
           _I2C1_CallbackReturnReset *
            _I2C1_CallbackReturnStop *
               _I2C1_DO_SEND_RESTART
                  _I2C1_DO_SEND_STOP
                  _I2C1_MasterSetIrq
              _rd1RegCompleteHandler *
              _rd2RegCompleteHandler *
            _rdBlkRegCompleteHandler *
              _wr1RegCompleteHandler *
              _wr2RegCompleteHandler *
 ---------------------------------------------------------------------------------
 (11) _I2C1_MasterSetIrq                                   0     0      0       0
 ---------------------------------------------------------------------------------
 (10) _I2C1_DO_TX                                          2     2      0   30387
                                             17 COMRAM     2     2      0
                   Absolute function *
           _I2C1_CallbackReturnReset *
            _I2C1_CallbackReturnStop *
          _I2C1_DO_SEND_RESTART_READ
         _I2C1_DO_SEND_RESTART_WRITE
                  _I2C1_DO_SEND_STOP
                  _I2C1_MasterIsNack
              _I2C1_MasterSendTxData
              _rd1RegCompleteHandler *
              _rd2RegCompleteHandler *
            _rdBlkRegCompleteHandler *
              _wr1RegCompleteHandler *
              _wr2RegCompleteHandler *
 ---------------------------------------------------------------------------------
 (10) _I2C1_MasterIsNack                                   0     0      0       0
 ---------------------------------------------------------------------------------
 (11) _I2C1_DO_SEND_RESTART_WRITE                          0     0      0       0
           _I2C1_MasterEnableRestart
 ---------------------------------------------------------------------------------
 (11) _I2C1_DO_SEND_RESTART_READ                           0     0      0       0
           _I2C1_MasterEnableRestart
 ---------------------------------------------------------------------------------
 (10) _I2C1_DO_SEND_ADR_WRITE                              0     0      0      31
              _I2C1_MasterSendTxData
 ---------------------------------------------------------------------------------
 (10) _I2C1_DO_SEND_ADR_READ                               0     0      0      31
              _I2C1_MasterSendTxData
 ---------------------------------------------------------------------------------
 (11) _I2C1_MasterSendTxData                               1     1      0      31
                                              4 COMRAM     1     1      0
 ---------------------------------------------------------------------------------
 (10) _I2C1_DO_RX_ACK                                      0     0      0       0
                 _I2C1_MasterSendAck
 ---------------------------------------------------------------------------------
 (10) _I2C1_DO_RX                                          2     2      0   30356
                                             17 COMRAM     2     2      0
                   Absolute function *
           _I2C1_CallbackReturnReset *
            _I2C1_CallbackReturnStop *
            _I2C1_DO_RX_NACK_RESTART
               _I2C1_DO_RX_NACK_STOP
               _I2C1_MasterGetRxData
                 _I2C1_MasterSendAck
              _rd1RegCompleteHandler *
              _rd2RegCompleteHandler *
            _rdBlkRegCompleteHandler *
              _wr1RegCompleteHandler *
              _wr2RegCompleteHandler *
 ---------------------------------------------------------------------------------
 (11) _I2C1_MasterSendAck                                  0     0      0       0
 ---------------------------------------------------------------------------------
 (11) _I2C1_MasterGetRxData                                0     0      0       0
 ---------------------------------------------------------------------------------
 (10) _I2C1_DO_RX_NACK_STOP                                0     0      0       0
                _I2C1_MasterSendNack
 ---------------------------------------------------------------------------------
 (10) _I2C1_DO_RX_NACK_RESTART                             0     0      0       0
                _I2C1_MasterSendNack
 ---------------------------------------------------------------------------------
 (11) _I2C1_MasterSendNack                                 0     0      0       0
 ---------------------------------------------------------------------------------
 (10) _I2C1_DO_RESET                                       0     0      0       0
 ---------------------------------------------------------------------------------
 (10) _I2C1_DO_RCEN                                        0     0      0       0
                 _I2C1_MasterStartRx
 ---------------------------------------------------------------------------------
 (11) _I2C1_MasterStartRx                                  0     0      0       0
 ---------------------------------------------------------------------------------
 (10) _I2C1_DO_IDLE                                        0     0      0       0
 ---------------------------------------------------------------------------------
 (10) _I2C1_DO_ADDRESS_NACK                                2     2      0   30356
                                             17 COMRAM     2     2      0
                   Absolute function *
           _I2C1_CallbackReturnReset *
            _I2C1_CallbackReturnStop *
               _I2C1_DO_SEND_RESTART
                  _I2C1_DO_SEND_STOP
              _rd1RegCompleteHandler *
              _rd2RegCompleteHandler *
            _rdBlkRegCompleteHandler *
              _wr1RegCompleteHandler *
              _wr2RegCompleteHandler *
 ---------------------------------------------------------------------------------
 (11) _wr2RegCompleteHandler                               2     0      2    5988
                                             15 COMRAM     2     0      2
                     _I2C1_SetBuffer
       _I2C1_SetDataCompleteCallback
 ---------------------------------------------------------------------------------
 (11) _wr1RegCompleteHandler                               2     0      2    5988
                                             15 COMRAM     2     0      2
                     _I2C1_SetBuffer
       _I2C1_SetDataCompleteCallback
 ---------------------------------------------------------------------------------
 (11) _rdBlkRegCompleteHandler                             2     0      2    6019
                                             15 COMRAM     2     0      2
                     _I2C1_SetBuffer
       _I2C1_SetDataCompleteCallback
 ---------------------------------------------------------------------------------
 (11) _rd2RegCompleteHandler                               2     0      2    5988
                                             15 COMRAM     2     0      2
                     _I2C1_SetBuffer
       _I2C1_SetDataCompleteCallback
 ---------------------------------------------------------------------------------
 (11) _rd1RegCompleteHandler                               2     0      2    5988
                                             15 COMRAM     2     0      2
                     _I2C1_SetBuffer
       _I2C1_SetDataCompleteCallback
 ---------------------------------------------------------------------------------
 (6) _I2C1_SetDataCompleteCallback                         5     0      5    3399
                                             10 COMRAM     5     0      5
                   _I2C1_SetCallback
 ---------------------------------------------------------------------------------
 (7) _I2C1_SetCallback                                     6     1      5    1257
                                              4 COMRAM     6     1      5
 ---------------------------------------------------------------------------------
 (6) _I2C1_SetBuffer                                       4     0      4    2558
                                              4 COMRAM     4     0      4
 ---------------------------------------------------------------------------------
 (11) _I2C1_DO_SEND_STOP                                   0     0      0       0
                    _I2C1_MasterStop
 ---------------------------------------------------------------------------------
 (12) _I2C1_MasterStop                                     0     0      0       0
 ---------------------------------------------------------------------------------
 (11) _I2C1_DO_SEND_RESTART                                0     0      0       0
           _I2C1_MasterEnableRestart
 ---------------------------------------------------------------------------------
 (12) _I2C1_MasterEnableRestart                            0     0      0       0
 ---------------------------------------------------------------------------------
 (11) _I2C1_CallbackReturnStop                             2     0      2       0
                                             15 COMRAM     2     0      2
 ---------------------------------------------------------------------------------
 (11) _I2C1_CallbackReturnReset                            2     0      2     385
                                             15 COMRAM     2     0      2
 ---------------------------------------------------------------------------------
 (17) Absolute function(Fake)                              2     0      2       0
 ---------------------------------------------------------------------------------
 (8) _I2C1_MasterStart                                     0     0      0       0
 ---------------------------------------------------------------------------------
 (6) _I2C1_Close                                           1     1      0      37
                                              4 COMRAM     1     1      0
                _I2C1_MasterClearIrq
                   _I2C1_MasterClose
              _I2C1_MasterDisableIrq
 ---------------------------------------------------------------------------------
 (7) _I2C1_MasterDisableIrq                                0     0      0       0
 ---------------------------------------------------------------------------------
 (7) _I2C1_MasterClose                                     0     0      0       0
 ---------------------------------------------------------------------------------
 (7) _I2C1_MasterClearIrq                                  0     0      0       0
 ---------------------------------------------------------------------------------
 (2) _processDRV                                           2     1      1      89
                                              4 COMRAM     1     0      1
 ---------------------------------------------------------------------------------
 (1) _TMR0_StartTimer                                      0     0      0       0
 ---------------------------------------------------------------------------------
 (1) _SYSTEM_Initialize                                    0     0      0     200
                    _I2C1_Initialize
               _INTERRUPT_Initialize
              _OSCILLATOR_Initialize
             _PIN_MANAGER_Initialize
                     _PMD_Initialize
                    _SPI2_Initialize
                    _TMR0_Initialize
 ---------------------------------------------------------------------------------
 (2) _TMR0_Initialize                                      0     0      0     200
           _TMR0_SetInterruptHandler
 ---------------------------------------------------------------------------------
 (1) _TMR0_SetInterruptHandler                             3     0      3     200
                                              4 COMRAM     3     0      3
 ---------------------------------------------------------------------------------
 (2) _SPI2_Initialize                                      0     0      0       0
 ---------------------------------------------------------------------------------
 (2) _PMD_Initialize                                       0     0      0       0
 ---------------------------------------------------------------------------------
 (2) _PIN_MANAGER_Initialize                               0     0      0       0
 ---------------------------------------------------------------------------------
 (2) _OSCILLATOR_Initialize                                0     0      0       0
 ---------------------------------------------------------------------------------
 (2) _INTERRUPT_Initialize                                 0     0      0       0
 ---------------------------------------------------------------------------------
 (2) _I2C1_Initialize                                      0     0      0       0
 ---------------------------------------------------------------------------------
 Estimated maximum stack depth 17
 ---------------------------------------------------------------------------------
 (Depth) Function   	        Calls       Base Space   Used Autos Params    Refs
 ---------------------------------------------------------------------------------
 (14) _INTERRUPT_InterruptManager                          2     2      0      90
                                              2 COMRAM     2     2      0
                    _PIN_MANAGER_IOC
                           _TMR0_ISR
 ---------------------------------------------------------------------------------
 (15) _TMR0_ISR                                            0     0      0      90
                      _TMR0_CallBack
 ---------------------------------------------------------------------------------
 (16) _TMR0_CallBack                                       0     0      0      90
                   Absolute function *
                        _DRVA_TMR_ms *
       _TMR0_DefaultInterruptHandler *
 ---------------------------------------------------------------------------------
 (17) _TMR0_DefaultInterruptHandler                        0     0      0       0
 ---------------------------------------------------------------------------------
 (17) _DRVA_TMR_ms                                         2     2      0      90
                                              0 COMRAM     2     2      0
 ---------------------------------------------------------------------------------
 (17) Absolute function(Fake)                              2     0      2       0
 ---------------------------------------------------------------------------------
 (15) _PIN_MANAGER_IOC                                     0     0      0       0
 ---------------------------------------------------------------------------------
 Estimated maximum stack depth 17
 ---------------------------------------------------------------------------------

 Call Graph Graphs:

 _main (ROOT)
   _SYSTEM_Initialize
     _I2C1_Initialize
     _INTERRUPT_Initialize
     _OSCILLATOR_Initialize
     _PIN_MANAGER_Initialize
     _PMD_Initialize
     _SPI2_Initialize
     _TMR0_Initialize
       _TMR0_SetInterruptHandler
   _TMR0_SetInterruptHandler
   _TMR0_StartTimer
   _rtcdrv_poll
     _processDRV
     _processRTC
       _rtcGetAClk
         _ReadClock
           _I2C1_Read1ByteRegister
             _I2C1_Close
               _I2C1_MasterClearIrq
               _I2C1_MasterClose
               _I2C1_MasterDisableIrq
             _I2C1_MasterWrite
               _I2C1_MasterOperation
                 _I2C1_MasterStart
                 _I2C1_Poller
                   _I2C1_MasterFsm
                     _I2C1_DO_ADDRESS_NACK *
                       Absolute function(Fake) *
                       _I2C1_CallbackReturnReset *
                       _I2C1_CallbackReturnStop *
                       _I2C1_DO_SEND_RESTART *
                         _I2C1_MasterEnableRestart
                       _I2C1_DO_SEND_STOP *
                         _I2C1_MasterStop
                       _rd1RegCompleteHandler *
                         _I2C1_SetBuffer
                         _I2C1_SetDataCompleteCallback
                           _I2C1_SetCallback
                       _rd2RegCompleteHandler *
                         _I2C1_SetBuffer
                         _I2C1_SetDataCompleteCallback
                       _rdBlkRegCompleteHandler *
                         _I2C1_SetBuffer
                         _I2C1_SetDataCompleteCallback
                       _wr1RegCompleteHandler *
                         _I2C1_SetBuffer
                         _I2C1_SetDataCompleteCallback
                       _wr2RegCompleteHandler *
                         _I2C1_SetBuffer
                         _I2C1_SetDataCompleteCallback
                     _I2C1_DO_IDLE *
                     _I2C1_DO_RCEN *
                       _I2C1_MasterStartRx
                     _I2C1_DO_RESET *
                     _I2C1_DO_RX *
                       Absolute function(Fake) *
                       _I2C1_CallbackReturnReset *
                       _I2C1_CallbackReturnStop *
                       _I2C1_DO_RX_NACK_RESTART *
                         _I2C1_MasterSendNack
                       _I2C1_DO_RX_NACK_STOP *
                         _I2C1_MasterSendNack
                       _I2C1_MasterGetRxData *
                       _I2C1_MasterSendAck *
                       _rd1RegCompleteHandler *
                       _rd2RegCompleteHandler *
                       _rdBlkRegCompleteHandler *
                       _wr1RegCompleteHandler *
                       _wr2RegCompleteHandler *
                     _I2C1_DO_RX_ACK *
                       _I2C1_MasterSendAck
                     _I2C1_DO_RX_NACK_RESTART *
                     _I2C1_DO_RX_NACK_STOP *
                     _I2C1_DO_SEND_ADR_READ *
                       _I2C1_MasterSendTxData
                     _I2C1_DO_SEND_ADR_WRITE *
                       _I2C1_MasterSendTxData
                     _I2C1_DO_SEND_RESTART *
                     _I2C1_DO_SEND_RESTART_READ *
                       _I2C1_MasterEnableRestart
                     _I2C1_DO_SEND_RESTART_WRITE *
                       _I2C1_MasterEnableRestart
                     _I2C1_DO_SEND_STOP *
                     _I2C1_DO_TX *
                       Absolute function(Fake) *
                       _I2C1_CallbackReturnReset *
                       _I2C1_CallbackReturnStop *
                       _I2C1_DO_SEND_RESTART_READ *
                       _I2C1_DO_SEND_RESTART_WRITE *
                       _I2C1_DO_SEND_STOP *
                       _I2C1_MasterIsNack *
                       _I2C1_MasterSendTxData *
                       _rd1RegCompleteHandler *
                       _rd2RegCompleteHandler *
                       _rdBlkRegCompleteHandler *
                       _wr1RegCompleteHandler *
                       _wr2RegCompleteHandler *
                     _I2C1_DO_TX_EMPTY *
                       Absolute function(Fake) *
                       _I2C1_CallbackReturnReset *
                       _I2C1_CallbackReturnStop *
                       _I2C1_DO_SEND_RESTART *
                       _I2C1_DO_SEND_STOP *
                       _I2C1_MasterSetIrq *
                       _rd1RegCompleteHandler *
                       _rd2RegCompleteHandler *
                       _rdBlkRegCompleteHandler *
                       _wr1RegCompleteHandler *
                       _wr2RegCompleteHandler *
                     _I2C1_MasterClearIrq *
                     _I2C1_MasterIsNack *
                   _I2C1_MasterWaitForEvent
             _I2C1_Open
               _I2C1_MasterClearIrq
               _I2C1_MasterOpen
             _I2C1_SetAddressNackCallback
               _I2C1_SetCallback
             _I2C1_SetBuffer
             _I2C1_SetDataCompleteCallback
         _asctime
           ___awdiv
           ___awmod
           ___wmul
           _put2d
             ___awdiv
             ___awmod
         _sendBuffer
         _sendBufferLen
           _sendBuffer
         _strlen
       _rtcGetClk
         _ReadClock
         ___awdiv
         _sendBuffer
         _sendBufferLen
       _rtcSetClk
         _SetClock
           _I2C1_Write1ByteRegister
             _I2C1_Close
             _I2C1_MasterWrite
             _I2C1_Open
             _I2C1_SetAddressNackCallback
             _I2C1_SetBuffer
             _I2C1_SetDataCompleteCallback
           ___awdiv
         _free
         _getArgs
           _getBuffer
         _getBuffer
         _malloc
           ___expand_heap
           ___simple_search_fl

 _INTERRUPT_InterruptManager (ROOT)
   _PIN_MANAGER_IOC
   _TMR0_ISR
     _TMR0_CallBack
       Absolute function(Fake) *
       _DRVA_TMR_ms *
       _TMR0_DefaultInterruptHandler *

 Address spaces:
Name               Size   Autos  Total    Cost      Usage
BIGRAM             E87      0     455      63       29.8%
EEDATA             400      0       0       0        0.0%
BITBANK13          100      0       0      30        0.0%
BANK13             100      0       0      31        0.0%
BITBANK12          100      0       0      28        0.0%
BANK12             100      0       0      29        0.0%
BITBANK11          100      0       0      26        0.0%
BANK11             100      0       0      27        0.0%
BITBANK10          100      0       0      24        0.0%
BANK10             100      0       0      25        0.0%
BITBANK9           100      0       0      22        0.0%
BANK9              100      0       0      23        0.0%
BITBANK8           100      0       0      20        0.0%
BANK8              100      0       0      21        0.0%
BITBANK7           100      0       0      18        0.0%
BANK7              100      0       0      19        0.0%
BITBANK6           100      0       0      16        0.0%
BANK6              100      0       0      17        0.0%
BITBANK5           100      0       0      14        0.0%
BANK5              100      0       0      15        0.0%
BITBANK4           100      0       0      12        0.0%
BANK4              100      0       0      13        0.0%
BITBANK3           100      0       0      10        0.0%
BANK3              100      0       0      11        0.0%
BITBANK2           100      0       0       8        0.0%
BANK2              100      0       0       9        0.0%
BITBANK1           100      0       0       6        0.0%
BANK1              100      0       0       7        0.0%
BITBANK0            A0      0       0       4        0.0%
BANK0               A0     29      9F       5       99.4%
BITBANK14           88      0       0      32        0.0%
BANK14              88      0       0      33        0.0%
BITCOMRAM           5E      0       0       0        0.0%
COMRAM              5E     55      5A       1       95.7%
BITBIGSFRlhhhhh     55      0       0      41        0.0%
BITBIGSFRhhhll      3A      0       0      36        0.0%
BITBIGSFRlllhlh     1F      0       0      58        0.0%
BITBIGSFRhhhhl      1B      0       0      35        0.0%
BITBIGSFRlhhhhh     11      0       0      46        0.0%
BITBIGSFRhhhhh       D      0       0      34        0.0%
BITBIGSFRllhh        A      0       0      53        0.0%
BITBIGSFRlllhh       9      0       0      57        0.0%
BITBIGSFRlhhhhh      9      0       0      49        0.0%
BITBIGSFRlhhhhh      8      0       0      43        0.0%
BITBIGSFRlhhhhh      7      0       0      47        0.0%
BITBIGSFRllhlhl      4      0       0      55        0.0%
BITBIGSFRlhhhhh      3      0       0      45        0.0%
BITBIGSFRlhhhhh      3      0       0      44        0.0%
BITBIGSFRllhlhh      2      0       0      54        0.0%
BITBIGSFRllhll       2      0       0      56        0.0%
BITBIGSFRlhhhhh      2      0       0      42        0.0%
BITBIGSFRhlh         2      0       0      39        0.0%
BITBIGSFRlhhhhl      2      0       0      50        0.0%
BITBIGSFRhhll        2      0       0      38        0.0%
BITBIGSFRhll         2      0       0      40        0.0%
BITBIGSFRllll        2      0       0      61        0.0%
BITBIGSFRlllhll      1      0       0      59        0.0%
BITBIGSFRhhlh        1      0       0      37        0.0%
BITBIGSFRlhhhhh      1      0       0      48        0.0%
BITBIGSFRlllhll      1      0       0      60        0.0%
BITBIGSFRlhhl        1      0       0      51        0.0%
BITBIGSFRlhl         1      0       0      52        0.0%
BIGSFR               0      0       0     200        0.0%
BITSFR_2             0      0       0     200        0.0%
SFR_2                0      0       0     200        0.0%
BITSFR_1             0      0       0     200        0.0%
SFR_1                0      0       0     200        0.0%
BITSFR               0      0       0     200        0.0%
SFR                  0      0       0     200        0.0%
STACK                0      0       0       2        0.0%
NULL                 0      0       0       0        0.0%
ABS                  0      0      F9      62        0.0%
DATA                 0      0     54E       3        0.0%
CODE                 0      0       0       0        0.0%


Microchip Technology PIC18 Macro Assembler V2.36 build 20220127204148 
Symbol Table                                                                                   Sat Jul 02 17:01:52 2022

                         rtcSetClk@buffer 0036                                        l33 1500  
                                      l51 1576                                        l90 1942  
                                      l93 1912                                        l96 18E2  
                                      l99 1972                              ___awdiv@sign 000A  
                     ___wmul@multiplicand 0007                         rtcSetClk@argCount 0033  
                            ?_DRVA_TMR_ms 0001                                       l102 184A  
                   ?_I2C1_MasterOperation 0001                              ___awmod@sign 000A  
                                     prod 000FF3                                       tosl 000FFD  
                                     wreg 000FE8                    ?_I2C1_MasterSendTxData 0001  
                      rtcSetClk@argBuffer 0034                      _I2C1_DO_RX_NACK_STOP 1C1C  
               ?_I2C1_MasterEnableRestart 0001                  fp__I2C1_DO_SEND_ADR_READ 0000  
                 fp__I2C1_DO_SEND_RESTART 0000                      I2C1_SetBuffer@buffer 0005  
                     SetClock@monthOPlace 0023                        SetClock@yearOPlace 0024  
                     SetClock@monthTPlace 0030                        SetClock@yearTPlace 0031  
                                    l1300 1B34                   ??_rd2RegCompleteHandler 0012  
                                    l1504 1A5E                                      l2240 0F48  
                                    l1601 1C42                                      l1513 1AFC  
                                    l1610 1C2A                                      l1530 1AC2  
                                    l1507 1B18                                      l2227 0DE8  
                                    l1524 1406                                      l1700 1C58  
                                    l1540 1BC0                                      l1604 1C3A  
                                    l1613 1C22                                      l1294 1AE0  
                                    l1534 1658                                      l1367 15EC  
                                    l1543 1BB0                                      l1607 1C32  
                                    l1703 1B90                                      l1616 1C1A  
                                    l1297 1B4C                                      l1801 19EE  
                                    l1633 1C80                                      l1537 1C00  
                                    l1625 16C4                                      l1481 113C  
                                    l1546 0CEC                                      l1562 102A  
                                    l1563 109A                                      l1619 1BE8  
                                    l1707 1BA0                                      l1491 1806  
                                    l1804 1C94                                      l1636 1C7C  
                                    l1652 1C74                                      l1580 1484  
                                    l2700 07C4                                      l1477 1B64  
                                    l1485 199E                                      l1549 0D24  
                                    l1670 1C84                                      l1574 1BF4  
                                    l1646 1AA4                                      l1655 1C52  
                                    l1736 1A82                                      l1664 1C78  
                                    l1920 0BE0                                      l1912 0B90  
                                    l1649 1C90                                      l1673 1B8E  
                                    l1497 1C12                                      l1842 1C98  
                                    l1826 1BCE                                      l1658 1C88  
                                    l1930 0C5A                                      l1914 0BB2  
                                    l1667 1C8C                                      l1676 1C5E  
                                    l1932 0C5C                                      l1924 0C0C  
                                    l1916 0BBC                                      l2724 0A16  
                                    l1694 1C6A                                      l1598 1C4A  
                                    l1926 0C2E                                      l1918 0BDE  
                                    l1942 114C                                      l2726 0A62  
                                    l1679 1C64                                      l1951 11C4  
                                    l2727 0A0A                                      l5400 1584  
                                    l2672 1382                                      l1928 0C38  
                                    l2752 1880                                      l1960 12FE  
                                    l1880 091A                                      l2744 0E98  
                                    l1697 1C70                                      l1937 1A14  
                                    l1945 1176                                      l5410 15C0  
                                    l5402 15B8                                      l1954 11DC  
                                    l1883 065E                                      l1947 1198  
                                    l2739 0E16                                      l2691 0126  
                                    l2683 0278                                      l5412 15C2  
                                    l5404 15BA                                      l6116 1C92  
                                    l2677 04BE                                      l1965 127A  
                                    l1949 11A2                                      l1957 1B7A  
                                    l5414 15C8                                      l5406 15BC  
                                    l2694 0234                                      l1990 0FBA  
                                    l1983 0F66                                      l5416 1B36  
                                    l5408 15BE                                      l1968 0B62  
                                    l1976 171C                                      l1985 0F8A  
                                    l1993 0FF2                                      l1979 1C9A  
                                    l1987 0F94                                      l1996 1A3A  
                                    l1989 0FB8                                      l5390 1B62  
                                    l5384 1C96                                      l5392 1A60  
                                    l5386 1B1A                                      l5394 1A7E  
                                    l5388 1B4E                                      l5396 1A80  
                                    l5398 1578                                      l9354 1BC2  
                                    STR_1 FFD8                                      STR_3 FFF7  
                                    STR_5 FFF1                                      STR_7 FFFB  
                                    STR_8 FFE7                                      _LATA 000F83  
                                    _LATB 000F84                                      _LATC 000F85  
                                    _PMD0 000EE1                                      _PMD1 000EE2  
                                    _PMD2 000EE3                                      _PMD3 000EE4  
                                    _PMD4 000EE5                                      _PMD5 000EE6  
                                    _WPUA 000F10                                      _WPUB 000F18  
                                    _WPUC 000F20                                      _WPUE 000F2D  
                              ReadClock@t 003C                   ??_wr2RegCompleteHandler 0012  
                        ??_I2C1_MasterFsm 0014                                      _Fsid 00A0  
               ??_I2C1_CallbackReturnStop 0012                     __end_of_sendBufferLen 1A16  
                                    _file 0332                                      _brkp 0096  
                                    _free 0660                                      _main 19A0  
                         _TMR0_StartTimer 1C92                                      fsr1h 000FE2  
                                    fsr2h 000FDA                                      indf2 000FDF  
                                    fsr1l 000FE1                                      fsr2l 000FD9  
                                    btemp 005B                                      prodh 000FF4  
                                    prodl 000FF3                                      start 0064  
                        ??_I2C1_SetBuffer 0009                             processDRV@cmd 0001  
                      processDRV@argCount 0005                              ___param_bank 000000  
           I2C1_CallbackReturnStop@funPtr 0010                             processRTC@cmd 00E9  
                 __end_of_TMR0_Initialize 19F0                          getArgs@argsCount 000F  
          ??_TMR0_DefaultInterruptHandler 0001             __end_of_OSCILLATOR_Initialize 1B4E  
                                   l10020 19DA                                     l10022 19EA  
                                   l10014 19C8                                     l10016 19D4  
                                   l10018 19D8                                     l12100 1C3C  
                                   l12030 13D2                                     l12102 1C40  
                                   l12040 1A5C                                     l12032 1AFE  
                                   l12112 1C72                                     l12200 0D22  
                                   l12120 1C18                                     l12042 1C86  
                                   l12034 1A3C                                     l12026 1386  
                                   l12050 1928                                     l12130 1C76  
                                   l12210 1002                                     l12106 1C2C  
                                   l10700 1AC4                                     l12044 1C82  
                                   l12036 1A4C                                     l12028 139A  
                                   l12052 1940                                     l12060 1910  
                                   l12140 1C7E                                     l12116 1C5A  
                                   l12212 1008                                     l12132 1C34  
                                   l12108 1C30                                     l12124 1C1C  
                                   l10710 1AD8                                     l10702 1AC8  
                                   l12038 1A54                                     l12046 1C60  
                                   l12150 1BF6                                     l12222 1030  
                                   l12214 1020                                     l12134 1C38  
                                   l12126 1C20                                     l12118 1C14  
                                   l12310 1602                                     l13030 16CE  
                                   l10712 1ADC                                     l10704 1ACC  
                                   l12072 1944                                     l12048 1914  
                                   l12056 18E4                                     l12064 18B4  
                                   l12080 1808                                     l12144 1C7A  
                                   l12152 1BFA                                     l12160 1BB6  
                                   l12232 1040                                     l12216 1024  
                                   l12208 0FF4                                     l12240 1BEE  
                                   l12312 1616                                     l12320 1AAA  
                                   l12400 1132                                     l13032 16D6  
                                   l10706 1AD0                                     l12074 1958  
                                   l12058 18F8                                     l12066 18C8  
                                   l12082 1830                                     l12138 1C54  
                                   l12154 1BFE                                     l12162 1BBE  
                                   l12170 1BAE                                     l12226 1038  
                                   l12242 1BF2                                     l12314 161C  
                                   l12306 15EE                                     l12322 1AAE  
                                   l12410 1C0C                                     l12330 1AA2  
                                   l12402 1136                                     l13034 16DE  
                                   l13210 0F5C                                     l10708 1AD4  
                                   l12148 1C6C                                     l12420 198C  
                                   l12316 1C8A                                     l12076 1970  
                                   l12068 18E0                                     l12084 1848  
                                   l12092 1C4E                                     l12252 1418  
                                   l12308 15F2                                     l12324 1AB2  
                                   l12340 17CA                                     l12404 113A  
                                   l12500 0F28                                     l13028 16CA  
                                   l13220 0F8C                                     l12334 1C66  
                                   l12422 1998                                     l12414 1974  
                                   l12254 141C                                     l12246 1408  
                                   l12158 1BB2                                     l12166 1BA2  
                                   l12182 0C7E                                     l12174 0C5E  
                                   l12238 1BEA                                     l12094 1C44  
                                   l12270 1C24                                     l12318 1AA6  
                                   l12350 17F8                                     l12342 17DA  
                                   l12326 1A84                                     l12510 148C  
                                   l12430 0D2A                                     l12502 0F38  
                                   l13038 16E8                                     l13230 0FC8  
                                   l13206 0F4A                                     l12336 1C8E  
                                   l12424 199C                                     l12416 1978  
                                   l12088 1B7C                                     l12248 1410  
                                   l12264 142A                                     l12168 1BA6  
                                   l12192 0C8E                                     l12096 1C48  
                                   l12272 1C28                                     l12280 1BE6  
                                   l12352 17FC                                     l12344 17DC  
                                   l12328 1A92                                     l12360 109E  
                                   l12408 1AE2                                     l12520 14EA  
                                   l12512 14A2                                     l12440 0D5A  
                                   l12432 0D38                                     l12504 0F40  
                                   l13232 0FDE                                     l13216 0F68  
                                   l13208 0F58                                     l12418 1988  
                                   l12258 1422                                     l12194 0CF0  
                                   l12186 0C86                                     l12178 0C76  
                                   l12354 1800                                     l12346 17E0  
                                   l12338 17C6                                     l12370 10BA  
                                   l12362 10A2                                     l12522 14FE  
                                   l12514 14BA                                     l12450 0D88  
                                   l12442 0D5E                                     l12434 0D40  
                                   l12530 151A                                     l12602 1178  
                                   l13234 0FF0                                     l13226 0F96  
                                   l13218 0F6E                                     l12196 0D02  
                                   l12276 1BDE                                     l12292 166E  
                                   l12284 165A                                     l12348 17F0  
                                   l12356 1804                                     l12380 10D6  
                                   l12372 10BC                                     l12364 10B2  
                                   l12516 14CE                                     l12508 1488  
                                   l12620 1A32                                     l12460 0DBC  
                                   l12452 0D96                                     l12444 0D66  
                                   l12436 0D44                                     l12428 0D26  
                                   l12540 0B64                                     l12532 1532  
                                   l12612 11A4                                     l12604 117C  
                                   l12700 0E40                                     l13228 0F9C  
                                   l12198 0D1C                                     l12278 1BE2  
                                   l12286 165E                                     l12390 1106  
                                   l12382 10DE                                     l12374 10C0  
                                   l12366 10B6                                     l12518 14E6  
                                   l12462 0DC2                                     l12454 0D9C  
                                   l12446 0D78                                     l12438 0D52  
                                   l12630 1370                                     l12542 0B74  
                                   l12534 1546                                     l12526 1504  
                                   l12614 11A8                                     l12606 119A  
                                   l12710 0E88                                     l12702 0E5E  
                                   l12288 1666                                     l12392 1112  
                                   l12384 10EA                                     l12376 10C8  
                                   l12368 10B8                                     l12720 0570  
                                   l12456 0DB2                                     l12448 0D80  
                                   l12464 0DC8                                     l12480 0EB8  
                                   l12472 0E9A                                     l12624 1300  
                                   l12800 02EA                                     l12552 0B92  
                                   l12544 0B84                                     l12536 155E  
                                   l12528 1504                                     l12616 11C6  
                                   l12704 0E74                                     l12640 0042  
                                   l12632 0000                                     l12298 1676  
                                   l12394 111A                                     l12386 10F2  
                                   l12378 10CA                                     l12730 064C  
                                   l12722 059E                                     l12714 04C0  
                                   l12618 1A16                                     l12466 0DD8  
                                   l12458 0DBA                                     l12490 0EF0  
                                   l12482 0EC6                                     l12474 0E9E  
                                   l12626 130C                                     l12810 031C  
                                   l12802 02EE                                     l12562 0BBE  
                                   l12554 0B96                                     l12546 0B88  
                                   l12538 1562                                     l12706 0E7C  
                                   l12642 0062                                     l12634 002A  
                                   l12396 1126                                     l12388 10FE  
                                   l12724 05B2                                     l12716 0514  
                                   l12468 0DE0                                     l12492 0EFE  
                                   l12484 0ECE                                     l12476 0EAC  
                                   l12628 1358                                     l12820 036E  
                                   l12812 0320                                     l12804 02F2  
                                   l12564 0BC2                                     l12556 0BB4  
                                   l12740 0808                                     l12660 0116  
                                   l12644 0074                                     l12652 00BC  
                                   l12900 0A36                                     l13460 19B6  
                                   l12398 112E                                     l12726 05E0  
                                   l12718 0542                                     l12494 0F14  
                                   l12486 0EE0                                     l12478 0EB4  
                                   l12830 03B0                                     l12822 0388  
                                   l12814 034C                                     l12806 030C  
                                   l12574 0C0E                                     l12566 0BEE  
                                   l12750 087E                                     l12742 081E  
                                   l12734 07C8                                     l12910 0660  
                                   l12590 1140                                     l12670 01A8  
                                   l12662 012E                                     l12654 00DA  
                                   l12646 0098                                     l12638 0036  
                                   l12902 0A3E                                     l13462 19B8  
                                   l12728 0616                                     l12496 0F1C  
                                   l12488 0EE8                                     l12840 0462  
                                   l12832 03D4                                     l12824 038C  
                                   l12816 0366                                     l12808 0310  
                                   l12584 0C3A                                     l12576 0C12  
                                   l12568 0C04                                     l12760 08A8  
                                   l12752 0888                                     l12744 083E  
                                   l12736 07DE                                     l12920 06F4  
                                   l12592 115A                                     l12680 0258  
                                   l12672 01CC                                     l12656 00EC  
                                   l12648 00AC                                     l12664 0142  
                                   l12904 0A46                                     l13464 19BC  
                                   l13456 19A0                                     l13570 1074  
                                   l12498 0F22                                     l12842 047A  
                                   l12834 03F8                                     l12826 0390  
                                   l12818 036A                                     l12586 0C3E  
                                   l12578 0C30                                     l12850 184C  
                                   l12770 08E2                                     l12762 08B0  
                                   l12754 0890                                     l12746 0848  
                                   l12738 07E8                                     l12930 0768  
                                   l12922 071C                                     l12914 067E  
                                   l12594 116A                                     l12690 0DEA  
                                   l12682 026C                                     l12674 01DC  
                                   l12666 0154                                     l12906 0A5A  
                                   l13458 19B4                                     l13572 0CC6  
                                   l12844 049E                                     l12836 041C  
                                   l12828 03AA                                     l12780 19F8  
                                   l12852 1858                                     l12940 127C  
                                   l12772 08F0                                     l12764 08B8  
                                   l12756 0898                                     l12748 0868  
                                   l12916 069C                                     l12596 116E  
                                   l12588 113E                                     l12692 0DFA  
                                   l12676 0218                                     l12668 0166  
                                   l12860 091C                                     l13574 145E  
                                   l12846 04B6                                     l12838 043C  
                                   l12790 02A6                                     l12782 1A00  
                                   l12854 185C                                     l12950 12EA  
                                   l12942 128E                                     l12774 08FE  
                                   l12766 08C6                                     l12758 08A0  
                                   l12934 0794                                     l12918 06D4  
                                   l12694 0E0E                                     l12678 024C  
                                   l12870 093A                                     l12862 091C  
                                   l13566 16FE                                     l13568 16AE  
                                   l12792 02AE                                     l12856 1874  
                                   l12944 12A2                                     l12960 1242  
                                   l12952 11DE                                     l12776 090C  
                                   l12768 08D4                                     l12928 0728  
                                   l12936 07AC                                     l12784 1B66  
                                   l12696 0E2C                                     l12880 097E  
                                   l12872 093A                                     l12864 091C  
                                   l12794 02C8                                     l12778 19F0  
                                   l12946 12BC                                     l12970 1256  
                                   l12962 1246                                     l12954 11F0  
                                   l12698 0E34                                     l12882 09A2  
                                   l12874 0950                                     l12866 092E  
                                   l12796 02CC                                     l12788 027A  
                                   l12948 12DE                                     l12972 125A  
                                   l12964 124A                                     l12956 11FC  
                                   l12892 09E0                                     l12884 09AE  
                                   l12876 0958                                     l12868 0932  
                                   l12980 0A8A                                     l12798 02D0  
                                   l12974 1266                                     l12966 124E  
                                   l12958 121C                                     l12894 0A02  
                                   l12886 09C2                                     l12878 096C  
                                   l12982 0AC6                                     l12968 1252  
                                   l12896 0A1E                                     l12888 09D4  
                                   l12984 0B4A                                     l12976 0A66  
                                   l12898 0A26                                     l12986 0B56  
                                   l12978 0A78                         __end_of_I2C1_Open 113E  
                                   ?_free 0005                                     ?_main 0001  
                         __end_of___awdiv 0DEA                                     STR_10 FFC2  
                                   STR_11 FF9D                           __end_of___awmod 0F4A  
                         ___awdiv@divisor 0007                                     u15000 0E0E  
                                   u15001 0E0A                                     u15010 0E2C  
                                   u15011 0E28                                     u15020 0E5E  
                                   u15100 09D4                                     u15021 0E5A  
                                   u15101 09D0                                     u15030 0E74  
                                   u15110 0A02                                     u15031 0E70  
                                   u15111 09FE                                     u15120 067A  
                                   u15041 0656                                     u15121 0676  
                                   u15050 1874                                     u15130 069C  
                                   u15051 1870                                     u15131 0698  
                                   u15140 06D4                                     u15060 092E  
                                   u15141 06D0                                     u15061 092A  
                                   u14430 139A                                     u15150 0768  
                                   u15070 0950                                     u14431 1396  
                                   u15151 0764                                     u15071 094C  
                                   u14440 1A4C                                     u14600 17F0  
                                   u15080 097E                                     u14441 1A48  
                                   u14601 17EC                                     u15161 1286  
                                   u15081 097A                                     u14450 1B8C  
                                   u14530 1BA0                                     u14610 10B2  
                                   u15090 09A2                                     u14451 1B86  
                                   u14531 1B9C                                     u14611 10AE  
                                   u15171 11E8                                     u15091 099E  
                                   u14620 1988                                     u14460 0C72  
                                   u14508 104E                                     u14540 1602  
                                   u14700 0EC6                                     u14621 1984  
                                   u14461 0C6E                                     u14509 1062  
                                   u14541 15FE                                     u14701 0EC2  
                                   u15181 11F6                                     u14518 1438  
                                   u14550 1616                                     u14630 0D38  
                                   u14710 0EE0                                     u14519 144C  
                                   u14551 1612                                     u14631 0D34  
                                   u14711 0EDC                                     u14456 1B8E  
                                   u14480 0D1C                                     u14528 1688  
                                   u14640 0D52                                     u14720 0EFE  
                                   u14800 0BDE                                     u15600 0F8A  
                                   u14481 0D18                                     u14529 169C  
                                   u14641 0D4E                                     u14721 0EFA  
                                   u14801 0BDA                                     u15601 0F86  
                                   u14490 1020                                     u14570 1AC2  
                                   u14650 0D78                                     u14730 0F14  
                                   u14810 0BEE                                     u15610 0FB8  
                                   u14491 101C                                     u14571 1ABE  
                                   u14651 0D74                                     u14731 0F10  
                                   u14811 0BEA                                     u15611 0FB4  
                                   u14580 1A92                                     u14660 0D96  
                                   u14740 0F38                                     u14820 0C04  
                                   u14900 002A                                     u15620 0FC8  
                                   u14581 1A8E                                     u14661 0D92  
                                   u14741 0F34                                     u14821 0C00  
                                   u14901 0026                                     u15621 0FC4  
                                   u14478 0CA0                                     u14590 17DA  
                                   u14750 14A2                                     u14670 0DB2  
                                   u14830 0C2E                                     u14910 0062  
                                   u14479 0CB4                                     u14591 17D6  
                                   u14751 149E                                     u14671 0DAE  
                                   u14831 0C2A                                     u14911 005E  
                                   u14568 163A                                     u14760 14FE  
                                   u14680 0DD8                                     u14840 0C5A  
                                   u14920 0074                                     u14569 1654  
                                   u14761 14FA                                     u14681 0DD4  
                                   u14841 0C56                                     u14921 0070  
                                   u14690 0EAC                                     u14770 151A  
                                   u14850 115A                                     u14930 00DA  
                                   u14691 0EA8                                     u14771 1516  
                                   u14851 1156                                     u14931 00D6  
                                   u14780 1576                                     u14860 1198  
                                   u14940 00EC                                     u14781 1572  
                                   u14861 1194                                     u14941 00E8  
                                   u14790 0BB2                                     u14870 11C4  
                                   u14950 0112                                     u15590 0F58  
                                   u14791 0BAE                                     u14871 11C0  
                                   u14951 010E                                     u15591 0F54  
                                   u14880 11DC                                     u14960 0154  
                                   u14881 11D8                                     u14961 0150  
                                   u14890 1358                                     u14970 0166  
                                   u14891 1354                                     u14971 0162  
                                   u14980 01A8                                     u14981 01A4  
                                   u14990 024C                                     u14991 0248  
                                   i2l185 17C2                           ___awdiv@counter 0009  
                        ReadClock@weekday 0035                __end_of_i2c1_fsmStateTable FF83  
                                   _OSCEN 000EDC                                     _TMR0H 000FD4  
                                   _TMR0L 000FD3                                     _PORTA 000F8D  
                                   _TRISA 000F88                                     _TRISB 000F89  
                                   _TRISC 000F8A                    ??_I2C1_MasterGetRxData 0005  
                                   _FatFs 00A2                     ?_I2C1_DO_RX_NACK_STOP 0001  
                                   _ExCvt FED3                           __end_of_getArgs 1B7C  
               ?_TMR0_SetInterruptHandler 0005                      SetClock@monthToWrite 0029  
                     SetClock@yearToWrite 002A                ??_I2C1_CallbackReturnReset 0012  
                       ??_I2C1_MasterOpen 0005                         ??_I2C1_MasterStop 0005  
                    sendBufferLen@outbuff 0015                         ??_I2C1_Initialize 0005  
                         __end_of_asctime 04C0                          __end_of_TMR0_ISR 1C0C  
                 __end_of_PIN_MANAGER_IOC 1CA0                                     _drive 00FF  
                                   _errno 0098                                     _put2d 1300  
                                   free@c 000D                                     pclath 000FFA  
                                   pclatu 000FFB                                     tablat 000FF5  
                        ___expand_heap@pn 0005                              rtcdrv_poll@d 00EE  
                            rtcdrv_poll@x 00EA                                     plusw0 000FEB  
                                   plusw2 000FDB                                     ttemp5 005C  
                                   ttemp6 005F                                     ttemp7 0063  
                                   status 000FD8                                     wtemp8 005C  
                            ??_I2C1_DO_RX 0012                              ??_I2C1_DO_TX 0012  
                  ??_I2C1_DO_ADDRESS_NACK 0012                              ??_I2C1_Close 0005  
                fp__rd1RegCompleteHandler 0000                           __initialization 171E  
                            __end_of_free 07C6                              __end_of_main 19C8  
                       rtcGetAClk@outSize 00C8                  fp__wr1RegCompleteHandler 0000  
                           ___expand_heap 0DEA                              DRVA_TMR_ms@n 0001  
             ?_INTERRUPT_InterruptManager 0001                           rtcGetClk@F10587 008A  
            fp__I2C1_DO_SEND_RESTART_READ 0000                          __end_of_SetClock 091C  
                                  ??_free 0007                    ??_I2C1_MasterOperation 0014  
                                  ??_main 0056                 SetClock@dayOfMonthToWrite 0028  
                           __activetblptr 000003                        __end_of_I2C1_DO_RX 109C  
                      __end_of_I2C1_DO_TX 0D26                        __end_of_I2C1_Close 19A0  
                 __end_of_TMR0_StartTimer 1C96                   ?_I2C1_Read1ByteRegister 0016  
                                  ?_put2d 000D                          ___awdiv@dividend 0005  
                                  _ANSELA 000F11                                    _ANSELB 000F19  
                                  _ANSELC 000F21                                    _T0CON0 000FD5  
                                  _T0CON1 000FD6                                    _RB1PPS 000EF0  
                                  _RB3PPS 000EF2                                    _RC3PPS 000EFA  
                                  _RC4PPS 000EFB                                    _ODCONA 000F0F  
                                  _ODCONB 000F17                                    _ODCONC 000F1F  
                                  i2l1370 1C9E                                    i2l1823 18B2  
                                  i2l1819 1C0A                                    i2l1851 0058  
                                  i2l1829 1C9C                                    i2l1847 0038  
                                  _INLVLA 000F0D                                    _INLVLB 000F15  
                                  _INLVLC 000F1D                                    _INLVLE 000F2A  
                                  i2l8990 17A2                                    i2l8982 1772  
                                  i2l8992 17B4                                    i2l8984 177A  
                                  i2l8986 178C                                    i2l8988 179A  
                                  _OSCFRQ 000EDE                         ?_I2C1_MasterClose 0001  
                 ??_I2C1_MasterDisableIrq 0005                         ?_I2C1_MasterStart 0001  
                       ?_I2C1_MasterWrite 0001                              ReadClock@day 0039  
                                  _DiskWP 00AA                              ReadClock@min 0037  
                ?_I2C1_MasterWaitForEvent 0001                              ReadClock@sec 0036  
                      ??_I2C1_MasterClose 0005                          _I2C1_DO_TX_EMPTY 1408  
                      ??_I2C1_MasterStart 0005                        ??_I2C1_MasterWrite 0016  
                                  _Timer1 0058                                    _Timer2 00A6  
                          ?___expand_heap 0005                  ?_I2C1_Write1ByteRegister 0016  
                 ___simple_search_fl@best 0017                   ___simple_search_fl@last 0011  
                 ___simple_search_fl@next 0013                                    ___wmul 1A16  
                               ??___awdiv 0009                                 ??___awmod 0009  
                                  _malloc 091C                          ?_TMR0_Initialize 0001  
                                  clear_0 1746                                    clear_1 1758  
                        ___awdiv@quotient 000B                           ___awmod@divisor 0007  
                               ??_getArgs 0013                                    isa$std 000001  
                         ___awmod@counter 0009                                 ??_asctime 0014  
                ??_I2C1_DO_SEND_ADR_WRITE 0006                                    _strlen 184C  
                       ?_I2C1_SetCallback 0005                    ??_I2C1_DO_RX_NACK_STOP 0005  
                   _I2C1_DO_SEND_ADR_READ 1BB2                            _PMD_Initialize 1B1A  
           ?_I2C1_SetDataCompleteCallback 000B                                    put2d@i 000F  
                      ??_I2C1_SetCallback 000A                              __mediumconst FED2  
          __end_of_I2C1_Read1ByteRegister 1502                                    tblptrh 000FF7  
                                  tblptrl 000FF6                                    tblptru 000FF8  
                   __end_of_TMR0_CallBack 18B4  TMR0_SetInterruptHandler@InterruptHandler 0005  
                        ?_PIN_MANAGER_IOC 0001                   _I2C1_DO_RX_NACK_RESTART 1C14  
              fp__I2C1_DO_RX_NACK_RESTART 0000                         _SYSTEM_Initialize 1AC4  
          I2C1_SetDataCompleteCallback@cb 000B                                __accesstop 0060  
                 __end_of__initialization 1768           I2C1_MasterOperation@returnValue 0015  
                      ?_SYSTEM_Initialize 0001                             ___rparam_used 000001  
                              ___freelist 0056                             ??_I2C1_Poller 0014  
                            ?_rtcdrv_poll 0001                   _rdBlkRegCompleteHandler 1808  
                           __end_of_ExCvt FF53                fp__rdBlkRegCompleteHandler 0000  
              __end_of_spi2_configuration FF8B                            __pcstackCOMRAM 0001  
                            __pidataBANK0 1BD0                       ??_SYSTEM_Initialize 0008  
        __end_of_I2C1_MasterEnableRestart 1C8A                                 ?_TMR0_ISR 0001  
                           __end_of_put2d 1384                    __end_of_PMD_Initialize 1B36  
            ??_I2C1_DO_SEND_RESTART_WRITE 0005                   ??_I2C1_MasterSendTxData 0005  
                       __end_of_ReadClock 0660                     __end_of_I2C1_DO_RESET 1BEA  
                        ?_TMR0_StartTimer 0001                 __end_of_SYSTEM_Initialize 1AE2  
              __end_of___simple_search_fl 027A                                   ??_put2d 0012  
                       ??_SPI2_Initialize 0005                                __pbssBANK0 0060  
         __end_of_I2C1_MasterWaitForEvent 1BA2             __end_of_rd2RegCompleteHandler 1914  
                    I2C1_Open@returnValue 0006             __end_of_wr2RegCompleteHandler 1974  
         __end_of_I2C1_Write1ByteRegister 1578                                 ?_SetClock 0019  
                   _rd1RegCompleteHandler 1914                    sendBufferLen@bufferLen 0013  
                             sendBuffer@i 0009                               sendBuffer@x 000B  
                         ??___expand_heap 0007                         _I2C1_DO_SEND_STOP 1C2C  
                   _wr1RegCompleteHandler 18B4                  rd1RegCompleteHandler@ptr 0010  
                           fp__I2C1_DO_RX 0000                             fp__I2C1_DO_TX 0000  
                         fp__I2C1_DO_IDLE 0000                           fp__I2C1_DO_RCEN 0000  
                 fp__I2C1_DO_ADDRESS_NACK 0000          __end_of_TMR0_SetInterruptHandler 1BD0  
                      ?_I2C1_DO_SEND_STOP 0001                                   ?___wmul 0005  
                              ??_TMR0_ISR 0003                           _I2C1_MasterOpen 1A84  
                         _I2C1_MasterStop 1C82                           _I2C1_Initialize 1B4E  
                     __end_of_I2C1_Poller 1AC4                                   ?_malloc 0019  
                       fp__I2C1_DO_RX_ACK 0000                           ?_PMD_Initialize 0001  
                  ?_I2C1_DO_SEND_ADR_READ 0001                       ??_I2C1_DO_SEND_STOP 0005  
                                 ?_strlen 0005                                   i2l10024 1882  
                                 i2l10026 1898                                   i2l10714 1C02  
                                 i2l10716 1C06                                   i2l11890 0046  
                                 i2l11892 0054                                   i2l11884 0012  
                                 i2l11886 0022                                   i2l11888 0030  
                       _I2C1_MasterIsNack 1B7C                                   _OSCCON1 000ED8  
                                 _OSCCON3 000EDA                                 _I2C1_Open 109C  
               ??_I2C1_DO_RX_NACK_RESTART 0005                                   _OSCTUNE 000EDD  
                       _I2C1_MasterSetIrq 1C54                                   _SSP1ADD 000F93  
                                 _SSP2ADD 000E93                                   _SLRCONA 000F0E  
                                 _SLRCONB 000F16                                   _SLRCONC 000F1E  
                                 _SSP1BUF 000F92                                   _SSP2BUF 000E92  
                      ?_I2C1_MasterIsNack 0001                ?_I2C1_DO_SEND_RESTART_READ 0001  
          ??_I2C1_SetDataCompleteCallback 0010                        ?_I2C1_MasterSetIrq 0001  
                             rtcGetAClk@t 00CA                        _i2c1_fsmStateTable FF53  
                           ReadClock@hour 0038                             ReadClock@year 003B  
                     ??_I2C1_MasterIsNack 0005                 __end_of_I2C1_DO_SEND_STOP 1C34  
               ??_rdBlkRegCompleteHandler 0012                        I2C1_SetCallback@cb 0005  
                       __end_of_getBuffer 11DE                                ??_SetClock 001F  
                                 _CurrVol 00A9                       ??_I2C1_MasterSetIrq 0005  
                                 __Hparam 0000                                   __Lparam 0000  
                    ___simple_search_fl@c 0015                      ___simple_search_fl@n 0005  
                                 ___awdiv 0D26                              _asctime$5318 0014  
                            _asctime$5319 0015                       fp__I2C1_DO_TX_EMPTY 0000  
                                 ___awmod 0E9A                  ___simple_search_fl@split 000F  
                      processRTC@argCount 00E6                                   __pcinit 171E  
                           ?_I2C1_DO_IDLE 0001                             ?_I2C1_DO_RCEN 0001  
                                 __ramtop 0F00                                   _getArgs 1B66  
                                 __ptext0 19A0                                   __ptext1 0F4A  
                                 __ptext2 16C6                                   __ptext3 0A64  
                                 __ptext4 091C                                   __ptext5 0000  
                                 __ptext6 0DEA                                   __ptext7 1B66  
                                 __ptext8 113E                                   __ptext9 0660  
                                 _asctime 027A                  _I2C1_MasterEnableRestart 1C86  
               __end_of_I2C1_MasterIsNack 1B90              ?_I2C1_SetAddressNackCallback 000B  
                   _OSCILLATOR_Initialize 1B36                 __end_of_I2C1_MasterSetIrq 1C5A  
                __end_of_I2C1_DO_TX_EMPTY 1486                          ___awmod@dividend 0005  
                ??_PIN_MANAGER_Initialize 0005                  wr1RegCompleteHandler@ptr 0010  
                              ?_I2C1_Open 0001                   fp__I2C1_DO_RX_NACK_STOP 0000  
                ?_I2C1_CallbackReturnStop 0010                                   free@ptr 0005  
                              _sendBuffer 0B64         __end_of_I2C1_DO_SEND_RESTART_READ 1C4C  
                    end_of_initialization 1768                __end_of_I2C1_MasterSendAck 1C60  
                                 malloc@m 001D                                   malloc@n 0019  
                                 malloc@p 0021                       _I2C1_MasterClearIrq 1C6C  
                       __end_of_rtcGetClk 127C                    ___expand_heap@new_brkp 000B  
                              _rtcGetAClk 127C                __end_of_I2C1_MasterStartRx 1C7A  
                  ?_rd1RegCompleteHandler 0010                    _I2C1_DO_SEND_ADR_WRITE 1BA2  
                       __end_of_rtcSetClk 0B64                                 i2u1080_48 189E  
                               i2u1080_49 18B2                                 i2u1079_40 1898  
                               i2u1079_41 1894                                 i2u1436_40 0022  
                               i2u1436_41 001E                                 i2u1437_40 0030  
                               i2u1437_41 002C                                 i2u1438_40 0046  
                               i2u1438_41 0042                                 i2u1439_40 0054  
                               i2u1439_41 0050              __end_of_I2C1_DO_SEND_RESTART 1C3C  
                 __end_of_I2C1_MasterOpen 1AA6                                   put2d@cl 0010  
                  ?_wr1RegCompleteHandler 0010                                   put2d@cp 000D  
                                 put2d@ct 0011                                getBuffer@i 0009  
                              getBuffer@x 000B                   __end_of_I2C1_MasterStop 1C86  
                 __end_of_I2C1_Initialize 1B66                               _I2C1_Poller 1AA6  
               ?_I2C1_CallbackReturnReset 0010             __end_of_I2C1_MasterDisableIrq 1C6C  
                             _I2C1_Status 0060                  fp__rd2RegCompleteHandler 0000  
                            SetClock@hour 001C                              SetClock@year 002B  
                                 postdec1 000FE5                                   postdec2 000FDD  
                fp__wr2RegCompleteHandler 0000                                   postinc0 000FEE  
                                 postinc1 000FE6                                   postinc2 000FDE  
                     _I2C1_MasterSendNack 1C60       __end_of_I2C1_SetAddressNackCallback 1AFE  
             _I2C1_SetAddressNackCallback 1AE2                      ?_I2C1_MasterClearIrq 0001  
                          ??_I2C1_DO_IDLE 0005                            ??_I2C1_DO_RCEN 0005  
      __end_of_I2C1_DO_SEND_RESTART_WRITE 1C44                _I2C1_DO_SEND_RESTART_WRITE 1C3C  
                                 strlen@a 0007                                   strlen@s 0005  
                _TMR0_SetInterruptHandler 1BC2                                 _PORTBbits 000F8E  
                               _PORTCbits 000F8F           __end_of_rdBlkRegCompleteHandler 184C  
                              _processDRV 1C9A                                _processRTC 16C6  
                     rtcGetAClk@bufferOut 00C6                          sendBuffer@x_4173 000D  
                        sendBuffer@x_4182 000F                          sendBuffer@x_4183 0011  
           ??_I2C1_SetAddressNackCallback 0010                 I2C1_Read1ByteRegister@reg 0016  
                              asctime@buf 00AB                                asctime@tim 0012  
                               _TRISBbits 000F89           I2C1_SetDataCompleteCallback@ptr 000E  
             I2C1_Write1ByteRegister@data 0017            I2C1_CallbackReturnReset@funPtr 0010  
                    ?_I2C1_MasterSendNack 0001                rdBlkRegCompleteHandler@ptr 0010  
                           _sendBufferLen 19F0              __end_of_INTERRUPT_Initialize 1C9A  
                   ??_I2C1_MasterClearIrq 0005                            __end_of___wmul 1A3C  
                          _I2C1_DO_RX_ACK 1C24                             ??_DRVA_TMR_ms 0001  
                          __end_of_malloc 0A64                    ?_OSCILLATOR_Initialize 0001  
                         _SPI2_Initialize 1A60                        rtcGetClk@bufferOut 00C6  
         __end_of_I2C1_CallbackReturnStop 1C82                           ___expand_heap@n 0009  
           __end_of_I2C1_MasterSendTxData 1C54                            __end_of_strlen 1882  
                      _spi2_configuration FF83                       start_initialization 171E  
                             ??_I2C1_Open 0005                                 _ReadClock 04C0  
                              malloc@lock 0092                       getBuffer@bufferSize 0005  
                   ??_I2C1_MasterSendNack 0005                               ?_sendBuffer 0005  
                         _DiskInitialized 005A                            ?_sendBufferLen 0013  
                             ?_rtcGetAClk 0001                  I2C1_SetBuffer@bufferSize 0007  
                        ?_I2C1_MasterOpen 0001                          ?_I2C1_MasterStop 0001  
          I2C1_Write1ByteRegister@address 0018                          ?_I2C1_Initialize 0001  
                        f_setlabel@badchr FF8B                        ___simple_search_fl 0000  
                        ??_PMD_Initialize 0005                    __end_of_I2C1_DO_RX_ACK 1C2C  
            ___simple_search_fl@best_last 000D                                  ??___wmul 0009  
                 ??_I2C1_DO_SEND_ADR_READ 0005                               __pdataBANK0 00EF  
                                ??_malloc 001B                       ?___simple_search_fl 0005  
                             ?_processDRV 0005                                  ??_strlen 0007  
                             ?_processRTC 00E6                          I2C1_Open@address 0005  
                               ___heap_hi 0E88                            sendBuffer@buff 0005  
                               ___heap_lo 0554                               __pbssBIGRAM 00FF  
                          sendBuffer@size 0007                               __pbssCOMRAM 0056  
                    _I2C1_DO_SEND_RESTART 1C34                             __pcstackBANK0 00C6  
                              ?_ReadClock 0019                       __end_of_DRVA_TMR_ms 17C4  
                           getArgs@buffer 0011               ??_I2C1_DO_SEND_RESTART_READ 0005  
                    ??___simple_search_fl 0007                      __end_of_I2C1_DO_IDLE 1C02  
                    __end_of_I2C1_DO_RCEN 1BF6             I2C1_SetAddressNackCallback@cb 000B  
                   _TMR0_InterruptHandler 00FC                                 __pnvBANK0 00FC  
                   _rd2RegCompleteHandler 18E4                 fp__I2C1_DO_SEND_ADR_WRITE 0000  
                  _PIN_MANAGER_Initialize 1578                     _wr2RegCompleteHandler 1944  
              ??_I2C1_MasterEnableRestart 0005                     __end_of___expand_heap 0E9A  
                               _getBuffer 113E                  rd2RegCompleteHandler@ptr 0010  
                               __pintcode 0008                            _I2C1_MasterFsm 15EE  
                           __pmediumconst FED2                   __end_of_SPI2_Initialize 1A84  
                        fp__I2C1_DO_RESET 0000                           ?_I2C1_DO_RX_ACK 0001  
                                ?___awdiv 0005                                  ?___awmod 0005  
                 _I2C1_MasterWaitForEvent 1B90                          _I2C1_MasterClose 1C8E  
                ??_I2C1_Read1ByteRegister 0017                            _I2C1_SetBuffer 1A3C  
            ??_INTERRUPT_InterruptManager 0003                                  ?_getArgs 000F  
                                ?_asctime 0012                          _I2C1_MasterStart 1C8A  
                        _I2C1_MasterWrite 1C0C                   _I2C1_Write1ByteRegister 1502  
                              rtcGetClk@t 00CE                     ?_I2C1_DO_SEND_RESTART 0001  
                       ?_I2C1_DO_TX_EMPTY 0001          __end_of_I2C1_CallbackReturnReset 1C7E  
                      ??_I2C1_DO_TX_EMPTY 0012                             _TMR0_CallBack 1882  
                     SetClock@dayOMOPlace 0022                   ??_rd1RegCompleteHandler 0012  
                 ?_I2C1_DO_SEND_ADR_WRITE 0001                 I2C1_MasterSendTxData@data 0005  
                     SetClock@dayOMTPlace 002F                           ??_sendBufferLen 0015  
                    _INTERRUPT_Initialize 1C96                   ??_wr1RegCompleteHandler 0012  
                         getBuffer@x_4194 000D                         ??_TMR0_Initialize 0008  
                        _I2C1_SetCallback 1384                            ___wmul@product 0009  
                                _LATBbits 000F84                                  _LATCbits 000F85  
                              _I2C1_DO_RX 0FF4                                _I2C1_DO_TX 0C5E  
                         getBuffer@buffer 0007                         rtcdrv_poll@x_4253 00EC  
                                _PIE0bits 000EC2                                  _PIE3bits 000EC5  
                               _rtcGetClk 11DE                                _I2C1_Close 1974  
                            ?_I2C1_Poller 0001                    __end_of_I2C1_MasterFsm 165A  
            __end_of_I2C1_MasterGetRxData 1C76                ??_TMR0_SetInterruptHandler 0008  
                                _PIR0bits 000ECA                                  _PIR3bits 000ECD  
                               _rtcSetClk 0A64                                  i2u907_40 178C  
                                i2u907_41 1788                                  i2u908_40 17B4  
                                i2u908_41 17B0                                ?_getBuffer 0005  
                      _I2C1_MasterSendAck 1C5A                 _I2C1_DO_SEND_RESTART_READ 1C44  
                                _SSP1CON1 000F96                                  _SSP1CON2 000F97  
                                _SSP1CON3 000F98                                  _SSP2CON1 000E96  
                                _SSP2CON2 000E97                                  _TMR0_ISR 1C02  
                  __end_of_I2C1_SetBuffer 1A60                                  _SSP1STAT 000F95  
                                _SSP2STAT 000E95                         ??_PIN_MANAGER_IOC 0001  
    __end_of_I2C1_SetDataCompleteCallback 1B1A              _I2C1_SetDataCompleteCallback 1AFE  
                      _I2C1_MasterStartRx 1C76               ?_I2C1_DO_SEND_RESTART_WRITE 0001  
                               asctime@cp 0018                I2C1_Write1ByteRegister@reg 0016  
                             _DRVA_TMR_ms 1772                       ?_I2C1_MasterSendAck 0001  
                       ___wmul@multiplier 0005                  ?_I2C1_DO_RX_NACK_RESTART 0001  
                    fp__I2C1_DO_SEND_STOP 0000                                  _CardType 00A4  
                     ?_I2C1_MasterStartRx 0001              __end_of_I2C1_DO_ADDRESS_NACK 16C6  
                             ??_ReadClock 0031                  wr2RegCompleteHandler@ptr 0010  
          __end_of_I2C1_DO_SEND_ADR_WRITE 1BB2                            ?_TMR0_CallBack 0001  
                           _I2C1_DO_RESET 1BDE                            ReadClock@month 003A  
                               copy_data0 1732                     ?_INTERRUPT_Initialize 0001  
                   I2C1_Close@returnValue 0005                  ?_rdBlkRegCompleteHandler 0010  
                     I2C1_SetCallback@idx 000A                       I2C1_SetCallback@ptr 0008  
                               malloc@end 009A                                 malloc@cur 009C  
                               malloc@new 0023                      ??_I2C1_MasterSendAck 0005  
                  ?_rd2RegCompleteHandler 0010              __end_of_I2C1_MasterOperation 1808  
                                _SetClock 07C6                             ??_rtcdrv_poll 0056  
                  ?_wr2RegCompleteHandler 0010                      ??_I2C1_MasterStartRx 0005  
                              ?_rtcGetClk 0001                                  __Hrparam 0000  
                         ?_I2C1_MasterFsm 0001                                  __Lrparam 0000  
                              ?_rtcSetClk 0001                 ??_I2C1_MasterWaitForEvent 0005  
                   _I2C1_MasterDisableIrq 1C66                          ?_SPI2_Initialize 0001  
                 ??_OSCILLATOR_Initialize 0005                           ?_I2C1_SetBuffer 0005  
                       ??_TMR0_StartTimer 0005                 ??_I2C1_Write1ByteRegister 0018  
       I2C1_Read1ByteRegister@returnValue 0018                    ??_I2C1_DO_SEND_RESTART 0005  
                              _T0CON0bits 000FD5                  __end_off_setlabel@badchr FF9D  
                          ?_I2C1_DO_RESET 0001                                  __ptext10 07C6  
                                __ptext11 1502                                  __ptext20 0D26  
                                __ptext12 11DE                                  __ptext21 1A16  
                                __ptext13 127C                                  __ptext30 1B90  
                                __ptext22 04C0                                  __ptext14 184C  
                                __ptext31 15EE                                  __ptext23 1486  
                                __ptext15 19F0                                  __ptext40 1C44  
                                __ptext32 165A                                  __ptext24 1AE2  
                                __ptext16 0B64                                  __ptext41 1BEA  
                                __ptext33 1BDE                                  __ptext25 109C  
                                __ptext17 027A                                  __ptext50 1C4C  
                                __ptext42 0FF4                                  __ptext34 1C14  
                                __ptext26 1A84                                  __ptext18 1300  
                                __ptext51 1C5A                                  __ptext43 0C5E  
                                __ptext35 1C1C                                  __ptext27 1C0C  
                                __ptext19 0E9A                                  __ptext60 1914  
                                __ptext52 1C72                                  __ptext44 1BA2  
                                __ptext36 1C24                                  __ptext28 17C4  
                                __ptext61 1944                                  __ptext53 1C60  
                                __ptext45 1BB2                                  __ptext37 1C2C  
                                __ptext29 1AA6                                  __ptext70 1C8E  
                                __ptext62 1AFE                                  __ptext54 1C76  
                                __ptext46 1BF6                                  __ptext38 1C34  
                                __ptext71 1C6C                                  __ptext63 1384  
                                __ptext55 1C7A                                  __ptext47 1408  
                                __ptext39 1C3C                                  __ptext80 1B36  
                                __ptext72 1C9A                                  __ptext64 1A3C  
                                __ptext56 1C7E                                  __ptext48 1C54  
                                __ptext81 1C96                                  __ptext73 1C92  
                                __ptext65 1C82                                  __ptext57 1808  
                                __ptext49 1B7C                                  __ptext82 1B4E  
                                __ptext74 1AC4                                  __ptext66 1C86  
                                __ptext58 18B4                                  __ptext75 19C8  
                                __ptext67 1C8A                                  __ptext59 18E4  
                                __ptext84 1C02                                  __ptext76 1BC2  
                                __ptext68 1974                                  __ptext85 1882  
                                __ptext77 1A60                                  __ptext69 1C66  
                                __ptext86 1772                                  __ptext78 1B1A  
                                __ptext87 1C9C                                  __ptext79 1578  
                                __ptext88 1C9E                                  __ptext89 0000  
                            _SSP1CON1bits 000F96                              ??_sendBuffer 0009  
                            _SSP1CON2bits 000F97                              _SSP2CON1bits 000E96  
                            ??_rtcGetAClk 0054                  _I2C1_CallbackReturnReset 1C7A  
             fp__I2C1_CallbackReturnReset 0000                               ?_I2C1_DO_RX 0001  
                             ?_I2C1_DO_TX 0001      __end_of_TMR0_DefaultInterruptHandler 1C9E  
            _TMR0_DefaultInterruptHandler 1C9C               __end_of_I2C1_MasterClearIrq 1C72  
            __end_of_I2C1_DO_RX_NACK_STOP 1C24                               ?_I2C1_Close 0001  
                             ??_getBuffer 0009                                  isa$xinst 000000  
                      SetClock@dayOfMonth 001A                                  int$flags 005B  
                                asctime@s 0016           __end_of_I2C1_DO_RX_NACK_RESTART 1C1C  
                          SetClock@minute 001D                            SetClock@second 001E  
                I2C1_MasterOperation@read 0014                                  free@cptr 000B  
                     __end_of_rtcdrv_poll 0FF4        __end_of_INTERRUPT_InterruptManager 0064  
              _INTERRUPT_InterruptManager 0008                              _SSP1STATbits 000F95  
                      __end_of_sendBuffer 0C5E             __end_of_I2C1_DO_SEND_ADR_READ 1BC2  
                            _I2C1_DO_IDLE 1BF6                              _I2C1_DO_RCEN 1BEA  
                            ??_processDRV 0006                              ??_processRTC 00E7  
             __end_of_I2C1_MasterSendNack 1C66                                  malloc@sz 001F  
                      __end_of_rtcGetAClk 1300                                _INTCONbits 000FF2  
           fp__I2C1_DO_SEND_RESTART_WRITE 0000                           ??_TMR0_CallBack 0003  
       ___simple_search_fl@remaining_size 000B            I2C1_SetAddressNackCallback@ptr 000E  
                    _I2C1_MasterGetRxData 1C72                     _I2C1_MasterSendTxData 1C4C  
                  ??_INTERRUPT_Initialize 0005                                  intlevel2 0000  
                     FatFsDemo_Tasks@F262 00EF                  __end_of_I2C1_MasterClose 1C92  
                  _I2C1_Read1ByteRegister 1486                   ?_PIN_MANAGER_Initialize 0001  
           I2C1_Read1ByteRegister@address 0017                               _RTCDRV_MODE 00A8  
                __end_of_I2C1_MasterStart 1C8E                  __end_of_I2C1_MasterWrite 1C14  
                        ??_I2C1_DO_RX_ACK 0005                   _I2C1_CallbackReturnStop 1C7E  
                             ??_rtcGetClk 0054                fp__I2C1_CallbackReturnStop 0000  
                      __end_of_processDRV 1C9C                        __end_of_processRTC 171E  
         fp__TMR0_DefaultInterruptHandler 0000             ?_TMR0_DefaultInterruptHandler 0001  
                    _I2C1_DO_ADDRESS_NACK 165A                               ??_rtcSetClk 0032  
                  ?_I2C1_MasterDisableIrq 0001                         SetClock@dayOfWeek 001B  
                           SetClock@month 0019                  __end_of_I2C1_SetCallback 1408  
                              _SSP1DATPPS 000EB8                                _SSP2DATPPS 000E90  
                              _SSP1CLKPPS 000EB7                           ??_I2C1_DO_RESET 0005  
                              _SSP2CLKPPS 000E8F                      _I2C1_MasterOperation 17C4  
                         _TMR0_Initialize 19C8                     ?_I2C1_MasterGetRxData 0001  
                      SetClock@minToWrite 0026                         SetClock@minOPlace 0020  
                          fp__DRVA_TMR_ms 0000                         SetClock@minTPlace 002D  
                     SetClock@hourToWrite 0027                        SetClock@hourOPlace 0021  
          __end_of_PIN_MANAGER_Initialize 15EE                         SetClock@secOPlace 001F  
                      SetClock@secToWrite 0025                        SetClock@hourTPlace 002E  
           __end_of_rd1RegCompleteHandler 1944                         SetClock@secTPlace 002C  
                         _PIN_MANAGER_IOC 1C9E             __end_of_wr1RegCompleteHandler 18E4  
                     sendBufferLen@F10570 009E                               _rtcdrv_poll 0F4A  
                   ?_I2C1_DO_ADDRESS_NACK 0001  
